---
triple:          'x86_64-apple-darwin'
binary-path:     'tests/bin/root_findertest'
relocations:
  - { offsetInCU: 0x53, offset: 0x53, size: 0x8, addend: 0x0, symName: __ZL18DOCTEST_ANON_VAR_0, symObjAddr: 0x1EE7C0, symBinAddr: 0x100058280, symSize: 0x0 }
  - { offsetInCU: 0x7E, offset: 0x7E, size: 0x8, addend: 0x0, symName: __ZN7doctest18is_running_in_testE, symObjAddr: 0x1EEE00, symBinAddr: 0x1000588C0, symSize: 0x0 }
  - { offsetInCU: 0x105, offset: 0x105, size: 0x8, addend: 0x0, symName: __ZN7doctest6detail4g_csE, symObjAddr: 0x1EEE08, symBinAddr: 0x1000588C8, symSize: 0x0 }
  - { offsetInCU: 0x5DB, offset: 0x5DB, size: 0x8, addend: 0x0, symName: __ZN7doctest6detail18getRegisteredTestsEv, symObjAddr: 0x5920, symBinAddr: 0x10000A060, symSize: 0x70 }
  - { offsetInCU: 0x606, offset: 0x606, size: 0x8, addend: 0x0, symName: __ZZN7doctest6detail18getRegisteredTestsEvE4data, symObjAddr: 0x1EE7F0, symBinAddr: 0x1000582B0, symSize: 0x0 }
  - { offsetInCU: 0x7AF, offset: 0x7AF, size: 0x8, addend: 0x0, symName: __ZN7doctest6detailL7consumeEPKii, symObjAddr: 0x0, symBinAddr: 0x100004740, symSize: 0x10 }
  - { offsetInCU: 0x7E4, offset: 0x7E4, size: 0x8, addend: 0x0, symName: __ZN7doctest6detail12setTestSuiteERKNS0_9TestSuiteE, symObjAddr: 0x10, symBinAddr: 0x100004750, symSize: 0x40 }
  - { offsetInCU: 0x812, offset: 0x812, size: 0x8, addend: 0x0, symName: __ZN7doctest6detail8tlssPushEv, symObjAddr: 0x430, symBinAddr: 0x100004B70, symSize: 0x20 }
  - { offsetInCU: 0x830, offset: 0x830, size: 0x8, addend: 0x0, symName: __ZN7doctest6detail7tlssPopEv, symObjAddr: 0x540, symBinAddr: 0x100004C80, symSize: 0x40 }
  - { offsetInCU: 0x84E, offset: 0x84E, size: 0x8, addend: 0x0, symName: __ZN7doctest6detail15getCurrentTicksEv, symObjAddr: 0x740, symBinAddr: 0x100004E80, symSize: 0x30 }
  - { offsetInCU: 0x8A7, offset: 0x8A7, size: 0x8, addend: 0x0, symName: __ZN7doctest6detail11toStreamLitIfEENS_6StringET_, symObjAddr: 0x2790, symBinAddr: 0x100006ED0, symSize: 0x50 }
  - { offsetInCU: 0x8ED, offset: 0x8ED, size: 0x8, addend: 0x0, symName: __ZN7doctest6detail11toStreamLitIdEENS_6StringET_, symObjAddr: 0x2810, symBinAddr: 0x100006F50, symSize: 0x50 }
  - { offsetInCU: 0x933, offset: 0x933, size: 0x8, addend: 0x0, symName: __ZN7doctest6detail11toStreamLitIeEENS_6StringET_, symObjAddr: 0x2890, symBinAddr: 0x100006FD0, symSize: 0x50 }
  - { offsetInCU: 0x979, offset: 0x979, size: 0x8, addend: 0x0, symName: __ZN7doctest6detail11toStreamLitIiEENS_6StringET_, symObjAddr: 0x2910, symBinAddr: 0x100007050, symSize: 0x50 }
  - { offsetInCU: 0x9BF, offset: 0x9BF, size: 0x8, addend: 0x0, symName: __ZN7doctest6detail11toStreamLitIjEENS_6StringET_, symObjAddr: 0x29C0, symBinAddr: 0x100007100, symSize: 0x50 }
  - { offsetInCU: 0xA05, offset: 0xA05, size: 0x8, addend: 0x0, symName: __ZN7doctest6detail11toStreamLitIsEENS_6StringET_, symObjAddr: 0x2A40, symBinAddr: 0x100007180, symSize: 0x50 }
  - { offsetInCU: 0xA4B, offset: 0xA4B, size: 0x8, addend: 0x0, symName: __ZN7doctest6detail11toStreamLitItEENS_6StringET_, symObjAddr: 0x2AC0, symBinAddr: 0x100007200, symSize: 0x50 }
  - { offsetInCU: 0xA91, offset: 0xA91, size: 0x8, addend: 0x0, symName: __ZN7doctest6detail11toStreamLitIlEENS_6StringET_, symObjAddr: 0x2BA0, symBinAddr: 0x1000072E0, symSize: 0x50 }
  - { offsetInCU: 0xAD7, offset: 0xAD7, size: 0x8, addend: 0x0, symName: __ZN7doctest6detail11toStreamLitImEENS_6StringET_, symObjAddr: 0x2C20, symBinAddr: 0x100007360, symSize: 0x50 }
  - { offsetInCU: 0xB1D, offset: 0xB1D, size: 0x8, addend: 0x0, symName: __ZN7doctest6detail11toStreamLitIxEENS_6StringET_, symObjAddr: 0x2CA0, symBinAddr: 0x1000073E0, symSize: 0x50 }
  - { offsetInCU: 0xB63, offset: 0xB63, size: 0x8, addend: 0x0, symName: __ZN7doctest6detail11toStreamLitIyEENS_6StringET_, symObjAddr: 0x2D20, symBinAddr: 0x100007460, symSize: 0x50 }
  - { offsetInCU: 0xBA9, offset: 0xBA9, size: 0x8, addend: 0x0, symName: __ZN7doctest6detail18checkIfShouldThrowENS_10assertType4EnumE, symObjAddr: 0x3BC0, symBinAddr: 0x100008300, symSize: 0xA0 }
  - { offsetInCU: 0xBD7, offset: 0xBD7, size: 0x8, addend: 0x0, symName: __ZN7doctest6detail14throwExceptionEv, symObjAddr: 0x3C80, symBinAddr: 0x1000083C0, symSize: 0x40 }
  - { offsetInCU: 0xCCA, offset: 0xCCA, size: 0x8, addend: 0x0, symName: __ZN7doctest6detail7regTestERKNS0_8TestCaseE, symObjAddr: 0x59D0, symBinAddr: 0x10000A110, symSize: 0x30 }
  - { offsetInCU: 0xCF8, offset: 0xCF8, size: 0x8, addend: 0x0, symName: __ZN7doctest6detail16isDebuggerActiveEv, symObjAddr: 0x5A40, symBinAddr: 0x10000A180, symSize: 0xF0 }
  - { offsetInCU: 0xD46, offset: 0xD46, size: 0x8, addend: 0x0, symName: __ZN7doctest6detail31registerExceptionTranslatorImplEPKNS0_20IExceptionTranslatorE, symObjAddr: 0x5B30, symBinAddr: 0x10000A270, symSize: 0x90 }
  - { offsetInCU: 0xEED, offset: 0xEED, size: 0x8, addend: 0x0, symName: __ZN7doctest6detail31failed_out_of_a_testing_contextERKNS_10AssertDataE, symObjAddr: 0x7110, symBinAddr: 0x10000B850, symSize: 0x50 }
  - { offsetInCU: 0xF17, offset: 0xF17, size: 0x8, addend: 0x0, symName: __ZN7doctest6detail13decomp_assertENS_10assertType4EnumEPKciS4_RKNS0_6ResultE, symObjAddr: 0x71B0, symBinAddr: 0x10000B8F0, symSize: 0x400 }
  - { offsetInCU: 0x1096, offset: 0x1096, size: 0x8, addend: 0x0, symName: __ZN7doctest6detail20registerReporterImplEPKciPFPNS_9IReporterERKNS_14ContextOptionsEEb, symObjAddr: 0xE740, symBinAddr: 0x100012E80, symSize: 0x210 }
  - { offsetInCU: 0x1265, offset: 0x1265, size: 0x8, addend: 0x0, symName: __ZN7doctest6detail7forwardIRdEEOT_RNSt3__116remove_referenceIS3_E4typeE, symObjAddr: 0x20A70, symBinAddr: 0x1000251B0, symSize: 0x10 }
  - { offsetInCU: 0x129C, offset: 0x129C, size: 0x8, addend: 0x0, symName: __ZN7doctest6detail7forwardINS_6ApproxEEEOT_RNSt3__116remove_referenceIS3_E4typeE, symObjAddr: 0x20A80, symBinAddr: 0x1000251C0, symSize: 0x10 }
  - { offsetInCU: 0x12D3, offset: 0x12D3, size: 0x8, addend: 0x0, symName: __ZN7doctest6detail19stringifyBinaryExprIdNS_6ApproxEEENS_6StringERKT_PKcRKT0_, symObjAddr: 0x20A90, symBinAddr: 0x1000251D0, symSize: 0x180 }
  - { offsetInCU: 0x1334, offset: 0x1334, size: 0x8, addend: 0x0, symName: __ZN7doctest6detail7forwardIRiEEOT_RNSt3__116remove_referenceIS3_E4typeE, symObjAddr: 0x20C90, symBinAddr: 0x1000253D0, symSize: 0x10 }
  - { offsetInCU: 0x136B, offset: 0x136B, size: 0x8, addend: 0x0, symName: __ZN7doctest6detail7forwardIiEEOT_RNSt3__116remove_referenceIS2_E4typeE, symObjAddr: 0x20CA0, symBinAddr: 0x1000253E0, symSize: 0x10 }
  - { offsetInCU: 0x13A2, offset: 0x13A2, size: 0x8, addend: 0x0, symName: __ZN7doctest6detail19stringifyBinaryExprIiiEENS_6StringERKT_PKcRKT0_, symObjAddr: 0x20CB0, symBinAddr: 0x1000253F0, symSize: 0x180 }
  - { offsetInCU: 0x1403, offset: 0x1403, size: 0x8, addend: 0x0, symName: __ZN7doctest6detail7forwardIRKiEEOT_RNSt3__116remove_referenceIS4_E4typeE, symObjAddr: 0x20FE0, symBinAddr: 0x100025720, symSize: 0x10 }
  - { offsetInCU: 0x143A, offset: 0x143A, size: 0x8, addend: 0x0, symName: __ZN7doctest6detail15reporterCreatorINS_12_GLOBAL__N_111XmlReporterEEEPNS_9IReporterERKNS_14ContextOptionsE, symObjAddr: 0x2BB40, symBinAddr: 0x100030280, symSize: 0x60 }
  - { offsetInCU: 0x1471, offset: 0x1471, size: 0x8, addend: 0x0, symName: __ZN7doctest6detail15reporterCreatorINS_12_GLOBAL__N_113JUnitReporterEEEPNS_9IReporterERKNS_14ContextOptionsE, symObjAddr: 0x32B60, symBinAddr: 0x1000372A0, symSize: 0x60 }
  - { offsetInCU: 0x14A8, offset: 0x14A8, size: 0x8, addend: 0x0, symName: __ZN7doctest6detail15reporterCreatorINS_12_GLOBAL__N_115ConsoleReporterEEEPNS_9IReporterERKNS_14ContextOptionsE, symObjAddr: 0x39D30, symBinAddr: 0x10003E470, symSize: 0x60 }
  - { offsetInCU: 0x241C, offset: 0x241C, size: 0x8, addend: 0x0, symName: __ZN7doctest12_GLOBAL__N_123DOCTEST_ANON_REPORTER_5E, symObjAddr: 0x1EE810, symBinAddr: 0x1000582D0, symSize: 0x0 }
  - { offsetInCU: 0x2436, offset: 0x2436, size: 0x8, addend: 0x0, symName: __ZN7doctest12_GLOBAL__N_123DOCTEST_ANON_REPORTER_9E, symObjAddr: 0x1EE814, symBinAddr: 0x1000582D4, symSize: 0x0 }
  - { offsetInCU: 0x2450, offset: 0x2450, size: 0x8, addend: 0x0, symName: __ZN7doctest12_GLOBAL__N_124DOCTEST_ANON_REPORTER_13E, symObjAddr: 0x1EE818, symBinAddr: 0x1000582D8, symSize: 0x0 }
  - { offsetInCU: 0x245D, offset: 0x245D, size: 0x8, addend: 0x0, symName: __ZN7doctest12_GLOBAL__N_123getExceptionTranslatorsEv, symObjAddr: 0x5C80, symBinAddr: 0x10000A3C0, symSize: 0x70 }
  - { offsetInCU: 0x2488, offset: 0x2488, size: 0x8, addend: 0x0, symName: __ZZN7doctest12_GLOBAL__N_123getExceptionTranslatorsEvE4data, symObjAddr: 0x1EED18, symBinAddr: 0x1000587D8, symSize: 0x0 }
  - { offsetInCU: 0x2498, offset: 0x2498, size: 0x8, addend: 0x0, symName: __ZN7doctest12_GLOBAL__N_121FatalConditionHandler12altStackSizeE, symObjAddr: 0x4CB08, symBinAddr: 0x100058008, symSize: 0x0 }
  - { offsetInCU: 0x2544, offset: 0x2544, size: 0x8, addend: 0x0, symName: __ZN7doctest12_GLOBAL__N_121FatalConditionHandler11altStackMemE, symObjAddr: 0x1EED38, symBinAddr: 0x1000587F8, symSize: 0x0 }
  - { offsetInCU: 0x2551, offset: 0x2551, size: 0x8, addend: 0x0, symName: __ZN7doctest12_GLOBAL__N_112getReportersEv, symObjAddr: 0xD590, symBinAddr: 0x100011CD0, symSize: 0x70 }
  - { offsetInCU: 0x257C, offset: 0x257C, size: 0x8, addend: 0x0, symName: __ZZN7doctest12_GLOBAL__N_112getReportersEvE4data, symObjAddr: 0x1EED40, symBinAddr: 0x100058800, symSize: 0x0 }
  - { offsetInCU: 0x2592, offset: 0x2592, size: 0x8, addend: 0x0, symName: __ZN7doctest12_GLOBAL__N_112getListenersEv, symObjAddr: 0xD750, symBinAddr: 0x100011E90, symSize: 0x70 }
  - { offsetInCU: 0x25BD, offset: 0x25BD, size: 0x8, addend: 0x0, symName: __ZZN7doctest12_GLOBAL__N_112getListenersEvE4data, symObjAddr: 0x1EED60, symBinAddr: 0x100058820, symSize: 0x0 }
  - { offsetInCU: 0x25CD, offset: 0x25CD, size: 0x8, addend: 0x0, symName: __ZN7doctest12_GLOBAL__N_121FatalConditionHandler5isSetE, symObjAddr: 0x1EED80, symBinAddr: 0x100058840, symSize: 0x0 }
  - { offsetInCU: 0x25E0, offset: 0x25E0, size: 0x8, addend: 0x0, symName: __ZN7doctest12_GLOBAL__N_121FatalConditionHandler11oldSigStackE, symObjAddr: 0x1EED88, symBinAddr: 0x100058848, symSize: 0x0 }
  - { offsetInCU: 0x25FA, offset: 0x25FA, size: 0x8, addend: 0x0, symName: __ZN7doctest12_GLOBAL__N_110signalDefsE, symObjAddr: 0x4CB10, symBinAddr: 0x100058010, symSize: 0x0 }
  - { offsetInCU: 0x2632, offset: 0x2632, size: 0x8, addend: 0x0, symName: __ZN7doctest12_GLOBAL__N_121FatalConditionHandler13oldSigActionsE, symObjAddr: 0x1EEDA0, symBinAddr: 0x100058860, symSize: 0x0 }
  - { offsetInCU: 0x2F2A, offset: 0x2F2A, size: 0x8, addend: 0x0, symName: __ZN7doctest12_GLOBAL__N_17stricmpEPKcS2_, symObjAddr: 0x14C0, symBinAddr: 0x100005C00, symSize: 0x80 }
  - { offsetInCU: 0x2F84, offset: 0x2F84, size: 0x8, addend: 0x0, symName: __ZN7doctest12_GLOBAL__N_115color_to_streamERNSt3__113basic_ostreamIcNS1_11char_traitsIcEEEENS_5Color4EnumE, symObjAddr: 0x1B40, symBinAddr: 0x100006280, symSize: 0x1C0 }
  - { offsetInCU: 0x2FCC, offset: 0x2FCC, size: 0x8, addend: 0x0, symName: __ZN7doctest12_GLOBAL__N_115throw_exceptionISt11logic_errorEEvRKT_, symObjAddr: 0x2370, symBinAddr: 0x100006AB0, symSize: 0x40 }
  - { offsetInCU: 0x2FFF, offset: 0x2FFF, size: 0x8, addend: 0x0, symName: __ZN7doctest12_GLOBAL__N_110matchesAnyEPKcRKNSt3__16vectorINS_6StringENS3_9allocatorIS5_EEEEbb, symObjAddr: 0x3E30, symBinAddr: 0x100008570, symSize: 0xF0 }
  - { offsetInCU: 0x30A9, offset: 0x30A9, size: 0x8, addend: 0x0, symName: __ZN7doctest12_GLOBAL__N_14hashEyy, symObjAddr: 0x4680, symBinAddr: 0x100008DC0, symSize: 0x20 }
  - { offsetInCU: 0x30E6, offset: 0x30E6, size: 0x8, addend: 0x0, symName: __ZN7doctest12_GLOBAL__N_14hashERKNSt3__16vectorINS_16SubcaseSignatureENS1_9allocatorIS3_EEEEm, symObjAddr: 0x46A0, symBinAddr: 0x100008DE0, symSize: 0xB0 }
  - { offsetInCU: 0x315E, offset: 0x315E, size: 0x8, addend: 0x0, symName: __ZN7doctest12_GLOBAL__N_14hashERKNS_16SubcaseSignatureE, symObjAddr: 0x4750, symBinAddr: 0x100008E90, symSize: 0x50 }
  - { offsetInCU: 0x318C, offset: 0x318C, size: 0x8, addend: 0x0, symName: __ZN7doctest12_GLOBAL__N_14hashERKNSt3__16vectorINS_16SubcaseSignatureENS1_9allocatorIS3_EEEE, symObjAddr: 0x5010, symBinAddr: 0x100009750, symSize: 0xA0 }
  - { offsetInCU: 0x3218, offset: 0x3218, size: 0x8, addend: 0x0, symName: __ZN7doctest12_GLOBAL__N_124translateActiveExceptionEv, symObjAddr: 0x68F0, symBinAddr: 0x10000B030, symSize: 0x2F0 }
  - { offsetInCU: 0x32D6, offset: 0x32D6, size: 0x8, addend: 0x0, symName: __ZN7doctest12_GLOBAL__N_19addAssertENS_10assertType4EnumE, symObjAddr: 0x7090, symBinAddr: 0x10000B7D0, symSize: 0x40 }
  - { offsetInCU: 0x3300, offset: 0x3300, size: 0x8, addend: 0x0, symName: __ZN7doctest12_GLOBAL__N_115addFailedAssertENS_10assertType4EnumE, symObjAddr: 0x70D0, symBinAddr: 0x10000B810, symSize: 0x40 }
  - { offsetInCU: 0x332A, offset: 0x332A, size: 0x8, addend: 0x0, symName: __ZN7doctest12_GLOBAL__N_117parseCommaSepArgsEiPKPKcS2_RNSt3__16vectorINS_6StringENS5_9allocatorIS7_EEEE, symObjAddr: 0xA900, symBinAddr: 0x10000F040, symSize: 0x340 }
  - { offsetInCU: 0x3433, offset: 0x3433, size: 0x8, addend: 0x0, symName: __ZN7doctest12_GLOBAL__N_111parseOptionEiPKPKcS2_PNS_6StringERKS5_, symObjAddr: 0xAC40, symBinAddr: 0x10000F380, symSize: 0x90 }
  - { offsetInCU: 0x349D, offset: 0x349D, size: 0x8, addend: 0x0, symName: __ZN7doctest12_GLOBAL__N_114parseIntOptionEiPKPKcS2_NS0_10optionTypeERi, symObjAddr: 0xACD0, symBinAddr: 0x10000F410, symSize: 0x310 }
  - { offsetInCU: 0x3585, offset: 0x3585, size: 0x8, addend: 0x0, symName: __ZN7doctest12_GLOBAL__N_19parseFlagEiPKPKcS2_, symObjAddr: 0xAFE0, symBinAddr: 0x10000F720, symSize: 0xC0 }
  - { offsetInCU: 0x35D1, offset: 0x35D1, size: 0x8, addend: 0x0, symName: __ZN7doctest12_GLOBAL__N_119fileOrderComparatorEPKNS_6detail8TestCaseES4_, symObjAddr: 0xDD50, symBinAddr: 0x100012490, symSize: 0x90 }
  - { offsetInCU: 0x361D, offset: 0x361D, size: 0x8, addend: 0x0, symName: __ZN7doctest12_GLOBAL__N_120suiteOrderComparatorEPKNS_6detail8TestCaseES4_, symObjAddr: 0xDDE0, symBinAddr: 0x100012520, symSize: 0x70 }
  - { offsetInCU: 0x3669, offset: 0x3669, size: 0x8, addend: 0x0, symName: __ZN7doctest12_GLOBAL__N_119nameOrderComparatorEPKNS_6detail8TestCaseES4_, symObjAddr: 0xDE50, symBinAddr: 0x100012590, symSize: 0x70 }
  - { offsetInCU: 0x36B5, offset: 0x36B5, size: 0x8, addend: 0x0, symName: __ZN7doctest12_GLOBAL__N_17wildcmpEPKcS2_b, symObjAddr: 0x1A9E0, symBinAddr: 0x10001F120, symSize: 0x230 }
  - { offsetInCU: 0x371F, offset: 0x371F, size: 0x8, addend: 0x0, symName: __ZN7doctest12_GLOBAL__N_14hashEPKc, symObjAddr: 0x1AF80, symBinAddr: 0x10001F6C0, symSize: 0x50 }
  - { offsetInCU: 0x376B, offset: 0x376B, size: 0x8, addend: 0x0, symName: __ZN7doctest12_GLOBAL__N_115parseOptionImplEiPKPKcS2_PNS_6StringE, symObjAddr: 0x1EC70, symBinAddr: 0x1000233B0, symSize: 0x1D0 }
  - { offsetInCU: 0x385E, offset: 0x385E, size: 0x8, addend: 0x0, symName: __ZN7doctest12_GLOBAL__N_111reportFatalERKNSt3__112basic_stringIcNS1_11char_traitsIcEENS1_9allocatorIcEEEE, symObjAddr: 0x1FCB0, symBinAddr: 0x1000243F0, symSize: 0x320 }
  - { offsetInCU: 0x3BDF, offset: 0x3BDF, size: 0x8, addend: 0x0, symName: __ZN7doctest12_GLOBAL__N_1lsERNSt3__113basic_ostreamIcNS1_11char_traitsIcEEEERKNS0_9XmlEncodeE, symObjAddr: 0x308B0, symBinAddr: 0x100034FF0, symSize: 0x30 }
  - { offsetInCU: 0x3C1D, offset: 0x3C1D, size: 0x8, addend: 0x0, symName: __ZN7doctest12_GLOBAL__N_112_GLOBAL__N_113hexEscapeCharERNSt3__113basic_ostreamIcNS2_11char_traitsIcEEEEh, symObjAddr: 0x30DA0, symBinAddr: 0x1000354E0, symSize: 0xC0 }
  - { offsetInCU: 0x3C65, offset: 0x3C65, size: 0x8, addend: 0x0, symName: __ZN7doctest12_GLOBAL__N_112_GLOBAL__N_113trailingBytesEh, symObjAddr: 0x30E60, symBinAddr: 0x1000355A0, symSize: 0xD0 }
  - { offsetInCU: 0x3C93, offset: 0x3C93, size: 0x8, addend: 0x0, symName: __ZN7doctest12_GLOBAL__N_112_GLOBAL__N_111headerValueEh, symObjAddr: 0x30F30, symBinAddr: 0x100035670, symSize: 0xD0 }
  - { offsetInCU: 0x3CC2, offset: 0x3CC2, size: 0x8, addend: 0x0, symName: __ZN7doctest12_GLOBAL__N_129fulltext_log_assert_to_streamERNSt3__113basic_ostreamIcNS1_11char_traitsIcEEEERKNS_10AssertDataE, symObjAddr: 0x39040, symBinAddr: 0x10003D780, symSize: 0x5E0 }
  - { offsetInCU: 0x4020, offset: 0x4020, size: 0x8, addend: 0x0, symName: __ZN7doctest12_GLOBAL__N_1lsERNSt3__113basic_ostreamIcNS1_11char_traitsIcEEEERKNS0_10WhitespaceE, symObjAddr: 0x3C420, symBinAddr: 0x100040B60, symSize: 0x60 }
  - { offsetInCU: 0x4077, offset: 0x4077, size: 0x8, addend: 0x0, symName: __ZN7doctestL10discardOutE, symObjAddr: 0x1EE820, symBinAddr: 0x1000582E0, symSize: 0x0 }
  - { offsetInCU: 0x41B9, offset: 0x41B9, size: 0x8, addend: 0x0, symName: __ZN7doctest5ColorlsERNSt3__113basic_ostreamIcNS1_11char_traitsIcEEEENS0_4EnumE, symObjAddr: 0x1B10, symBinAddr: 0x100006250, symSize: 0x30 }
  - { offsetInCU: 0x43EB, offset: 0x43EB, size: 0x8, addend: 0x0, symName: __ZN7doctestplERKNS_6StringES2_, symObjAddr: 0x1590, symBinAddr: 0x100005CD0, symSize: 0xC0 }
  - { offsetInCU: 0x4428, offset: 0x4428, size: 0x8, addend: 0x0, symName: __ZN7doctesteqERKNS_6StringES2_, symObjAddr: 0x1650, symBinAddr: 0x100005D90, symSize: 0x30 }
  - { offsetInCU: 0x4465, offset: 0x4465, size: 0x8, addend: 0x0, symName: __ZN7doctestneERKNS_6StringES2_, symObjAddr: 0x1680, symBinAddr: 0x100005DC0, symSize: 0x30 }
  - { offsetInCU: 0x44A2, offset: 0x44A2, size: 0x8, addend: 0x0, symName: __ZN7doctestltERKNS_6StringES2_, symObjAddr: 0x16B0, symBinAddr: 0x100005DF0, symSize: 0x30 }
  - { offsetInCU: 0x44DF, offset: 0x44DF, size: 0x8, addend: 0x0, symName: __ZN7doctestgtERKNS_6StringES2_, symObjAddr: 0x16E0, symBinAddr: 0x100005E20, symSize: 0x30 }
  - { offsetInCU: 0x451C, offset: 0x451C, size: 0x8, addend: 0x0, symName: __ZN7doctestleERKNS_6StringES2_, symObjAddr: 0x1710, symBinAddr: 0x100005E50, symSize: 0x60 }
  - { offsetInCU: 0x4559, offset: 0x4559, size: 0x8, addend: 0x0, symName: __ZN7doctestgeERKNS_6StringES2_, symObjAddr: 0x1770, symBinAddr: 0x100005EB0, symSize: 0x60 }
  - { offsetInCU: 0x4596, offset: 0x4596, size: 0x8, addend: 0x0, symName: __ZN7doctestlsERNSt3__113basic_ostreamIcNS0_11char_traitsIcEEEERKNS_6StringE, symObjAddr: 0x17D0, symBinAddr: 0x100005F10, symSize: 0x40 }
  - { offsetInCU: 0x45D3, offset: 0x45D3, size: 0x8, addend: 0x0, symName: __ZN7doctest8toStringERKNS_8ContainsE, symObjAddr: 0x1930, symBinAddr: 0x100006070, symSize: 0x120 }
  - { offsetInCU: 0x4602, offset: 0x4602, size: 0x8, addend: 0x0, symName: __ZN7doctesteqERKNS_6StringERKNS_8ContainsE, symObjAddr: 0x1A50, symBinAddr: 0x100006190, symSize: 0x30 }
  - { offsetInCU: 0x463F, offset: 0x463F, size: 0x8, addend: 0x0, symName: __ZN7doctesteqERKNS_8ContainsERKNS_6StringE, symObjAddr: 0x1A80, symBinAddr: 0x1000061C0, symSize: 0x30 }
  - { offsetInCU: 0x467C, offset: 0x467C, size: 0x8, addend: 0x0, symName: __ZN7doctestneERKNS_6StringERKNS_8ContainsE, symObjAddr: 0x1AB0, symBinAddr: 0x1000061F0, symSize: 0x30 }
  - { offsetInCU: 0x46B9, offset: 0x46B9, size: 0x8, addend: 0x0, symName: __ZN7doctestneERKNS_8ContainsERKNS_6StringE, symObjAddr: 0x1AE0, symBinAddr: 0x100006220, symSize: 0x30 }
  - { offsetInCU: 0x46F6, offset: 0x46F6, size: 0x8, addend: 0x0, symName: __ZN7doctest12assertStringENS_10assertType4EnumE, symObjAddr: 0x1D00, symBinAddr: 0x100006440, symSize: 0x670 }
  - { offsetInCU: 0x4724, offset: 0x4724, size: 0x8, addend: 0x0, symName: __ZN7doctest13failureStringENS_10assertType4EnumE, symObjAddr: 0x23B0, symBinAddr: 0x100006AF0, symSize: 0x80 }
  - { offsetInCU: 0x4752, offset: 0x4752, size: 0x8, addend: 0x0, symName: __ZN7doctest20skipPathFromFilenameEPKc, symObjAddr: 0x2430, symBinAddr: 0x100006B70, symSize: 0xA0 }
  - { offsetInCU: 0x47AC, offset: 0x47AC, size: 0x8, addend: 0x0, symName: __ZN7doctest17getContextOptionsEv, symObjAddr: 0x24D0, symBinAddr: 0x100006C10, symSize: 0x10 }
  - { offsetInCU: 0x47CA, offset: 0x47CA, size: 0x8, addend: 0x0, symName: __ZN7doctest8toStringENS_6StringE, symObjAddr: 0x26B0, symBinAddr: 0x100006DF0, symSize: 0x30 }
  - { offsetInCU: 0x47F9, offset: 0x47F9, size: 0x8, addend: 0x0, symName: __ZN7doctest8toStringEDn, symObjAddr: 0x26E0, symBinAddr: 0x100006E20, symSize: 0x30 }
  - { offsetInCU: 0x4823, offset: 0x4823, size: 0x8, addend: 0x0, symName: __ZN7doctest8toStringEb, symObjAddr: 0x2710, symBinAddr: 0x100006E50, symSize: 0x50 }
  - { offsetInCU: 0x4851, offset: 0x4851, size: 0x8, addend: 0x0, symName: __ZN7doctest8toStringEf, symObjAddr: 0x2760, symBinAddr: 0x100006EA0, symSize: 0x30 }
  - { offsetInCU: 0x487F, offset: 0x487F, size: 0x8, addend: 0x0, symName: __ZN7doctest8toStringEd, symObjAddr: 0x27E0, symBinAddr: 0x100006F20, symSize: 0x30 }
  - { offsetInCU: 0x48AD, offset: 0x48AD, size: 0x8, addend: 0x0, symName: __ZN7doctest8toStringEe, symObjAddr: 0x2860, symBinAddr: 0x100006FA0, symSize: 0x30 }
  - { offsetInCU: 0x48DB, offset: 0x48DB, size: 0x8, addend: 0x0, symName: __ZN7doctest8toStringEc, symObjAddr: 0x28E0, symBinAddr: 0x100007020, symSize: 0x30 }
  - { offsetInCU: 0x4909, offset: 0x4909, size: 0x8, addend: 0x0, symName: __ZN7doctest8toStringEa, symObjAddr: 0x2960, symBinAddr: 0x1000070A0, symSize: 0x30 }
  - { offsetInCU: 0x4937, offset: 0x4937, size: 0x8, addend: 0x0, symName: __ZN7doctest8toStringEh, symObjAddr: 0x2990, symBinAddr: 0x1000070D0, symSize: 0x30 }
  - { offsetInCU: 0x4965, offset: 0x4965, size: 0x8, addend: 0x0, symName: __ZN7doctest8toStringEs, symObjAddr: 0x2A10, symBinAddr: 0x100007150, symSize: 0x30 }
  - { offsetInCU: 0x4993, offset: 0x4993, size: 0x8, addend: 0x0, symName: __ZN7doctest8toStringEt, symObjAddr: 0x2A90, symBinAddr: 0x1000071D0, symSize: 0x30 }
  - { offsetInCU: 0x49C1, offset: 0x49C1, size: 0x8, addend: 0x0, symName: __ZN7doctest8toStringEi, symObjAddr: 0x2B10, symBinAddr: 0x100007250, symSize: 0x30 }
  - { offsetInCU: 0x49EF, offset: 0x49EF, size: 0x8, addend: 0x0, symName: __ZN7doctest8toStringEj, symObjAddr: 0x2B40, symBinAddr: 0x100007280, symSize: 0x30 }
  - { offsetInCU: 0x4A1D, offset: 0x4A1D, size: 0x8, addend: 0x0, symName: __ZN7doctest8toStringEl, symObjAddr: 0x2B70, symBinAddr: 0x1000072B0, symSize: 0x30 }
  - { offsetInCU: 0x4A4B, offset: 0x4A4B, size: 0x8, addend: 0x0, symName: __ZN7doctest8toStringEm, symObjAddr: 0x2BF0, symBinAddr: 0x100007330, symSize: 0x30 }
  - { offsetInCU: 0x4A79, offset: 0x4A79, size: 0x8, addend: 0x0, symName: __ZN7doctest8toStringEx, symObjAddr: 0x2C70, symBinAddr: 0x1000073B0, symSize: 0x30 }
  - { offsetInCU: 0x4AA7, offset: 0x4AA7, size: 0x8, addend: 0x0, symName: __ZN7doctest8toStringEy, symObjAddr: 0x2CF0, symBinAddr: 0x100007430, symSize: 0x30 }
  - { offsetInCU: 0x4AD5, offset: 0x4AD5, size: 0x8, addend: 0x0, symName: __ZN7doctesteqEdRKNS_6ApproxE, symObjAddr: 0x2EB0, symBinAddr: 0x1000075F0, symSize: 0xB0 }
  - { offsetInCU: 0x4B12, offset: 0x4B12, size: 0x8, addend: 0x0, symName: __ZN7doctesteqERKNS_6ApproxEd, symObjAddr: 0x2F90, symBinAddr: 0x1000076D0, symSize: 0x30 }
  - { offsetInCU: 0x4B4F, offset: 0x4B4F, size: 0x8, addend: 0x0, symName: __ZN7doctestneEdRKNS_6ApproxE, symObjAddr: 0x2FC0, symBinAddr: 0x100007700, symSize: 0x30 }
  - { offsetInCU: 0x4B8C, offset: 0x4B8C, size: 0x8, addend: 0x0, symName: __ZN7doctestneERKNS_6ApproxEd, symObjAddr: 0x2FF0, symBinAddr: 0x100007730, symSize: 0x30 }
  - { offsetInCU: 0x4BC9, offset: 0x4BC9, size: 0x8, addend: 0x0, symName: __ZN7doctestleEdRKNS_6ApproxE, symObjAddr: 0x3020, symBinAddr: 0x100007760, symSize: 0x50 }
  - { offsetInCU: 0x4C06, offset: 0x4C06, size: 0x8, addend: 0x0, symName: __ZN7doctestleERKNS_6ApproxEd, symObjAddr: 0x3070, symBinAddr: 0x1000077B0, symSize: 0x50 }
  - { offsetInCU: 0x4C43, offset: 0x4C43, size: 0x8, addend: 0x0, symName: __ZN7doctestgeEdRKNS_6ApproxE, symObjAddr: 0x30C0, symBinAddr: 0x100007800, symSize: 0x50 }
  - { offsetInCU: 0x4C80, offset: 0x4C80, size: 0x8, addend: 0x0, symName: __ZN7doctestgeERKNS_6ApproxEd, symObjAddr: 0x3110, symBinAddr: 0x100007850, symSize: 0x50 }
  - { offsetInCU: 0x4CBD, offset: 0x4CBD, size: 0x8, addend: 0x0, symName: __ZN7doctestltEdRKNS_6ApproxE, symObjAddr: 0x3160, symBinAddr: 0x1000078A0, symSize: 0x50 }
  - { offsetInCU: 0x4CFA, offset: 0x4CFA, size: 0x8, addend: 0x0, symName: __ZN7doctestltERKNS_6ApproxEd, symObjAddr: 0x31B0, symBinAddr: 0x1000078F0, symSize: 0x50 }
  - { offsetInCU: 0x4D37, offset: 0x4D37, size: 0x8, addend: 0x0, symName: __ZN7doctestgtEdRKNS_6ApproxE, symObjAddr: 0x3200, symBinAddr: 0x100007940, symSize: 0x50 }
  - { offsetInCU: 0x4D74, offset: 0x4D74, size: 0x8, addend: 0x0, symName: __ZN7doctestgtERKNS_6ApproxEd, symObjAddr: 0x3250, symBinAddr: 0x100007990, symSize: 0x50 }
  - { offsetInCU: 0x4DB1, offset: 0x4DB1, size: 0x8, addend: 0x0, symName: __ZN7doctest8toStringERKNS_6ApproxE, symObjAddr: 0x32A0, symBinAddr: 0x1000079E0, symSize: 0x170 }
  - { offsetInCU: 0x4DE0, offset: 0x4DE0, size: 0x8, addend: 0x0, symName: __ZN7doctest8toStringENS_5IsNaNIfEE, symObjAddr: 0x3410, symBinAddr: 0x100007B50, symSize: 0x40 }
  - { offsetInCU: 0x4E0E, offset: 0x4E0E, size: 0x8, addend: 0x0, symName: __ZN7doctest8toStringIfEENS_6StringENS_5IsNaNIT_EE, symObjAddr: 0x3450, symBinAddr: 0x100007B90, symSize: 0x220 }
  - { offsetInCU: 0x4E46, offset: 0x4E46, size: 0x8, addend: 0x0, symName: __ZN7doctest8toStringENS_5IsNaNIdEE, symObjAddr: 0x3670, symBinAddr: 0x100007DB0, symSize: 0x50 }
  - { offsetInCU: 0x4E74, offset: 0x4E74, size: 0x8, addend: 0x0, symName: __ZN7doctest8toStringIdEENS_6StringENS_5IsNaNIT_EE, symObjAddr: 0x36C0, symBinAddr: 0x100007E00, symSize: 0x230 }
  - { offsetInCU: 0x4EAC, offset: 0x4EAC, size: 0x8, addend: 0x0, symName: __ZN7doctest8toStringENS_5IsNaNIeEE, symObjAddr: 0x38F0, symBinAddr: 0x100008030, symSize: 0xA0 }
  - { offsetInCU: 0x4EDA, offset: 0x4EDA, size: 0x8, addend: 0x0, symName: __ZN7doctest8toStringIeEENS_6StringENS_5IsNaNIT_EE, symObjAddr: 0x3990, symBinAddr: 0x1000080D0, symSize: 0x220 }
  - { offsetInCU: 0x4F11, offset: 0x4F11, size: 0x8, addend: 0x0, symName: __ZN7doctest16registerReporterINS_12_GLOBAL__N_111XmlReporterEEEiPKcib, symObjAddr: 0x7960, symBinAddr: 0x10000C0A0, symSize: 0x40 }
  - { offsetInCU: 0x4F66, offset: 0x4F66, size: 0x8, addend: 0x0, symName: __ZN7doctest16registerReporterINS_12_GLOBAL__N_113JUnitReporterEEEiPKcib, symObjAddr: 0x79A0, symBinAddr: 0x10000C0E0, symSize: 0x40 }
  - { offsetInCU: 0x4FBB, offset: 0x4FBB, size: 0x8, addend: 0x0, symName: __ZN7doctest16registerReporterINS_12_GLOBAL__N_115ConsoleReporterEEEiPKcib, symObjAddr: 0x79E0, symBinAddr: 0x10000C120, symSize: 0x40 }
  - { offsetInCU: 0x51E6, offset: 0x51E6, size: 0x8, addend: 0x0, symName: __ZN7doctestneIiEENSt3__19enable_ifIXsr3std16is_constructibleIdT_EE5valueEbE4typeERKNS_6ApproxERKS3_, symObjAddr: 0x201A0, symBinAddr: 0x1000248E0, symSize: 0x30 }
  - { offsetInCU: 0x522C, offset: 0x522C, size: 0x8, addend: 0x0, symName: __ZN7doctesteqIiEENSt3__19enable_ifIXsr3std16is_constructibleIdT_EE5valueEbE4typeERKS3_RKNS_6ApproxE, symObjAddr: 0x201D0, symBinAddr: 0x100024910, symSize: 0x30 }
  - { offsetInCU: 0x256A2, offset: 0x256A2, size: 0x8, addend: 0x0, symName: __ZNSt3__117__cxx_atomic_loadB7v160006IiEET_PKNS_22__cxx_atomic_base_implIS1_EENS_12memory_orderE, symObjAddr: 0x21190, symBinAddr: 0x1000258D0, symSize: 0x70 }
  - { offsetInCU: 0x256FF, offset: 0x256FF, size: 0x8, addend: 0x0, symName: __ZNSt3__124__put_character_sequenceB7v160006IcNS_11char_traitsIcEEEERNS_13basic_ostreamIT_T0_EES7_PKS4_m, symObjAddr: 0x21200, symBinAddr: 0x100025940, symSize: 0x1F0 }
  - { offsetInCU: 0x25D95, offset: 0x25D95, size: 0x8, addend: 0x0, symName: __ZNSt3__17advanceB7v160006INS_11__wrap_iterIPN7doctest16SubcaseSignatureEEEllvEEvRT_T0_, symObjAddr: 0x23610, symBinAddr: 0x100027D50, symSize: 0x50 }
  - { offsetInCU: 0x25F6B, offset: 0x25F6B, size: 0x8, addend: 0x0, symName: __ZNSt3__117__cxx_atomic_loadB7v160006IbEET_PKNS_22__cxx_atomic_base_implIS1_EENS_12memory_orderE, symObjAddr: 0x26050, symBinAddr: 0x10002A790, symSize: 0x70 }
  - { offsetInCU: 0x2E497, offset: 0x2E497, size: 0x8, addend: 0x0, symName: __ZNSt3__111__introsortINS_17_ClassicAlgPolicyERPFbPKN7doctest6detail8TestCaseES6_EPS6_EEvT1_SB_T0_NS_15iterator_traitsISB_E15difference_typeE, symObjAddr: 0x412F0, symBinAddr: 0x100045A30, symSize: 0x6E0 }
  - { offsetInCU: 0x2E5F8, offset: 0x2E5F8, size: 0x8, addend: 0x0, symName: __ZNSt3__118__insertion_sort_3B7v160006INS_17_ClassicAlgPolicyERPFbPKN7doctest6detail8TestCaseES6_EPS6_EEvT1_SB_T0_, symObjAddr: 0x41AD0, symBinAddr: 0x100046210, symSize: 0x120 }
  - { offsetInCU: 0x2E6CC, offset: 0x2E6CC, size: 0x8, addend: 0x0, symName: __ZNSt3__111__sift_downB7v160006INS_17_ClassicAlgPolicyERPFbPKN7doctest6detail8TestCaseES6_EPS6_EEvT1_OT0_NS_15iterator_traitsISB_E15difference_typeESB_, symObjAddr: 0x42450, symBinAddr: 0x100046B90, symSize: 0x1F0 }
  - { offsetInCU: 0x2E781, offset: 0x2E781, size: 0x8, addend: 0x0, symName: __ZNSt3__117__floyd_sift_downB7v160006INS_17_ClassicAlgPolicyERPFbPKN7doctest6detail8TestCaseES6_EPS6_EET1_SB_OT0_NS_15iterator_traitsISB_E15difference_typeE, symObjAddr: 0x42790, symBinAddr: 0x100046ED0, symSize: 0x100 }
  - { offsetInCU: 0x2E81F, offset: 0x2E81F, size: 0x8, addend: 0x0, symName: __ZNSt3__127__insertion_sort_incompleteIRPFbPKN7doctest6detail8TestCaseES5_EPS5_EEbT0_SA_T_, symObjAddr: 0x41E30, symBinAddr: 0x100046570, symSize: 0x2B0 }
  - { offsetInCU: 0x3269E, offset: 0x3269E, size: 0x8, addend: 0x0, symName: __ZNSt3__13minB7v160006IjEERKT_S3_S3_, symObjAddr: 0x1190, symBinAddr: 0x1000058D0, symSize: 0x30 }
  - { offsetInCU: 0x326E3, offset: 0x326E3, size: 0x8, addend: 0x0, symName: __ZNSt3__1lsB7v160006INS_11char_traitsIcEEEERNS_13basic_ostreamIcT_EES6_PKc, symObjAddr: 0x1810, symBinAddr: 0x100005F50, symSize: 0x40 }
  - { offsetInCU: 0x32B39, offset: 0x32B39, size: 0x8, addend: 0x0, symName: __ZNSt3__13maxB7v160006IdEERKT_S3_S3_, symObjAddr: 0x2F60, symBinAddr: 0x1000076A0, symSize: 0x30 }
  - { offsetInCU: 0x32B7F, offset: 0x32B7F, size: 0x8, addend: 0x0, symName: __ZNSt3__1neB7v160006IPPN7doctest9IReporterEEEbRKNS_11__wrap_iterIT_EES9_, symObjAddr: 0x45A0, symBinAddr: 0x100008CE0, symSize: 0x30 }
  - { offsetInCU: 0x32BC4, offset: 0x32BC4, size: 0x8, addend: 0x0, symName: __ZNSt3__1eqB7v160006ERKNS_21__hash_const_iteratorIPNS_11__hash_nodeIyPvEEEES7_, symObjAddr: 0x4610, symBinAddr: 0x100008D50, symSize: 0x30 }
  - { offsetInCU: 0x32C20, offset: 0x32C20, size: 0x8, addend: 0x0, symName: __ZNSt3__1eqB7v160006IPPKN7doctest6detail20IExceptionTranslatorEEEbRKNS_11__wrap_iterIT_EESB_, symObjAddr: 0x5BC0, symBinAddr: 0x10000A300, symSize: 0x40 }
  - { offsetInCU: 0x32C66, offset: 0x32C66, size: 0x8, addend: 0x0, symName: __ZNSt3__14findB7v160006INS_11__wrap_iterIPPKN7doctest6detail20IExceptionTranslatorEEES6_EET_S9_S9_RKT0_, symObjAddr: 0x5C00, symBinAddr: 0x10000A340, symSize: 0x80 }
  - { offsetInCU: 0x32CC4, offset: 0x32CC4, size: 0x8, addend: 0x0, symName: __ZNSt3__1neB7v160006IPNS_6vectorIN7doctest6StringENS_9allocatorIS3_EEEEEEbRKNS_11__wrap_iterIT_EESC_, symObjAddr: 0xB430, symBinAddr: 0x10000FB70, symSize: 0x30 }
  - { offsetInCU: 0x33557, offset: 0x33557, size: 0x8, addend: 0x0, symName: __ZNSt3__1neB7v160006ERKNS_14__map_iteratorINS_15__tree_iteratorINS_12__value_typeINS_4pairIiN7doctest6StringEEEPFPNS4_9IReporterERKNS4_14ContextOptionsEEEEPNS_11__tree_nodeISE_PvEElEEEESM_, symObjAddr: 0xD660, symBinAddr: 0x100011DA0, symSize: 0x30 }
  - { offsetInCU: 0x335AA, offset: 0x335AA, size: 0x8, addend: 0x0, symName: __ZNSt3__1neB7v160006ERKNS_21__tree_const_iteratorIN7doctest6detail8TestCaseEPNS_11__tree_nodeIS3_PvEElEESA_, symObjAddr: 0xDB90, symBinAddr: 0x1000122D0, symSize: 0x30 }
  - { offsetInCU: 0x335E7, offset: 0x335E7, size: 0x8, addend: 0x0, symName: __ZNSt3__14sortB7v160006INS_11__wrap_iterIPPKN7doctest6detail8TestCaseEEEPFbS6_S6_EEEvT_SB_T0_, symObjAddr: 0xDCB0, symBinAddr: 0x1000123F0, symSize: 0x40 }
  - { offsetInCU: 0x342EF, offset: 0x342EF, size: 0x8, addend: 0x0, symName: __ZNSt3__1neB7v160006IPPKN7doctest6detail8TestCaseEEEbRKNS_11__wrap_iterIT_EESB_, symObjAddr: 0xDF20, symBinAddr: 0x100012660, symSize: 0x30 }
  - { offsetInCU: 0x34335, offset: 0x34335, size: 0x8, addend: 0x0, symName: __ZNSt3__119__debug_db_insert_cB7v160006INS_6vectorINS_4fposI11__mbstate_tEENS_9allocatorIS4_EEEEEEvPT_, symObjAddr: 0x18000, symBinAddr: 0x10001C740, symSize: 0x10 }
  - { offsetInCU: 0x34368, offset: 0x34368, size: 0x8, addend: 0x0, symName: __ZNSt3__119__debug_db_insert_cB7v160006INS_12basic_stringIcNS_11char_traitsIcEENS_9allocatorIcEEEEEEvPT_, symObjAddr: 0x183C0, symBinAddr: 0x10001CB00, symSize: 0x10 }
  - { offsetInCU: 0x3439B, offset: 0x3439B, size: 0x8, addend: 0x0, symName: __ZNSt3__118__debug_db_erase_cB7v160006INS_6vectorINS_4fposI11__mbstate_tEENS_9allocatorIS4_EEEEEEvPT_, symObjAddr: 0x186C0, symBinAddr: 0x10001CE00, symSize: 0x10 }
  - { offsetInCU: 0x343CE, offset: 0x343CE, size: 0x8, addend: 0x0, symName: __ZNSt3__112__to_addressB7v160006INS_4fposI11__mbstate_tEEEEPT_S5_, symObjAddr: 0x187F0, symBinAddr: 0x10001CF30, symSize: 0x10 }
  - { offsetInCU: 0x34404, offset: 0x34404, size: 0x8, addend: 0x0, symName: __ZNSt3__119__libcpp_deallocateB7v160006EPvmm, symObjAddr: 0x18910, symBinAddr: 0x10001D050, symSize: 0x60 }
  - { offsetInCU: 0x34469, offset: 0x34469, size: 0x8, addend: 0x0, symName: __ZNSt3__124__is_overaligned_for_newB7v160006Em, symObjAddr: 0x18970, symBinAddr: 0x10001D0B0, symSize: 0x20 }
  - { offsetInCU: 0x34497, offset: 0x34497, size: 0x8, addend: 0x0, symName: __ZNSt3__127__do_deallocate_handle_sizeB7v160006IJSt11align_val_tEEEvPvmDpT_, symObjAddr: 0x18990, symBinAddr: 0x10001D0D0, symSize: 0x30 }
  - { offsetInCU: 0x344EA, offset: 0x344EA, size: 0x8, addend: 0x0, symName: __ZNSt3__127__do_deallocate_handle_sizeB7v160006IJEEEvPvmDpT_, symObjAddr: 0x189C0, symBinAddr: 0x10001D100, symSize: 0x20 }
  - { offsetInCU: 0x34529, offset: 0x34529, size: 0x8, addend: 0x0, symName: __ZNSt3__124__libcpp_operator_deleteB7v160006IJPvSt11align_val_tEEEvDpT_, symObjAddr: 0x189E0, symBinAddr: 0x10001D120, symSize: 0x30 }
  - { offsetInCU: 0x34572, offset: 0x34572, size: 0x8, addend: 0x0, symName: __ZNSt3__124__libcpp_operator_deleteB7v160006IJPvEEEvDpT_, symObjAddr: 0x18A10, symBinAddr: 0x10001D150, symSize: 0x20 }
  - { offsetInCU: 0x345A8, offset: 0x345A8, size: 0x8, addend: 0x0, symName: __ZNSt3__13maxB7v160006ImEERKT_S3_S3_, symObjAddr: 0x19270, symBinAddr: 0x10001D9B0, symSize: 0x30 }
  - { offsetInCU: 0x345EE, offset: 0x345EE, size: 0x8, addend: 0x0, symName: __ZNSt3__13minB7v160006ImEERKT_S3_S3_, symObjAddr: 0x192A0, symBinAddr: 0x10001D9E0, symSize: 0x30 }
  - { offsetInCU: 0x34835, offset: 0x34835, size: 0x8, addend: 0x0, symName: __ZNSt3__13minB7v160006ImNS_6__lessImmEEEERKT_S5_S5_T0_, symObjAddr: 0x19320, symBinAddr: 0x10001DA60, symSize: 0x50 }
  - { offsetInCU: 0x348CE, offset: 0x348CE, size: 0x8, addend: 0x0, symName: __ZNSt3__120__throw_length_errorB7v160006EPKc, symObjAddr: 0x19400, symBinAddr: 0x10001DB40, symSize: 0x70 }
  - { offsetInCU: 0x348F8, offset: 0x348F8, size: 0x8, addend: 0x0, symName: __ZNSt3__13maxB7v160006ImNS_6__lessImmEEEERKT_S5_S5_T0_, symObjAddr: 0x194E0, symBinAddr: 0x10001DC20, symSize: 0x50 }
  - { offsetInCU: 0x34956, offset: 0x34956, size: 0x8, addend: 0x0, symName: __ZNSt3__119__allocate_at_leastB7v160006INS_9allocatorINS_4fposI11__mbstate_tEEEEEENS_19__allocation_resultINS_16allocator_traitsIT_E7pointerEEERS8_m, symObjAddr: 0x19630, symBinAddr: 0x10001DD70, symSize: 0x40 }
  - { offsetInCU: 0x3499B, offset: 0x3499B, size: 0x8, addend: 0x0, symName: __ZNSt3__117__libcpp_allocateB7v160006Emm, symObjAddr: 0x197A0, symBinAddr: 0x10001DEE0, symSize: 0x60 }
  - { offsetInCU: 0x349F5, offset: 0x349F5, size: 0x8, addend: 0x0, symName: __ZNSt3__121__libcpp_operator_newB7v160006IJmSt11align_val_tEEEPvDpT_, symObjAddr: 0x19800, symBinAddr: 0x10001DF40, symSize: 0x30 }
  - { offsetInCU: 0x34A42, offset: 0x34A42, size: 0x8, addend: 0x0, symName: __ZNSt3__121__libcpp_operator_newB7v160006IJmEEEPvDpT_, symObjAddr: 0x19830, symBinAddr: 0x10001DF70, symSize: 0x20 }
  - { offsetInCU: 0x34A7B, offset: 0x34A7B, size: 0x8, addend: 0x0, symName: __ZNSt3__142__uninitialized_allocator_move_if_noexceptB7v160006INS_9allocatorINS_4fposI11__mbstate_tEEEENS_16reverse_iteratorIPS4_EES8_S4_vEET1_RT_T0_SC_S9_, symObjAddr: 0x198B0, symBinAddr: 0x10001DFF0, symSize: 0x70 }
  - { offsetInCU: 0x34AF8, offset: 0x34AF8, size: 0x8, addend: 0x0, symName: __ZNSt3__14swapB7v160006IPNS_4fposI11__mbstate_tEEEENS_9enable_ifIXaasr21is_move_constructibleIT_EE5valuesr18is_move_assignableIS6_EE5valueEvE4typeERS6_S9_, symObjAddr: 0x19970, symBinAddr: 0x10001E0B0, symSize: 0x40 }
  - { offsetInCU: 0x34B4D, offset: 0x34B4D, size: 0x8, addend: 0x0, symName: __ZNSt3__125__debug_db_invalidate_allB7v160006INS_6vectorINS_4fposI11__mbstate_tEENS_9allocatorIS4_EEEEEEvPT_, symObjAddr: 0x19A60, symBinAddr: 0x10001E1A0, symSize: 0x10 }
  - { offsetInCU: 0x34B80, offset: 0x34B80, size: 0x8, addend: 0x0, symName: __ZNSt3__14moveB7v160006INS_16reverse_iteratorIPNS_4fposI11__mbstate_tEEEES6_EET0_T_S8_S7_, symObjAddr: 0x19A70, symBinAddr: 0x10001E1B0, symSize: 0x80 }
  - { offsetInCU: 0x34BDE, offset: 0x34BDE, size: 0x8, addend: 0x0, symName: __ZNSt3__16__moveB7v160006INS_17_ClassicAlgPolicyENS_16reverse_iteratorIPNS_4fposI11__mbstate_tEEEES7_S7_EENS_4pairIT0_T2_EES9_T1_SA_, symObjAddr: 0x19AF0, symBinAddr: 0x10001E230, symSize: 0x90 }
  - { offsetInCU: 0x34C4E, offset: 0x34C4E, size: 0x8, addend: 0x0, symName: __ZNSt3__123__dispatch_copy_or_moveB7v160006INS_17_ClassicAlgPolicyENS_11__move_loopIS1_EENS_14__move_trivialENS_16reverse_iteratorIPNS_4fposI11__mbstate_tEEEESA_SA_EENS_4pairIT2_T4_EESC_T3_SD_, symObjAddr: 0x19B80, symBinAddr: 0x10001E2C0, symSize: 0x90 }
  - { offsetInCU: 0x34CD0, offset: 0x34CD0, size: 0x8, addend: 0x0, symName: __ZNSt3__121__unwrap_and_dispatchB7v160006INS_10__overloadINS_11__move_loopINS_17_ClassicAlgPolicyEEENS_14__move_trivialEEENS_16reverse_iteratorIPNS_4fposI11__mbstate_tEEEESC_SC_Li0EEENS_4pairIT0_T2_EESE_T1_SF_, symObjAddr: 0x19C10, symBinAddr: 0x10001E350, symSize: 0x210 }
  - { offsetInCU: 0x34D66, offset: 0x34D66, size: 0x8, addend: 0x0, symName: __ZNSt3__114__unwrap_rangeB7v160006INS_16reverse_iteratorIPNS_4fposI11__mbstate_tEEEES6_EENS_4pairIT0_S8_EET_SA_, symObjAddr: 0x19E20, symBinAddr: 0x10001E560, symSize: 0x90 }
  - { offsetInCU: 0x3501F, offset: 0x3501F, size: 0x8, addend: 0x0, symName: __ZNSt3__113__unwrap_iterB7v160006INS_16reverse_iteratorIPNS_4fposI11__mbstate_tEEEENS_18__unwrap_iter_implIS6_Lb0EEELi0EEEDTclsrT0_8__unwrapclsr3stdE7declvalIT_EEEESA_, symObjAddr: 0x19F50, symBinAddr: 0x10001E690, symSize: 0x40 }
  - { offsetInCU: 0x35065, offset: 0x35065, size: 0x8, addend: 0x0, symName: __ZNSt3__19make_pairB7v160006INS_16reverse_iteratorIPNS_4fposI11__mbstate_tEEEES6_EENS_4pairINS_18__unwrap_ref_decayIT_E4typeENS8_IT0_E4typeEEEOS9_OSC_, symObjAddr: 0x19F90, symBinAddr: 0x10001E6D0, symSize: 0x30 }
  - { offsetInCU: 0x350B5, offset: 0x350B5, size: 0x8, addend: 0x0, symName: __ZNSt3__114__rewrap_rangeB7v160006INS_16reverse_iteratorIPNS_4fposI11__mbstate_tEEEES6_EET_S7_T0_, symObjAddr: 0x19FC0, symBinAddr: 0x10001E700, symSize: 0x60 }
  - { offsetInCU: 0x35104, offset: 0x35104, size: 0x8, addend: 0x0, symName: __ZNSt3__113__rewrap_iterB7v160006INS_16reverse_iteratorIPNS_4fposI11__mbstate_tEEEES6_NS_18__unwrap_iter_implIS6_Lb0EEEEET_S9_T0_, symObjAddr: 0x1A020, symBinAddr: 0x10001E760, symSize: 0x70 }
  - { offsetInCU: 0x3515C, offset: 0x3515C, size: 0x8, addend: 0x0, symName: __ZNSt3__1neB7v160006IPNS_4fposI11__mbstate_tEES4_EEbRKNS_16reverse_iteratorIT_EERKNS5_IT0_EE, symObjAddr: 0x1A090, symBinAddr: 0x10001E7D0, symSize: 0x40 }
  - { offsetInCU: 0x35430, offset: 0x35430, size: 0x8, addend: 0x0, symName: __ZNSt3__1miB7v160006I11__mbstate_tEExRKNS_4fposIT_EES6_, symObjAddr: 0x1A5A0, symBinAddr: 0x10001ECE0, symSize: 0x40 }
  - { offsetInCU: 0x35476, offset: 0x35476, size: 0x8, addend: 0x0, symName: __ZNSt3__13minB7v160006IjNS_6__lessIjjEEEERKT_S5_S5_T0_, symObjAddr: 0x1A800, symBinAddr: 0x10001EF40, symSize: 0x50 }
  - { offsetInCU: 0x3550F, offset: 0x3550F, size: 0x8, addend: 0x0, symName: __ZNSt3__13maxB7v160006IdNS_6__lessIddEEEERKT_S5_S5_T0_, symObjAddr: 0x1A8B0, symBinAddr: 0x10001EFF0, symSize: 0x50 }
  - { offsetInCU: 0x355A8, offset: 0x355A8, size: 0x8, addend: 0x0, symName: __ZNSt3__1neB7v160006IPKN7doctest6StringEEEbRKNS_11__wrap_iterIT_EES9_, symObjAddr: 0x1A990, symBinAddr: 0x10001F0D0, symSize: 0x30 }
  - { offsetInCU: 0x355EE, offset: 0x355EE, size: 0x8, addend: 0x0, symName: __ZNSt3__1eqB7v160006IPKN7doctest6StringEEEbRKNS_11__wrap_iterIT_EES9_, symObjAddr: 0x1ACB0, symBinAddr: 0x10001F3F0, symSize: 0x40 }
  - { offsetInCU: 0x35634, offset: 0x35634, size: 0x8, addend: 0x0, symName: __ZNSt3__1eqB7v160006IPPN7doctest9IReporterEEEbRKNS_11__wrap_iterIT_EES9_, symObjAddr: 0x1AD10, symBinAddr: 0x10001F450, symSize: 0x40 }
  - { offsetInCU: 0x3567A, offset: 0x3567A, size: 0x8, addend: 0x0, symName: __ZNSt3__1neB7v160006IPKN7doctest16SubcaseSignatureEEEbRKNS_11__wrap_iterIT_EES9_, symObjAddr: 0x1ADE0, symBinAddr: 0x10001F520, symSize: 0x30 }
  - { offsetInCU: 0x356C0, offset: 0x356C0, size: 0x8, addend: 0x0, symName: __ZNSt3__1eqB7v160006IPKN7doctest16SubcaseSignatureEEEbRKNS_11__wrap_iterIT_EES9_, symObjAddr: 0x1AF00, symBinAddr: 0x10001F640, symSize: 0x40 }
  - { offsetInCU: 0x35706, offset: 0x35706, size: 0x8, addend: 0x0, symName: __ZNSt3__119__debug_db_insert_cB7v160006INS_6vectorIPKN7doctest6detail20IExceptionTranslatorENS_9allocatorIS6_EEEEEEvPT_, symObjAddr: 0x1B1B0, symBinAddr: 0x10001F8F0, symSize: 0x10 }
  - { offsetInCU: 0x35739, offset: 0x35739, size: 0x8, addend: 0x0, symName: __ZNSt3__118__debug_db_erase_cB7v160006INS_6vectorIPKN7doctest6detail20IExceptionTranslatorENS_9allocatorIS6_EEEEEEvPT_, symObjAddr: 0x1B440, symBinAddr: 0x10001FB80, symSize: 0x10 }
  - { offsetInCU: 0x3576C, offset: 0x3576C, size: 0x8, addend: 0x0, symName: __ZNSt3__112__to_addressB7v160006IPKN7doctest6detail20IExceptionTranslatorEEEPT_S7_, symObjAddr: 0x1B550, symBinAddr: 0x10001FC90, symSize: 0x10 }
  - { offsetInCU: 0x357A3, offset: 0x357A3, size: 0x8, addend: 0x0, symName: __ZNSt3__1neB7v160006IPPKN7doctest6detail20IExceptionTranslatorEEEbRKNS_11__wrap_iterIT_EESB_, symObjAddr: 0x1B8D0, symBinAddr: 0x100020010, symSize: 0x30 }
  - { offsetInCU: 0x357E8, offset: 0x357E8, size: 0x8, addend: 0x0, symName: __ZNSt3__122__cxx_atomic_fetch_addB7v160006ImEET_PNS_22__cxx_atomic_base_implIS1_EES1_NS_12memory_orderE, symObjAddr: 0x1BAB0, symBinAddr: 0x1000201F0, symSize: 0xD0 }
  - { offsetInCU: 0x3583D, offset: 0x3583D, size: 0x8, addend: 0x0, symName: __ZNSt3__122__cxx_atomic_fetch_addB7v160006IiEET_PNS_22__cxx_atomic_base_implIS1_EES1_NS_12memory_orderE, symObjAddr: 0x1BB80, symBinAddr: 0x1000202C0, symSize: 0xC0 }
  - { offsetInCU: 0x35893, offset: 0x35893, size: 0x8, addend: 0x0, symName: __ZNSt3__122__make_exception_guardB7v160006INS_6vectorINS1_IN7doctest6StringENS_9allocatorIS3_EEEENS4_IS6_EEE16__destroy_vectorEEENS_28__exception_guard_exceptionsIT_EESB_, symObjAddr: 0x1C0C0, symBinAddr: 0x100020800, symSize: 0x40 }
  - { offsetInCU: 0x358CA, offset: 0x358CA, size: 0x8, addend: 0x0, symName: __ZNSt3__119__debug_db_insert_cB7v160006INS_6vectorINS1_IN7doctest6StringENS_9allocatorIS3_EEEENS4_IS6_EEEEEEvPT_, symObjAddr: 0x1C130, symBinAddr: 0x100020870, symSize: 0x10 }
  - { offsetInCU: 0x358FD, offset: 0x358FD, size: 0x8, addend: 0x0, symName: __ZNSt3__119__allocate_at_leastB7v160006INS_9allocatorINS_6vectorIN7doctest6StringENS1_IS4_EEEEEEEENS_19__allocation_resultINS_16allocator_traitsIT_E7pointerEEERSA_m, symObjAddr: 0x1C480, symBinAddr: 0x100020BC0, symSize: 0x40 }
  - { offsetInCU: 0x35943, offset: 0x35943, size: 0x8, addend: 0x0, symName: __ZNSt3__112__to_addressB7v160006INS_6vectorIN7doctest6StringENS_9allocatorIS3_EEEEEEPT_S8_, symObjAddr: 0x1C760, symBinAddr: 0x100020EA0, symSize: 0x10 }
  - { offsetInCU: 0x3597A, offset: 0x3597A, size: 0x8, addend: 0x0, symName: __ZNSt3__118__debug_db_erase_cB7v160006INS_6vectorINS1_IN7doctest6StringENS_9allocatorIS3_EEEENS4_IS6_EEEEEEvPT_, symObjAddr: 0x1CA40, symBinAddr: 0x100021180, symSize: 0x10 }
  - { offsetInCU: 0x359AD, offset: 0x359AD, size: 0x8, addend: 0x0, symName: __ZNSt3__118__debug_db_erase_cB7v160006INS_6vectorIN7doctest6StringENS_9allocatorIS3_EEEEEEvPT_, symObjAddr: 0x1CD90, symBinAddr: 0x1000214D0, symSize: 0x10 }
  - { offsetInCU: 0x359E0, offset: 0x359E0, size: 0x8, addend: 0x0, symName: __ZNSt3__112__to_addressB7v160006IN7doctest6StringEEEPT_S4_, symObjAddr: 0x1CE90, symBinAddr: 0x1000215D0, symSize: 0x10 }
  - { offsetInCU: 0x35A17, offset: 0x35A17, size: 0x8, addend: 0x0, symName: __ZNSt3__119__debug_db_insert_cB7v160006INS_6vectorIPN7doctest9IReporterENS_9allocatorIS4_EEEEEEvPT_, symObjAddr: 0x1D120, symBinAddr: 0x100021860, symSize: 0x10 }
  - { offsetInCU: 0x35A4A, offset: 0x35A4A, size: 0x8, addend: 0x0, symName: __ZNSt3__119__debug_db_insert_cB7v160006INS_6vectorIN7doctest6StringENS_9allocatorIS3_EEEEEEvPT_, symObjAddr: 0x1D290, symBinAddr: 0x1000219D0, symSize: 0x10 }
  - { offsetInCU: 0x35A7D, offset: 0x35A7D, size: 0x8, addend: 0x0, symName: __ZNSt3__119__debug_db_insert_cB7v160006INS_6vectorIN7doctest16SubcaseSignatureENS_9allocatorIS3_EEEEEEvPT_, symObjAddr: 0x1D3E0, symBinAddr: 0x100021B20, symSize: 0x10 }
  - { offsetInCU: 0x35AB0, offset: 0x35AB0, size: 0x8, addend: 0x0, symName: __ZNSt3__119__debug_db_insert_cB7v160006INS_13unordered_setIyNS_4hashIyEENS_8equal_toIyEENS_9allocatorIyEEEEEEvPT_, symObjAddr: 0x1D500, symBinAddr: 0x100021C40, symSize: 0x10 }
  - { offsetInCU: 0x35AE3, offset: 0x35AE3, size: 0x8, addend: 0x0, symName: __ZNSt3__118__debug_db_erase_cB7v160006INS_12__hash_tableIyNS_4hashIyEENS_8equal_toIyEENS_9allocatorIyEEEEEEvPT_, symObjAddr: 0x1DC40, symBinAddr: 0x100022380, symSize: 0x10 }
  - { offsetInCU: 0x35B49, offset: 0x35B49, size: 0x8, addend: 0x0, symName: __ZNSt3__118__debug_db_erase_cB7v160006INS_6vectorIN7doctest16SubcaseSignatureENS_9allocatorIS3_EEEEEEvPT_, symObjAddr: 0x1E1B0, symBinAddr: 0x1000228F0, symSize: 0x10 }
  - { offsetInCU: 0x35B7C, offset: 0x35B7C, size: 0x8, addend: 0x0, symName: __ZNSt3__112__to_addressB7v160006IN7doctest16SubcaseSignatureEEEPT_S4_, symObjAddr: 0x1E2B0, symBinAddr: 0x1000229F0, symSize: 0x10 }
  - { offsetInCU: 0x35BB3, offset: 0x35BB3, size: 0x8, addend: 0x0, symName: __ZNSt3__118__debug_db_erase_cB7v160006INS_6vectorIPN7doctest9IReporterENS_9allocatorIS4_EEEEEEvPT_, symObjAddr: 0x1E630, symBinAddr: 0x100022D70, symSize: 0x10 }
  - { offsetInCU: 0x35BE6, offset: 0x35BE6, size: 0x8, addend: 0x0, symName: __ZNSt3__112__to_addressB7v160006IPN7doctest9IReporterEEEPT_S5_, symObjAddr: 0x1E740, symBinAddr: 0x100022E80, symSize: 0x10 }
  - { offsetInCU: 0x35C1D, offset: 0x35C1D, size: 0x8, addend: 0x0, symName: __ZNSt3__118__constexpr_strlenB7v160006EPKc, symObjAddr: 0x1EC50, symBinAddr: 0x100023390, symSize: 0x20 }
  - { offsetInCU: 0x35C4B, offset: 0x35C4B, size: 0x8, addend: 0x0, symName: __ZNSt3__1eqB7v160006IPNS_6vectorIN7doctest6StringENS_9allocatorIS3_EEEEEEbRKNS_11__wrap_iterIT_EESC_, symObjAddr: 0x1EE40, symBinAddr: 0x100023580, symSize: 0x40 }
  - { offsetInCU: 0x35C91, offset: 0x35C91, size: 0x8, addend: 0x0, symName: __ZNSt3__15beginB7v160006IcLm1024EEEPT_RAT0__S1_, symObjAddr: 0x1F0D0, symBinAddr: 0x100023810, symSize: 0x10 }
  - { offsetInCU: 0x35CD3, offset: 0x35CD3, size: 0x8, addend: 0x0, symName: __ZNSt3__13endB7v160006IcLm1024EEEPT_RAT0__S1_, symObjAddr: 0x1F0E0, symBinAddr: 0x100023820, symSize: 0x20 }
  - { offsetInCU: 0x35D47, offset: 0x35D47, size: 0x8, addend: 0x0, symName: __ZNSt3__17launderB7v160006INS_4pairIKNS1_IiN7doctest6StringEEEPFPNS2_9IReporterERKNS2_14ContextOptionsEEEEEEPT_SF_, symObjAddr: 0x1F740, symBinAddr: 0x100023E80, symSize: 0x20 }
  - { offsetInCU: 0x35D7E, offset: 0x35D7E, size: 0x8, addend: 0x0, symName: __ZNSt3__19__launderB7v160006INS_4pairIKNS1_IiN7doctest6StringEEEPFPNS2_9IReporterERKNS2_14ContextOptionsEEEEEEPT_SF_, symObjAddr: 0x1F760, symBinAddr: 0x100023EA0, symSize: 0x10 }
  - { offsetInCU: 0x35DB6, offset: 0x35DB6, size: 0x8, addend: 0x0, symName: __ZNSt3__125__debug_db_invalidate_allB7v160006INS_6vectorIPN7doctest9IReporterENS_9allocatorIS4_EEEEEEvPT_, symObjAddr: 0x1FAB0, symBinAddr: 0x1000241F0, symSize: 0x10 }
  - { offsetInCU: 0x35DE9, offset: 0x35DE9, size: 0x8, addend: 0x0, symName: __ZNSt3__1eqB7v160006IPPKN7doctest6detail8TestCaseEEEbRKNS_11__wrap_iterIT_EESB_, symObjAddr: 0x1FAC0, symBinAddr: 0x100024200, symSize: 0x40 }
  - { offsetInCU: 0x35E2F, offset: 0x35E2F, size: 0x8, addend: 0x0, symName: __ZNSt3__112__to_addressB7v160006IKcEEPT_S3_, symObjAddr: 0x21020, symBinAddr: 0x100025760, symSize: 0x10 }
  - { offsetInCU: 0x35E98, offset: 0x35E98, size: 0x8, addend: 0x0, symName: __ZNSt3__116__pad_and_outputB7v160006IcNS_11char_traitsIcEEEENS_19ostreambuf_iteratorIT_T0_EES6_PKS4_S8_S8_RNS_8ios_baseES4_, symObjAddr: 0x21410, symBinAddr: 0x100025B50, symSize: 0x220 }
  - { offsetInCU: 0x35F69, offset: 0x35F69, size: 0x8, addend: 0x0, symName: __ZNSt3__112__to_addressB7v160006IcEEPT_S2_, symObjAddr: 0x21840, symBinAddr: 0x100025F80, symSize: 0x10 }
  - { offsetInCU: 0x35FD2, offset: 0x35FD2, size: 0x8, addend: 0x0, symName: __ZNSt3__19use_facetB7v160006INS_5ctypeIcEEEERKT_RKNS_6localeE, symObjAddr: 0x219D0, symBinAddr: 0x100026110, symSize: 0x30 }
  - { offsetInCU: 0x364A2, offset: 0x364A2, size: 0x8, addend: 0x0, symName: __ZNSt3__118__cxx_atomic_storeB7v160006IbEEvPNS_22__cxx_atomic_base_implIT_EES2_NS_12memory_orderE, symObjAddr: 0x21A70, symBinAddr: 0x1000261B0, symSize: 0x70 }
  - { offsetInCU: 0x364F4, offset: 0x364F4, size: 0x8, addend: 0x0, symName: __ZNSt3__119__allocate_at_leastB7v160006INS_9allocatorIN7doctest16SubcaseSignatureEEEEENS_19__allocation_resultINS_16allocator_traitsIT_E7pointerEEERS7_m, symObjAddr: 0x22240, symBinAddr: 0x100026980, symSize: 0x40 }
  - { offsetInCU: 0x36539, offset: 0x36539, size: 0x8, addend: 0x0, symName: __ZNSt3__142__uninitialized_allocator_move_if_noexceptB7v160006INS_9allocatorIN7doctest16SubcaseSignatureEEENS_16reverse_iteratorIPS3_EES7_S7_EET2_RT_T0_T1_S8_, symObjAddr: 0x223D0, symBinAddr: 0x100026B10, symSize: 0x180 }
  - { offsetInCU: 0x365D9, offset: 0x365D9, size: 0x8, addend: 0x0, symName: __ZNSt3__14swapB7v160006IPN7doctest16SubcaseSignatureEEENS_9enable_ifIXaasr21is_move_constructibleIT_EE5valuesr18is_move_assignableIS5_EE5valueEvE4typeERS5_S8_, symObjAddr: 0x225A0, symBinAddr: 0x100026CE0, symSize: 0x40 }
  - { offsetInCU: 0x3662E, offset: 0x3662E, size: 0x8, addend: 0x0, symName: __ZNSt3__125__debug_db_invalidate_allB7v160006INS_6vectorIN7doctest16SubcaseSignatureENS_9allocatorIS3_EEEEEEvPT_, symObjAddr: 0x22680, symBinAddr: 0x100026DC0, symSize: 0x10 }
  - { offsetInCU: 0x36661, offset: 0x36661, size: 0x8, addend: 0x0, symName: __ZNSt3__122__make_exception_guardB7v160006INS_29_AllocatorDestroyRangeReverseINS_9allocatorIN7doctest16SubcaseSignatureEEENS_16reverse_iteratorIPS4_EEEEEENS_28__exception_guard_exceptionsIT_EESB_, symObjAddr: 0x22690, symBinAddr: 0x100026DD0, symSize: 0x60 }
  - { offsetInCU: 0x36698, offset: 0x36698, size: 0x8, addend: 0x0, symName: __ZNSt3__1neB7v160006IPN7doctest16SubcaseSignatureES3_EEbRKNS_16reverse_iteratorIT_EERKNS4_IT0_EE, symObjAddr: 0x22730, symBinAddr: 0x100026E70, symSize: 0x40 }
  - { offsetInCU: 0x366E7, offset: 0x366E7, size: 0x8, addend: 0x0, symName: __ZNSt3__112__to_addressB7v160006INS_16reverse_iteratorIPN7doctest16SubcaseSignatureEEEvEENS_5decayIDTclsr19__to_address_helperIT_EE6__callclsr3stdE7declvalIRKS7_EEEEE4typeES9_, symObjAddr: 0x227A0, symBinAddr: 0x100026EE0, symSize: 0x20 }
  - { offsetInCU: 0x36748, offset: 0x36748, size: 0x8, addend: 0x0, symName: __ZNSt3__119__allocator_destroyB7v160006INS_9allocatorIN7doctest16SubcaseSignatureEEENS_16reverse_iteratorINS5_IPS3_EEEES8_EEvRT_T0_T1_, symObjAddr: 0x22B30, symBinAddr: 0x100027270, symSize: 0x70 }
  - { offsetInCU: 0x367AC, offset: 0x367AC, size: 0x8, addend: 0x0, symName: __ZNSt3__1neB7v160006INS_16reverse_iteratorIPN7doctest16SubcaseSignatureEEES5_EEbRKNS1_IT_EERKNS1_IT0_EE, symObjAddr: 0x22BD0, symBinAddr: 0x100027310, symSize: 0x50 }
  - { offsetInCU: 0x367FB, offset: 0x367FB, size: 0x8, addend: 0x0, symName: __ZNSt3__112__to_addressB7v160006INS_16reverse_iteratorINS1_IPN7doctest16SubcaseSignatureEEEEEvEENS_5decayIDTclsr19__to_address_helperIT_EE6__callclsr3stdE7declvalIRKS8_EEEEE4typeESA_, symObjAddr: 0x22C20, symBinAddr: 0x100027360, symSize: 0x20 }
  - { offsetInCU: 0x3685D, offset: 0x3685D, size: 0x8, addend: 0x0, symName: __ZNSt3__116__constrain_hashB7v160006Emm, symObjAddr: 0x23220, symBinAddr: 0x100027960, symSize: 0x80 }
  - { offsetInCU: 0x3689A, offset: 0x3689A, size: 0x8, addend: 0x0, symName: __ZNSt3__1miB7v160006IPKN7doctest16SubcaseSignatureEPS2_EEDTmicldtfp_4baseEcldtfp0_4baseEERKNS_11__wrap_iterIT_EERKNS7_IT0_EE, symObjAddr: 0x23590, symBinAddr: 0x100027CD0, symSize: 0x40 }
  - { offsetInCU: 0x368E9, offset: 0x368E9, size: 0x8, addend: 0x0, symName: __ZNSt3__18distanceB7v160006INS_11__wrap_iterIPN7doctest16SubcaseSignatureEEEEENS_15iterator_traitsIT_E15difference_typeES7_S7_, symObjAddr: 0x235D0, symBinAddr: 0x100027D10, symSize: 0x40 }
  - { offsetInCU: 0x3692F, offset: 0x3692F, size: 0x8, addend: 0x0, symName: __ZNSt3__14copyB7v160006INS_11__wrap_iterIPN7doctest16SubcaseSignatureEEES4_EET0_T_S7_S6_, symObjAddr: 0x23830, symBinAddr: 0x100027F70, symSize: 0x50 }
  - { offsetInCU: 0x3698D, offset: 0x3698D, size: 0x8, addend: 0x0, symName: __ZNSt3__110__distanceB7v160006INS_11__wrap_iterIPN7doctest16SubcaseSignatureEEEEENS_15iterator_traitsIT_E15difference_typeES7_S7_NS_26random_access_iterator_tagE, symObjAddr: 0x23AE0, symBinAddr: 0x100028220, symSize: 0x30 }
  - { offsetInCU: 0x369DE, offset: 0x369DE, size: 0x8, addend: 0x0, symName: __ZNSt3__1miB7v160006IPN7doctest16SubcaseSignatureES3_EEDTmicldtfp_4baseEcldtfp0_4baseEERKNS_11__wrap_iterIT_EERKNS5_IT0_EE, symObjAddr: 0x23B10, symBinAddr: 0x100028250, symSize: 0x40 }
  - { offsetInCU: 0x36A2D, offset: 0x36A2D, size: 0x8, addend: 0x0, symName: __ZNSt3__121__convert_to_integralB7v160006El, symObjAddr: 0x23B50, symBinAddr: 0x100028290, symSize: 0x10 }
  - { offsetInCU: 0x36A5B, offset: 0x36A5B, size: 0x8, addend: 0x0, symName: __ZNSt3__19__advanceB7v160006INS_11__wrap_iterIPN7doctest16SubcaseSignatureEEEEEvRT_NS_15iterator_traitsIS6_E15difference_typeENS_26random_access_iterator_tagE, symObjAddr: 0x23B60, symBinAddr: 0x1000282A0, symSize: 0x30 }
  - { offsetInCU: 0x36AA7, offset: 0x36AA7, size: 0x8, addend: 0x0, symName: __ZNSt3__130__uninitialized_allocator_copyB7v160006INS_9allocatorIN7doctest16SubcaseSignatureEEENS_11__wrap_iterIPS3_EES7_S6_EET2_RT_T0_T1_S8_, symObjAddr: 0x23B90, symBinAddr: 0x1000282D0, symSize: 0x120 }
  - { offsetInCU: 0x36B46, offset: 0x36B46, size: 0x8, addend: 0x0, symName: __ZNSt3__122__make_exception_guardB7v160006INS_29_AllocatorDestroyRangeReverseINS_9allocatorIN7doctest16SubcaseSignatureEEEPS4_EEEENS_28__exception_guard_exceptionsIT_EES9_, symObjAddr: 0x23CB0, symBinAddr: 0x1000283F0, symSize: 0x60 }
  - { offsetInCU: 0x36B7D, offset: 0x36B7D, size: 0x8, addend: 0x0, symName: __ZNSt3__1neB7v160006IPN7doctest16SubcaseSignatureEEEbRKNS_11__wrap_iterIT_EES8_, symObjAddr: 0x23D50, symBinAddr: 0x100028490, symSize: 0x30 }
  - { offsetInCU: 0x36BC3, offset: 0x36BC3, size: 0x8, addend: 0x0, symName: __ZNSt3__1eqB7v160006IPN7doctest16SubcaseSignatureEEEbRKNS_11__wrap_iterIT_EES8_, symObjAddr: 0x23EE0, symBinAddr: 0x100028620, symSize: 0x40 }
  - { offsetInCU: 0x36C08, offset: 0x36C08, size: 0x8, addend: 0x0, symName: __ZNSt3__119__allocator_destroyB7v160006INS_9allocatorIN7doctest16SubcaseSignatureEEENS_16reverse_iteratorIPS3_EES7_EEvRT_T0_T1_, symObjAddr: 0x23FF0, symBinAddr: 0x100028730, symSize: 0x70 }
  - { offsetInCU: 0x36C6C, offset: 0x36C6C, size: 0x8, addend: 0x0, symName: __ZNSt3__113move_backwardB7v160006IPN7doctest16SubcaseSignatureES3_EET0_T_S5_S4_, symObjAddr: 0x24060, symBinAddr: 0x1000287A0, symSize: 0x40 }
  - { offsetInCU: 0x36CCA, offset: 0x36CCA, size: 0x8, addend: 0x0, symName: __ZNSt3__115__move_backwardB7v160006INS_17_ClassicAlgPolicyEPN7doctest16SubcaseSignatureES4_S4_EENS_4pairIT0_T2_EES6_T1_S7_, symObjAddr: 0x240A0, symBinAddr: 0x1000287E0, symSize: 0x40 }
  - { offsetInCU: 0x36D3A, offset: 0x36D3A, size: 0x8, addend: 0x0, symName: __ZNSt3__123__dispatch_copy_or_moveB7v160006INS_17_ClassicAlgPolicyENS_20__move_backward_loopIS1_EENS_23__move_backward_trivialEPN7doctest16SubcaseSignatureES7_S7_EENS_4pairIT2_T4_EES9_T3_SA_, symObjAddr: 0x240E0, symBinAddr: 0x100028820, symSize: 0x40 }
  - { offsetInCU: 0x36DBC, offset: 0x36DBC, size: 0x8, addend: 0x0, symName: __ZNSt3__121__unwrap_and_dispatchB7v160006INS_10__overloadINS_20__move_backward_loopINS_17_ClassicAlgPolicyEEENS_23__move_backward_trivialEEEPN7doctest16SubcaseSignatureES9_S9_Li0EEENS_4pairIT0_T2_EESB_T1_SC_, symObjAddr: 0x24120, symBinAddr: 0x100028860, symSize: 0xB0 }
  - { offsetInCU: 0x36E52, offset: 0x36E52, size: 0x8, addend: 0x0, symName: __ZNSt3__114__unwrap_rangeB7v160006IPN7doctest16SubcaseSignatureES3_EENS_4pairIT0_S5_EET_S7_, symObjAddr: 0x241D0, symBinAddr: 0x100028910, symSize: 0x50 }
  - { offsetInCU: 0x36FC7, offset: 0x36FC7, size: 0x8, addend: 0x0, symName: __ZNSt3__113__unwrap_iterB7v160006IPN7doctest16SubcaseSignatureENS_18__unwrap_iter_implIS3_Lb1EEELi0EEEDTclsrT0_8__unwrapclsr3stdE7declvalIT_EEEES7_, symObjAddr: 0x242B0, symBinAddr: 0x1000289F0, symSize: 0x20 }
  - { offsetInCU: 0x3700D, offset: 0x3700D, size: 0x8, addend: 0x0, symName: __ZNSt3__19make_pairB7v160006IPN7doctest16SubcaseSignatureES3_EENS_4pairINS_18__unwrap_ref_decayIT_E4typeENS5_IT0_E4typeEEEOS6_OS9_, symObjAddr: 0x242D0, symBinAddr: 0x100028A10, symSize: 0x30 }
  - { offsetInCU: 0x3705D, offset: 0x3705D, size: 0x8, addend: 0x0, symName: __ZNSt3__114__rewrap_rangeB7v160006IPN7doctest16SubcaseSignatureES3_EET_S4_T0_, symObjAddr: 0x24300, symBinAddr: 0x100028A40, symSize: 0x30 }
  - { offsetInCU: 0x370AC, offset: 0x370AC, size: 0x8, addend: 0x0, symName: __ZNSt3__113__rewrap_iterB7v160006IPN7doctest16SubcaseSignatureES3_NS_18__unwrap_iter_implIS3_Lb1EEEEET_S6_T0_, symObjAddr: 0x24330, symBinAddr: 0x100028A70, symSize: 0x40 }
  - { offsetInCU: 0x3717B, offset: 0x3717B, size: 0x8, addend: 0x0, symName: __ZNSt3__16__copyB7v160006INS_17_ClassicAlgPolicyENS_11__wrap_iterIPN7doctest16SubcaseSignatureEEES6_S5_EENS_4pairIT0_T2_EES8_T1_S9_, symObjAddr: 0x244E0, symBinAddr: 0x100028C20, symSize: 0x50 }
  - { offsetInCU: 0x371EB, offset: 0x371EB, size: 0x8, addend: 0x0, symName: __ZNSt3__123__dispatch_copy_or_moveB7v160006INS_17_ClassicAlgPolicyENS_11__copy_loopIS1_EENS_14__copy_trivialENS_11__wrap_iterIPN7doctest16SubcaseSignatureEEES9_S8_EENS_4pairIT2_T4_EESB_T3_SC_, symObjAddr: 0x24530, symBinAddr: 0x100028C70, symSize: 0x50 }
  - { offsetInCU: 0x3726D, offset: 0x3726D, size: 0x8, addend: 0x0, symName: __ZNSt3__121__unwrap_and_dispatchB7v160006INS_10__overloadINS_11__copy_loopINS_17_ClassicAlgPolicyEEENS_14__copy_trivialEEENS_11__wrap_iterIPN7doctest16SubcaseSignatureEEESB_SA_Li0EEENS_4pairIT0_T2_EESD_T1_SE_, symObjAddr: 0x24580, symBinAddr: 0x100028CC0, symSize: 0xD0 }
  - { offsetInCU: 0x37303, offset: 0x37303, size: 0x8, addend: 0x0, symName: __ZNSt3__114__unwrap_rangeB7v160006INS_11__wrap_iterIPN7doctest16SubcaseSignatureEEES4_EENS_4pairIT0_S7_EET_S9_, symObjAddr: 0x24650, symBinAddr: 0x100028D90, symSize: 0x60 }
  - { offsetInCU: 0x373A3, offset: 0x373A3, size: 0x8, addend: 0x0, symName: __ZNSt3__19make_pairB7v160006INS_11__wrap_iterIPN7doctest16SubcaseSignatureEEES4_EENS_4pairINS_18__unwrap_ref_decayIT_E4typeENS7_IT0_E4typeEEEOS8_OSB_, symObjAddr: 0x24730, symBinAddr: 0x100028E70, symSize: 0x30 }
  - { offsetInCU: 0x373F3, offset: 0x373F3, size: 0x8, addend: 0x0, symName: __ZNSt3__114__rewrap_rangeB7v160006INS_11__wrap_iterIPN7doctest16SubcaseSignatureEEES4_EET_S6_T0_, symObjAddr: 0x24760, symBinAddr: 0x100028EA0, symSize: 0x40 }
  - { offsetInCU: 0x37442, offset: 0x37442, size: 0x8, addend: 0x0, symName: __ZNSt3__113__unwrap_iterB7v160006INS_11__wrap_iterIPN7doctest16SubcaseSignatureEEENS_18__unwrap_iter_implIS5_Lb1EEELi0EEEDTclsrT0_8__unwrapclsr3stdE7declvalIT_EEEES9_, symObjAddr: 0x247A0, symBinAddr: 0x100028EE0, symSize: 0x30 }
  - { offsetInCU: 0x374DC, offset: 0x374DC, size: 0x8, addend: 0x0, symName: __ZNSt3__112__to_addressB7v160006INS_11__wrap_iterIPN7doctest16SubcaseSignatureEEEvEENS_5decayIDTclsr19__to_address_helperIT_EE6__callclsr3stdE7declvalIRKS7_EEEEE4typeES9_, symObjAddr: 0x247F0, symBinAddr: 0x100028F30, symSize: 0x20 }
  - { offsetInCU: 0x37692, offset: 0x37692, size: 0x8, addend: 0x0, symName: __ZNSt3__113__rewrap_iterB7v160006INS_11__wrap_iterIPN7doctest16SubcaseSignatureEEES4_NS_18__unwrap_iter_implIS5_Lb1EEEEET_S8_T0_, symObjAddr: 0x24910, symBinAddr: 0x100029050, symSize: 0x50 }
  - { offsetInCU: 0x376E9, offset: 0x376E9, size: 0x8, addend: 0x0, symName: __ZNSt3__142__uninitialized_allocator_move_if_noexceptB7v160006INS_9allocatorIN7doctest16SubcaseSignatureEEEPS3_S5_S5_EET2_RT_T0_T1_S6_, symObjAddr: 0x24A60, symBinAddr: 0x1000291A0, symSize: 0x100 }
  - { offsetInCU: 0x37788, offset: 0x37788, size: 0x8, addend: 0x0, symName: __ZNSt3__116__is_hash_power2B7v160006Em, symObjAddr: 0x25340, symBinAddr: 0x100029A80, symSize: 0x40 }
  - { offsetInCU: 0x377D4, offset: 0x377D4, size: 0x8, addend: 0x0, symName: __ZNSt3__116__next_hash_pow2B7v160006Em, symObjAddr: 0x25C70, symBinAddr: 0x10002A3B0, symSize: 0x60 }
  - { offsetInCU: 0x37802, offset: 0x37802, size: 0x8, addend: 0x0, symName: __ZNSt3__125__debug_db_invalidate_allB7v160006INS_12__hash_tableIyNS_4hashIyEENS_8equal_toIyEENS_9allocatorIyEEEEEEvPT_, symObjAddr: 0x25CD0, symBinAddr: 0x10002A410, symSize: 0x10 }
  - { offsetInCU: 0x37835, offset: 0x37835, size: 0x8, addend: 0x0, symName: __ZNSt3__112__libcpp_clzB7v160006Em, symObjAddr: 0x25E30, symBinAddr: 0x10002A570, symSize: 0x20 }
  - { offsetInCU: 0x37880, offset: 0x37880, size: 0x8, addend: 0x0, symName: __ZNSt3__127__tree_balance_after_insertB7v160006IPNS_16__tree_node_baseIPvEEEEvT_S5_, symObjAddr: 0x26F90, symBinAddr: 0x10002B6D0, symSize: 0x320 }
  - { offsetInCU: 0x378FD, offset: 0x378FD, size: 0x8, addend: 0x0, symName: __ZNSt3__120__tree_is_left_childB7v160006IPNS_16__tree_node_baseIPvEEEEbT_, symObjAddr: 0x272F0, symBinAddr: 0x10002BA30, symSize: 0x30 }
  - { offsetInCU: 0x37933, offset: 0x37933, size: 0x8, addend: 0x0, symName: __ZNSt3__118__tree_left_rotateB7v160006IPNS_16__tree_node_baseIPvEEEEvT_, symObjAddr: 0x27320, symBinAddr: 0x10002BA60, symSize: 0xD0 }
  - { offsetInCU: 0x37975, offset: 0x37975, size: 0x8, addend: 0x0, symName: __ZNSt3__119__tree_right_rotateB7v160006IPNS_16__tree_node_baseIPvEEEEvT_, symObjAddr: 0x273F0, symBinAddr: 0x10002BB30, symSize: 0xC0 }
  - { offsetInCU: 0x379B8, offset: 0x379B8, size: 0x8, addend: 0x0, symName: __ZNSt3__119__allocate_at_leastB7v160006INS_9allocatorIPKN7doctest6detail20IExceptionTranslatorEEEEENS_19__allocation_resultINS_16allocator_traitsIT_E7pointerEEERSA_m, symObjAddr: 0x27E00, symBinAddr: 0x10002C540, symSize: 0x40 }
  - { offsetInCU: 0x379FD, offset: 0x379FD, size: 0x8, addend: 0x0, symName: __ZNSt3__142__uninitialized_allocator_move_if_noexceptB7v160006INS_9allocatorIPKN7doctest6detail20IExceptionTranslatorEEENS_16reverse_iteratorIPS6_EESA_S6_vEET1_RT_T0_SE_SB_, symObjAddr: 0x27F90, symBinAddr: 0x10002C6D0, symSize: 0x70 }
  - { offsetInCU: 0x37A7A, offset: 0x37A7A, size: 0x8, addend: 0x0, symName: __ZNSt3__14swapB7v160006IPPKN7doctest6detail20IExceptionTranslatorEEENS_9enable_ifIXaasr21is_move_constructibleIT_EE5valuesr18is_move_assignableIS8_EE5valueEvE4typeERS8_SB_, symObjAddr: 0x28050, symBinAddr: 0x10002C790, symSize: 0x40 }
  - { offsetInCU: 0x37ACF, offset: 0x37ACF, size: 0x8, addend: 0x0, symName: __ZNSt3__125__debug_db_invalidate_allB7v160006INS_6vectorIPKN7doctest6detail20IExceptionTranslatorENS_9allocatorIS6_EEEEEEvPT_, symObjAddr: 0x28140, symBinAddr: 0x10002C880, symSize: 0x10 }
  - { offsetInCU: 0x37B02, offset: 0x37B02, size: 0x8, addend: 0x0, symName: __ZNSt3__14moveB7v160006INS_16reverse_iteratorIPPKN7doctest6detail20IExceptionTranslatorEEES8_EET0_T_SA_S9_, symObjAddr: 0x28150, symBinAddr: 0x10002C890, symSize: 0x80 }
  - { offsetInCU: 0x37B60, offset: 0x37B60, size: 0x8, addend: 0x0, symName: __ZNSt3__16__moveB7v160006INS_17_ClassicAlgPolicyENS_16reverse_iteratorIPPKN7doctest6detail20IExceptionTranslatorEEES9_S9_EENS_4pairIT0_T2_EESB_T1_SC_, symObjAddr: 0x281D0, symBinAddr: 0x10002C910, symSize: 0x90 }
  - { offsetInCU: 0x37BD0, offset: 0x37BD0, size: 0x8, addend: 0x0, symName: __ZNSt3__123__dispatch_copy_or_moveB7v160006INS_17_ClassicAlgPolicyENS_11__move_loopIS1_EENS_14__move_trivialENS_16reverse_iteratorIPPKN7doctest6detail20IExceptionTranslatorEEESC_SC_EENS_4pairIT2_T4_EESE_T3_SF_, symObjAddr: 0x28260, symBinAddr: 0x10002C9A0, symSize: 0x90 }
  - { offsetInCU: 0x37C52, offset: 0x37C52, size: 0x8, addend: 0x0, symName: __ZNSt3__121__unwrap_and_dispatchB7v160006INS_10__overloadINS_11__move_loopINS_17_ClassicAlgPolicyEEENS_14__move_trivialEEENS_16reverse_iteratorIPPKN7doctest6detail20IExceptionTranslatorEEESE_SE_Li0EEENS_4pairIT0_T2_EESG_T1_SH_, symObjAddr: 0x282F0, symBinAddr: 0x10002CA30, symSize: 0x210 }
  - { offsetInCU: 0x37CE8, offset: 0x37CE8, size: 0x8, addend: 0x0, symName: __ZNSt3__114__unwrap_rangeB7v160006INS_16reverse_iteratorIPPKN7doctest6detail20IExceptionTranslatorEEES8_EENS_4pairIT0_SA_EET_SC_, symObjAddr: 0x28500, symBinAddr: 0x10002CC40, symSize: 0x90 }
  - { offsetInCU: 0x37E0B, offset: 0x37E0B, size: 0x8, addend: 0x0, symName: __ZNSt3__113__unwrap_iterB7v160006INS_16reverse_iteratorIPPKN7doctest6detail20IExceptionTranslatorEEENS_18__unwrap_iter_implIS8_Lb0EEELi0EEEDTclsrT0_8__unwrapclsr3stdE7declvalIT_EEEESC_, symObjAddr: 0x28630, symBinAddr: 0x10002CD70, symSize: 0x40 }
  - { offsetInCU: 0x37E51, offset: 0x37E51, size: 0x8, addend: 0x0, symName: __ZNSt3__19make_pairB7v160006INS_16reverse_iteratorIPPKN7doctest6detail20IExceptionTranslatorEEES8_EENS_4pairINS_18__unwrap_ref_decayIT_E4typeENSA_IT0_E4typeEEEOSB_OSE_, symObjAddr: 0x28670, symBinAddr: 0x10002CDB0, symSize: 0x30 }
  - { offsetInCU: 0x37EA1, offset: 0x37EA1, size: 0x8, addend: 0x0, symName: __ZNSt3__114__rewrap_rangeB7v160006INS_16reverse_iteratorIPPKN7doctest6detail20IExceptionTranslatorEEES8_EET_S9_T0_, symObjAddr: 0x286A0, symBinAddr: 0x10002CDE0, symSize: 0x60 }
  - { offsetInCU: 0x37EF0, offset: 0x37EF0, size: 0x8, addend: 0x0, symName: __ZNSt3__113__rewrap_iterB7v160006INS_16reverse_iteratorIPPKN7doctest6detail20IExceptionTranslatorEEES8_NS_18__unwrap_iter_implIS8_Lb0EEEEET_SB_T0_, symObjAddr: 0x28700, symBinAddr: 0x10002CE40, symSize: 0x70 }
  - { offsetInCU: 0x37F48, offset: 0x37F48, size: 0x8, addend: 0x0, symName: __ZNSt3__1neB7v160006IPPKN7doctest6detail20IExceptionTranslatorES6_EEbRKNS_16reverse_iteratorIT_EERKNS7_IT0_EE, symObjAddr: 0x28770, symBinAddr: 0x10002CEB0, symSize: 0x40 }
  - { offsetInCU: 0x38003, offset: 0x38003, size: 0x8, addend: 0x0, symName: __ZNSt3__119__debug_db_insert_cB7v160006INS_6vectorIPN7doctest13IContextScopeENS_9allocatorIS4_EEEEEEvPT_, symObjAddr: 0x28B60, symBinAddr: 0x10002D2A0, symSize: 0x10 }
  - { offsetInCU: 0x38036, offset: 0x38036, size: 0x8, addend: 0x0, symName: __ZNSt3__118__debug_db_erase_cB7v160006INS_6vectorIPN7doctest13IContextScopeENS_9allocatorIS4_EEEEEEvPT_, symObjAddr: 0x28DF0, symBinAddr: 0x10002D530, symSize: 0x10 }
  - { offsetInCU: 0x38069, offset: 0x38069, size: 0x8, addend: 0x0, symName: __ZNSt3__112__to_addressB7v160006IPN7doctest13IContextScopeEEEPT_S5_, symObjAddr: 0x28EE0, symBinAddr: 0x10002D620, symSize: 0x10 }
  - { offsetInCU: 0x380A0, offset: 0x380A0, size: 0x8, addend: 0x0, symName: __ZNSt3__119__allocate_at_leastB7v160006INS_9allocatorIPN7doctest13IContextScopeEEEEENS_19__allocation_resultINS_16allocator_traitsIT_E7pointerEEERS8_m, symObjAddr: 0x29760, symBinAddr: 0x10002DEA0, symSize: 0x40 }
  - { offsetInCU: 0x380E5, offset: 0x380E5, size: 0x8, addend: 0x0, symName: __ZNSt3__142__uninitialized_allocator_move_if_noexceptB7v160006INS_9allocatorIPN7doctest13IContextScopeEEENS_16reverse_iteratorIPS4_EES8_S4_vEET1_RT_T0_SC_S9_, symObjAddr: 0x298F0, symBinAddr: 0x10002E030, symSize: 0x70 }
  - { offsetInCU: 0x38162, offset: 0x38162, size: 0x8, addend: 0x0, symName: __ZNSt3__14swapB7v160006IPPN7doctest13IContextScopeEEENS_9enable_ifIXaasr21is_move_constructibleIT_EE5valuesr18is_move_assignableIS6_EE5valueEvE4typeERS6_S9_, symObjAddr: 0x299B0, symBinAddr: 0x10002E0F0, symSize: 0x40 }
  - { offsetInCU: 0x381B7, offset: 0x381B7, size: 0x8, addend: 0x0, symName: __ZNSt3__125__debug_db_invalidate_allB7v160006INS_6vectorIPN7doctest13IContextScopeENS_9allocatorIS4_EEEEEEvPT_, symObjAddr: 0x29AA0, symBinAddr: 0x10002E1E0, symSize: 0x10 }
  - { offsetInCU: 0x381EA, offset: 0x381EA, size: 0x8, addend: 0x0, symName: __ZNSt3__14moveB7v160006INS_16reverse_iteratorIPPN7doctest13IContextScopeEEES6_EET0_T_S8_S7_, symObjAddr: 0x29AB0, symBinAddr: 0x10002E1F0, symSize: 0x80 }
  - { offsetInCU: 0x38248, offset: 0x38248, size: 0x8, addend: 0x0, symName: __ZNSt3__16__moveB7v160006INS_17_ClassicAlgPolicyENS_16reverse_iteratorIPPN7doctest13IContextScopeEEES7_S7_EENS_4pairIT0_T2_EES9_T1_SA_, symObjAddr: 0x29B30, symBinAddr: 0x10002E270, symSize: 0x90 }
  - { offsetInCU: 0x382B8, offset: 0x382B8, size: 0x8, addend: 0x0, symName: __ZNSt3__123__dispatch_copy_or_moveB7v160006INS_17_ClassicAlgPolicyENS_11__move_loopIS1_EENS_14__move_trivialENS_16reverse_iteratorIPPN7doctest13IContextScopeEEESA_SA_EENS_4pairIT2_T4_EESC_T3_SD_, symObjAddr: 0x29BC0, symBinAddr: 0x10002E300, symSize: 0x90 }
  - { offsetInCU: 0x3833A, offset: 0x3833A, size: 0x8, addend: 0x0, symName: __ZNSt3__121__unwrap_and_dispatchB7v160006INS_10__overloadINS_11__move_loopINS_17_ClassicAlgPolicyEEENS_14__move_trivialEEENS_16reverse_iteratorIPPN7doctest13IContextScopeEEESC_SC_Li0EEENS_4pairIT0_T2_EESE_T1_SF_, symObjAddr: 0x29C50, symBinAddr: 0x10002E390, symSize: 0x210 }
  - { offsetInCU: 0x383D0, offset: 0x383D0, size: 0x8, addend: 0x0, symName: __ZNSt3__114__unwrap_rangeB7v160006INS_16reverse_iteratorIPPN7doctest13IContextScopeEEES6_EENS_4pairIT0_S8_EET_SA_, symObjAddr: 0x29E60, symBinAddr: 0x10002E5A0, symSize: 0x90 }
  - { offsetInCU: 0x384F3, offset: 0x384F3, size: 0x8, addend: 0x0, symName: __ZNSt3__113__unwrap_iterB7v160006INS_16reverse_iteratorIPPN7doctest13IContextScopeEEENS_18__unwrap_iter_implIS6_Lb0EEELi0EEEDTclsrT0_8__unwrapclsr3stdE7declvalIT_EEEESA_, symObjAddr: 0x29F90, symBinAddr: 0x10002E6D0, symSize: 0x40 }
  - { offsetInCU: 0x38539, offset: 0x38539, size: 0x8, addend: 0x0, symName: __ZNSt3__19make_pairB7v160006INS_16reverse_iteratorIPPN7doctest13IContextScopeEEES6_EENS_4pairINS_18__unwrap_ref_decayIT_E4typeENS8_IT0_E4typeEEEOS9_OSC_, symObjAddr: 0x29FD0, symBinAddr: 0x10002E710, symSize: 0x30 }
  - { offsetInCU: 0x38589, offset: 0x38589, size: 0x8, addend: 0x0, symName: __ZNSt3__114__rewrap_rangeB7v160006INS_16reverse_iteratorIPPN7doctest13IContextScopeEEES6_EET_S7_T0_, symObjAddr: 0x2A000, symBinAddr: 0x10002E740, symSize: 0x60 }
  - { offsetInCU: 0x385D8, offset: 0x385D8, size: 0x8, addend: 0x0, symName: __ZNSt3__113__rewrap_iterB7v160006INS_16reverse_iteratorIPPN7doctest13IContextScopeEEES6_NS_18__unwrap_iter_implIS6_Lb0EEEEET_S9_T0_, symObjAddr: 0x2A060, symBinAddr: 0x10002E7A0, symSize: 0x70 }
  - { offsetInCU: 0x38630, offset: 0x38630, size: 0x8, addend: 0x0, symName: __ZNSt3__1neB7v160006IPPN7doctest13IContextScopeES4_EEbRKNS_16reverse_iteratorIT_EERKNS5_IT0_EE, symObjAddr: 0x2A0D0, symBinAddr: 0x10002E810, symSize: 0x40 }
  - { offsetInCU: 0x386EB, offset: 0x386EB, size: 0x8, addend: 0x0, symName: __ZNSt3__119__allocate_at_leastB7v160006INS_9allocatorIN7doctest6StringEEEEENS_19__allocation_resultINS_16allocator_traitsIT_E7pointerEEERS7_m, symObjAddr: 0x2AB20, symBinAddr: 0x10002F260, symSize: 0x40 }
  - { offsetInCU: 0x38730, offset: 0x38730, size: 0x8, addend: 0x0, symName: __ZNSt3__142__uninitialized_allocator_move_if_noexceptB7v160006INS_9allocatorIN7doctest6StringEEENS_16reverse_iteratorIPS3_EES7_S7_EET2_RT_T0_T1_S8_, symObjAddr: 0x2ACB0, symBinAddr: 0x10002F3F0, symSize: 0x180 }
  - { offsetInCU: 0x387D0, offset: 0x387D0, size: 0x8, addend: 0x0, symName: __ZNSt3__14swapB7v160006IPN7doctest6StringEEENS_9enable_ifIXaasr21is_move_constructibleIT_EE5valuesr18is_move_assignableIS5_EE5valueEvE4typeERS5_S8_, symObjAddr: 0x2AE80, symBinAddr: 0x10002F5C0, symSize: 0x40 }
  - { offsetInCU: 0x38825, offset: 0x38825, size: 0x8, addend: 0x0, symName: __ZNSt3__125__debug_db_invalidate_allB7v160006INS_6vectorIN7doctest6StringENS_9allocatorIS3_EEEEEEvPT_, symObjAddr: 0x2AF60, symBinAddr: 0x10002F6A0, symSize: 0x10 }
  - { offsetInCU: 0x38858, offset: 0x38858, size: 0x8, addend: 0x0, symName: __ZNSt3__122__make_exception_guardB7v160006INS_29_AllocatorDestroyRangeReverseINS_9allocatorIN7doctest6StringEEENS_16reverse_iteratorIPS4_EEEEEENS_28__exception_guard_exceptionsIT_EESB_, symObjAddr: 0x2AF70, symBinAddr: 0x10002F6B0, symSize: 0x60 }
  - { offsetInCU: 0x3888F, offset: 0x3888F, size: 0x8, addend: 0x0, symName: __ZNSt3__1neB7v160006IPN7doctest6StringES3_EEbRKNS_16reverse_iteratorIT_EERKNS4_IT0_EE, symObjAddr: 0x2B010, symBinAddr: 0x10002F750, symSize: 0x40 }
  - { offsetInCU: 0x388DE, offset: 0x388DE, size: 0x8, addend: 0x0, symName: __ZNSt3__112__to_addressB7v160006INS_16reverse_iteratorIPN7doctest6StringEEEvEENS_5decayIDTclsr19__to_address_helperIT_EE6__callclsr3stdE7declvalIRKS7_EEEEE4typeES9_, symObjAddr: 0x2B050, symBinAddr: 0x10002F790, symSize: 0x20 }
  - { offsetInCU: 0x3893F, offset: 0x3893F, size: 0x8, addend: 0x0, symName: __ZNSt3__119__allocator_destroyB7v160006INS_9allocatorIN7doctest6StringEEENS_16reverse_iteratorINS5_IPS3_EEEES8_EEvRT_T0_T1_, symObjAddr: 0x2B340, symBinAddr: 0x10002FA80, symSize: 0x70 }
  - { offsetInCU: 0x389A3, offset: 0x389A3, size: 0x8, addend: 0x0, symName: __ZNSt3__1neB7v160006INS_16reverse_iteratorIPN7doctest6StringEEES5_EEbRKNS1_IT_EERKNS1_IT0_EE, symObjAddr: 0x2B3E0, symBinAddr: 0x10002FB20, symSize: 0x50 }
  - { offsetInCU: 0x389F2, offset: 0x389F2, size: 0x8, addend: 0x0, symName: __ZNSt3__112__to_addressB7v160006INS_16reverse_iteratorINS1_IPN7doctest6StringEEEEEvEENS_5decayIDTclsr19__to_address_helperIT_EE6__callclsr3stdE7declvalIRKS8_EEEEE4typeESA_, symObjAddr: 0x2B430, symBinAddr: 0x10002FB70, symSize: 0x20 }
  - { offsetInCU: 0x38A53, offset: 0x38A53, size: 0x8, addend: 0x0, symName: __ZNSt3__1neB7v160006ERKNS_15__tree_iteratorINS_12__value_typeINS_4pairIiN7doctest6StringEEEPFPNS3_9IReporterERKNS3_14ContextOptionsEEEEPNS_11__tree_nodeISD_PvEElEESK_, symObjAddr: 0x2B9A0, symBinAddr: 0x1000300E0, symSize: 0x30 }
  - { offsetInCU: 0x38A90, offset: 0x38A90, size: 0x8, addend: 0x0, symName: __ZNSt3__1eqB7v160006ERKNS_15__tree_iteratorINS_12__value_typeINS_4pairIiN7doctest6StringEEEPFPNS3_9IReporterERKNS3_14ContextOptionsEEEEPNS_11__tree_nodeISD_PvEElEESK_, symObjAddr: 0x2B9D0, symBinAddr: 0x100030110, symSize: 0x30 }
  - { offsetInCU: 0x38ACE, offset: 0x38ACE, size: 0x8, addend: 0x0, symName: __ZNSt3__116__tree_next_iterB7v160006IPNS_15__tree_end_nodeIPNS_16__tree_node_baseIPvEEEES5_EET_T0_, symObjAddr: 0x2BA30, symBinAddr: 0x100030170, symSize: 0x80 }
  - { offsetInCU: 0x38B0E, offset: 0x38B0E, size: 0x8, addend: 0x0, symName: __ZNSt3__110__tree_minB7v160006IPNS_16__tree_node_baseIPvEEEET_S5_, symObjAddr: 0x2BAB0, symBinAddr: 0x1000301F0, symSize: 0x30 }
  - { offsetInCU: 0x38B78, offset: 0x38B78, size: 0x8, addend: 0x0, symName: __ZNSt3__119__debug_db_insert_cB7v160006INS_6vectorINS_12basic_stringIcNS_11char_traitsIcEENS_9allocatorIcEEEENS5_IS7_EEEEEEvPT_, symObjAddr: 0x2E7D0, symBinAddr: 0x100032F10, symSize: 0x10 }
  - { offsetInCU: 0x38BAA, offset: 0x38BAA, size: 0x8, addend: 0x0, symName: __ZNSt3__1lsB7v160006IcNS_11char_traitsIcEENS_9allocatorIcEEEERNS_13basic_ostreamIT_T0_EES9_RKNS_12basic_stringIS6_S7_T1_EE, symObjAddr: 0x2ED70, symBinAddr: 0x1000334B0, symSize: 0x50 }
  - { offsetInCU: 0x38C02, offset: 0x38C02, size: 0x8, addend: 0x0, symName: __ZNSt3__1lsB7v160006INS_11char_traitsIcEEEERNS_13basic_ostreamIcT_EES6_c, symObjAddr: 0x2EDC0, symBinAddr: 0x100033500, symSize: 0x30 }
  - { offsetInCU: 0x38C48, offset: 0x38C48, size: 0x8, addend: 0x0, symName: __ZNSt3__14endlB7v160006IcNS_11char_traitsIcEEEERNS_13basic_ostreamIT_T0_EES7_, symObjAddr: 0x2EEA0, symBinAddr: 0x1000335E0, symSize: 0x50 }
  - { offsetInCU: 0x38C89, offset: 0x38C89, size: 0x8, addend: 0x0, symName: __ZNSt3__112__to_addressB7v160006INS_12basic_stringIcNS_11char_traitsIcEENS_9allocatorIcEEEEEEPT_S8_, symObjAddr: 0x2F120, symBinAddr: 0x100033860, symSize: 0x10 }
  - { offsetInCU: 0x38CC0, offset: 0x38CC0, size: 0x8, addend: 0x0, symName: __ZNSt3__119__allocate_at_leastB7v160006INS_9allocatorINS_12basic_stringIcNS_11char_traitsIcEENS1_IcEEEEEEEENS_19__allocation_resultINS_16allocator_traitsIT_E7pointerEEERSA_m, symObjAddr: 0x2F700, symBinAddr: 0x100033E40, symSize: 0x40 }
  - { offsetInCU: 0x38D05, offset: 0x38D05, size: 0x8, addend: 0x0, symName: __ZNSt3__142__uninitialized_allocator_move_if_noexceptB7v160006INS_9allocatorINS_12basic_stringIcNS_11char_traitsIcEENS1_IcEEEEEENS_16reverse_iteratorIPS6_EESA_SA_EET2_RT_T0_T1_SB_, symObjAddr: 0x2F940, symBinAddr: 0x100034080, symSize: 0x180 }
  - { offsetInCU: 0x38DA5, offset: 0x38DA5, size: 0x8, addend: 0x0, symName: __ZNSt3__14swapB7v160006IPNS_12basic_stringIcNS_11char_traitsIcEENS_9allocatorIcEEEEEENS_9enable_ifIXaasr21is_move_constructibleIT_EE5valuesr18is_move_assignableIS9_EE5valueEvE4typeERS9_SC_, symObjAddr: 0x2FB10, symBinAddr: 0x100034250, symSize: 0x40 }
  - { offsetInCU: 0x38DFA, offset: 0x38DFA, size: 0x8, addend: 0x0, symName: __ZNSt3__125__debug_db_invalidate_allB7v160006INS_6vectorINS_12basic_stringIcNS_11char_traitsIcEENS_9allocatorIcEEEENS5_IS7_EEEEEEvPT_, symObjAddr: 0x2FBF0, symBinAddr: 0x100034330, symSize: 0x10 }
  - { offsetInCU: 0x38E2D, offset: 0x38E2D, size: 0x8, addend: 0x0, symName: __ZNSt3__122__make_exception_guardB7v160006INS_29_AllocatorDestroyRangeReverseINS_9allocatorINS_12basic_stringIcNS_11char_traitsIcEENS2_IcEEEEEENS_16reverse_iteratorIPS7_EEEEEENS_28__exception_guard_exceptionsIT_EESE_, symObjAddr: 0x2FC40, symBinAddr: 0x100034380, symSize: 0x60 }
  - { offsetInCU: 0x38E64, offset: 0x38E64, size: 0x8, addend: 0x0, symName: __ZNSt3__1neB7v160006IPNS_12basic_stringIcNS_11char_traitsIcEENS_9allocatorIcEEEES7_EEbRKNS_16reverse_iteratorIT_EERKNS8_IT0_EE, symObjAddr: 0x2FCE0, symBinAddr: 0x100034420, symSize: 0x40 }
  - { offsetInCU: 0x38EB3, offset: 0x38EB3, size: 0x8, addend: 0x0, symName: __ZNSt3__112__to_addressB7v160006INS_16reverse_iteratorIPNS_12basic_stringIcNS_11char_traitsIcEENS_9allocatorIcEEEEEEvEENS_5decayIDTclsr19__to_address_helperIT_EE6__callclsr3stdE7declvalIRKSB_EEEEE4typeESD_, symObjAddr: 0x2FD50, symBinAddr: 0x100034490, symSize: 0x20 }
  - { offsetInCU: 0x38EEB, offset: 0x38EEB, size: 0x8, addend: 0x0, symName: __ZNSt3__115__debug_db_swapB7v160006INS_12basic_stringIcNS_11char_traitsIcEENS_9allocatorIcEEEEEEvPT_S8_, symObjAddr: 0x2FF90, symBinAddr: 0x1000346D0, symSize: 0x10 }
  - { offsetInCU: 0x38F56, offset: 0x38F56, size: 0x8, addend: 0x0, symName: __ZNSt3__119__allocator_destroyB7v160006INS_9allocatorINS_12basic_stringIcNS_11char_traitsIcEENS1_IcEEEEEENS_16reverse_iteratorINS8_IPS6_EEEESB_EEvRT_T0_T1_, symObjAddr: 0x30130, symBinAddr: 0x100034870, symSize: 0x70 }
  - { offsetInCU: 0x38FBA, offset: 0x38FBA, size: 0x8, addend: 0x0, symName: __ZNSt3__1neB7v160006INS_16reverse_iteratorIPNS_12basic_stringIcNS_11char_traitsIcEENS_9allocatorIcEEEEEES9_EEbRKNS1_IT_EERKNS1_IT0_EE, symObjAddr: 0x301D0, symBinAddr: 0x100034910, symSize: 0x50 }
  - { offsetInCU: 0x39009, offset: 0x39009, size: 0x8, addend: 0x0, symName: __ZNSt3__112__to_addressB7v160006INS_16reverse_iteratorINS1_IPNS_12basic_stringIcNS_11char_traitsIcEENS_9allocatorIcEEEEEEEEvEENS_5decayIDTclsr19__to_address_helperIT_EE6__callclsr3stdE7declvalIRKSC_EEEEE4typeESE_, symObjAddr: 0x30250, symBinAddr: 0x100034990, symSize: 0x20 }
  - { offsetInCU: 0x3906A, offset: 0x3906A, size: 0x8, addend: 0x0, symName: __ZNSt3__1lsB7v160006INS_11char_traitsIcEEEERNS_13basic_ostreamIcT_EES6_h, symObjAddr: 0x30D70, symBinAddr: 0x1000354B0, symSize: 0x30 }
  - { offsetInCU: 0x390B0, offset: 0x390B0, size: 0x8, addend: 0x0, symName: __ZNSt3__1lsB7v160006IcNS_11char_traitsIcEEEERNS_13basic_ostreamIT_T0_EES7_RKNS_8__iom_t6E, symObjAddr: 0x31000, symBinAddr: 0x100035740, symSize: 0x40 }
  - { offsetInCU: 0x39100, offset: 0x39100, size: 0x8, addend: 0x0, symName: __ZNSt3__1lsB7v160006INS_11char_traitsIcEEEERNS_13basic_ostreamIcT_EES6_RKNS_8__iom_t4IcEE, symObjAddr: 0x31040, symBinAddr: 0x100035780, symSize: 0x40 }
  - { offsetInCU: 0x39145, offset: 0x39145, size: 0x8, addend: 0x0, symName: __ZNSt3__19uppercaseB7v160006ERNS_8ios_baseE, symObjAddr: 0x310B0, symBinAddr: 0x1000357F0, symSize: 0x30 }
  - { offsetInCU: 0x39173, offset: 0x39173, size: 0x8, addend: 0x0, symName: __ZNSt3__13hexB7v160006ERNS_8ios_baseE, symObjAddr: 0x310E0, symBinAddr: 0x100035820, symSize: 0x30 }
  - { offsetInCU: 0x391A2, offset: 0x391A2, size: 0x8, addend: 0x0, symName: __ZNSt3__17setfillB7v160006IcEENS_8__iom_t4IT_EES2_, symObjAddr: 0x31110, symBinAddr: 0x100035850, symSize: 0x30 }
  - { offsetInCU: 0x391D8, offset: 0x391D8, size: 0x8, addend: 0x0, symName: __ZNSt3__14setwB7v160006Ei, symObjAddr: 0x31140, symBinAddr: 0x100035880, symSize: 0x20 }
  - { offsetInCU: 0x392AE, offset: 0x392AE, size: 0x8, addend: 0x0, symName: __ZNSt3__118__debug_db_erase_cB7v160006INS_6vectorINS_12basic_stringIcNS_11char_traitsIcEENS_9allocatorIcEEEENS5_IS7_EEEEEEvPT_, symObjAddr: 0x32A90, symBinAddr: 0x1000371D0, symSize: 0x10 }
  - { offsetInCU: 0x392E1, offset: 0x392E1, size: 0x8, addend: 0x0, symName: __ZNSt3__119__debug_db_insert_cB7v160006INS_6vectorIN7doctest12_GLOBAL__N_113JUnitReporter17JUnitTestCaseData13JUnitTestCaseENS_9allocatorIS6_EEEEEEvPT_, symObjAddr: 0x344E0, symBinAddr: 0x100038C20, symSize: 0x10 }
  - { offsetInCU: 0x39314, offset: 0x39314, size: 0x8, addend: 0x0, symName: __ZNSt3__1neB7v160006IPN7doctest12_GLOBAL__N_113JUnitReporter17JUnitTestCaseData13JUnitTestCaseEEEbRKNS_11__wrap_iterIT_EESB_, symObjAddr: 0x346B0, symBinAddr: 0x100038DF0, symSize: 0x30 }
  - { offsetInCU: 0x3935A, offset: 0x3935A, size: 0x8, addend: 0x0, symName: __ZNSt3__1neB7v160006IPKN7doctest12_GLOBAL__N_113JUnitReporter17JUnitTestCaseData16JUnitTestMessageEEEbRKNS_11__wrap_iterIT_EESC_, symObjAddr: 0x34760, symBinAddr: 0x100038EA0, symSize: 0x30 }
  - { offsetInCU: 0x393A0, offset: 0x393A0, size: 0x8, addend: 0x0, symName: __ZNSt3__1eqB7v160006IPN7doctest12_GLOBAL__N_113JUnitReporter17JUnitTestCaseData13JUnitTestCaseEEEbRKNS_11__wrap_iterIT_EESB_, symObjAddr: 0x348B0, symBinAddr: 0x100038FF0, symSize: 0x40 }
  - { offsetInCU: 0x393E6, offset: 0x393E6, size: 0x8, addend: 0x0, symName: __ZNSt3__1eqB7v160006IPKN7doctest12_GLOBAL__N_113JUnitReporter17JUnitTestCaseData16JUnitTestMessageEEEbRKNS_11__wrap_iterIT_EESC_, symObjAddr: 0x34990, symBinAddr: 0x1000390D0, symSize: 0x40 }
  - { offsetInCU: 0x3942C, offset: 0x3942C, size: 0x8, addend: 0x0, symName: __ZNSt3__112__to_addressB7v160006IN7doctest12_GLOBAL__N_113JUnitReporter17JUnitTestCaseData13JUnitTestCaseEEEPT_S7_, symObjAddr: 0x34D10, symBinAddr: 0x100039450, symSize: 0x10 }
  - { offsetInCU: 0x39463, offset: 0x39463, size: 0x8, addend: 0x0, symName: __ZNSt3__119__debug_db_insert_cB7v160006INS_6vectorIN7doctest12_GLOBAL__N_113JUnitReporter17JUnitTestCaseData16JUnitTestMessageENS_9allocatorIS6_EEEEEEvPT_, symObjAddr: 0x34F20, symBinAddr: 0x100039660, symSize: 0x10 }
  - { offsetInCU: 0x39496, offset: 0x39496, size: 0x8, addend: 0x0, symName: __ZNSt3__119__allocate_at_leastB7v160006INS_9allocatorIN7doctest12_GLOBAL__N_113JUnitReporter17JUnitTestCaseData13JUnitTestCaseEEEEENS_19__allocation_resultINS_16allocator_traitsIT_E7pointerEEERSA_m, symObjAddr: 0x35520, symBinAddr: 0x100039C60, symSize: 0x40 }
  - { offsetInCU: 0x394DB, offset: 0x394DB, size: 0x8, addend: 0x0, symName: __ZNSt3__142__uninitialized_allocator_move_if_noexceptB7v160006INS_9allocatorIN7doctest12_GLOBAL__N_113JUnitReporter17JUnitTestCaseData13JUnitTestCaseEEENS_16reverse_iteratorIPS6_EESA_SA_EET2_RT_T0_T1_SB_, symObjAddr: 0x35760, symBinAddr: 0x100039EA0, symSize: 0x180 }
  - { offsetInCU: 0x3957B, offset: 0x3957B, size: 0x8, addend: 0x0, symName: __ZNSt3__14swapB7v160006IPN7doctest12_GLOBAL__N_113JUnitReporter17JUnitTestCaseData13JUnitTestCaseEEENS_9enable_ifIXaasr21is_move_constructibleIT_EE5valuesr18is_move_assignableIS8_EE5valueEvE4typeERS8_SB_, symObjAddr: 0x35930, symBinAddr: 0x10003A070, symSize: 0x40 }
  - { offsetInCU: 0x395D0, offset: 0x395D0, size: 0x8, addend: 0x0, symName: __ZNSt3__125__debug_db_invalidate_allB7v160006INS_6vectorIN7doctest12_GLOBAL__N_113JUnitReporter17JUnitTestCaseData13JUnitTestCaseENS_9allocatorIS6_EEEEEEvPT_, symObjAddr: 0x35A10, symBinAddr: 0x10003A150, symSize: 0x10 }
  - { offsetInCU: 0x39603, offset: 0x39603, size: 0x8, addend: 0x0, symName: __ZNSt3__122__make_exception_guardB7v160006INS_29_AllocatorDestroyRangeReverseINS_9allocatorIN7doctest12_GLOBAL__N_113JUnitReporter17JUnitTestCaseData13JUnitTestCaseEEENS_16reverse_iteratorIPS7_EEEEEENS_28__exception_guard_exceptionsIT_EESE_, symObjAddr: 0x35A60, symBinAddr: 0x10003A1A0, symSize: 0x60 }
  - { offsetInCU: 0x3963A, offset: 0x3963A, size: 0x8, addend: 0x0, symName: __ZNSt3__1neB7v160006IPN7doctest12_GLOBAL__N_113JUnitReporter17JUnitTestCaseData13JUnitTestCaseES6_EEbRKNS_16reverse_iteratorIT_EERKNS7_IT0_EE, symObjAddr: 0x35B00, symBinAddr: 0x10003A240, symSize: 0x40 }
  - { offsetInCU: 0x39689, offset: 0x39689, size: 0x8, addend: 0x0, symName: __ZNSt3__112__to_addressB7v160006INS_16reverse_iteratorIPN7doctest12_GLOBAL__N_113JUnitReporter17JUnitTestCaseData13JUnitTestCaseEEEvEENS_5decayIDTclsr19__to_address_helperIT_EE6__callclsr3stdE7declvalIRKSA_EEEEE4typeESC_, symObjAddr: 0x35B70, symBinAddr: 0x10003A2B0, symSize: 0x20 }
  - { offsetInCU: 0x396C1, offset: 0x396C1, size: 0x8, addend: 0x0, symName: __ZNSt3__115__debug_db_swapB7v160006INS_6vectorIN7doctest12_GLOBAL__N_113JUnitReporter17JUnitTestCaseData16JUnitTestMessageENS_9allocatorIS6_EEEEEEvPT_SB_, symObjAddr: 0x35F10, symBinAddr: 0x10003A650, symSize: 0x10 }
  - { offsetInCU: 0x3972D, offset: 0x3972D, size: 0x8, addend: 0x0, symName: __ZNSt3__119__allocator_destroyB7v160006INS_9allocatorIN7doctest12_GLOBAL__N_113JUnitReporter17JUnitTestCaseData13JUnitTestCaseEEENS_16reverse_iteratorINS8_IPS6_EEEESB_EEvRT_T0_T1_, symObjAddr: 0x36180, symBinAddr: 0x10003A8C0, symSize: 0x70 }
  - { offsetInCU: 0x39791, offset: 0x39791, size: 0x8, addend: 0x0, symName: __ZNSt3__1neB7v160006INS_16reverse_iteratorIPN7doctest12_GLOBAL__N_113JUnitReporter17JUnitTestCaseData13JUnitTestCaseEEES8_EEbRKNS1_IT_EERKNS1_IT0_EE, symObjAddr: 0x36220, symBinAddr: 0x10003A960, symSize: 0x50 }
  - { offsetInCU: 0x397E0, offset: 0x397E0, size: 0x8, addend: 0x0, symName: __ZNSt3__112__to_addressB7v160006INS_16reverse_iteratorINS1_IPN7doctest12_GLOBAL__N_113JUnitReporter17JUnitTestCaseData13JUnitTestCaseEEEEEvEENS_5decayIDTclsr19__to_address_helperIT_EE6__callclsr3stdE7declvalIRKSB_EEEEE4typeESD_, symObjAddr: 0x362A0, symBinAddr: 0x10003A9E0, symSize: 0x20 }
  - { offsetInCU: 0x39818, offset: 0x39818, size: 0x8, addend: 0x0, symName: __ZNSt3__118__debug_db_erase_cB7v160006INS_6vectorIN7doctest12_GLOBAL__N_113JUnitReporter17JUnitTestCaseData16JUnitTestMessageENS_9allocatorIS6_EEEEEEvPT_, symObjAddr: 0x36590, symBinAddr: 0x10003ACD0, symSize: 0x10 }
  - { offsetInCU: 0x3984B, offset: 0x3984B, size: 0x8, addend: 0x0, symName: __ZNSt3__112__to_addressB7v160006IN7doctest12_GLOBAL__N_113JUnitReporter17JUnitTestCaseData16JUnitTestMessageEEEPT_S7_, symObjAddr: 0x366A0, symBinAddr: 0x10003ADE0, symSize: 0x10 }
  - { offsetInCU: 0x398AD, offset: 0x398AD, size: 0x8, addend: 0x0, symName: __ZNSt3__1neB7v160006IPN7doctest6StringEEEbRKNS_11__wrap_iterIT_EES8_, symObjAddr: 0x36E20, symBinAddr: 0x10003B560, symSize: 0x30 }
  - { offsetInCU: 0x398F2, offset: 0x398F2, size: 0x8, addend: 0x0, symName: __ZNSt3__1plB7v160006IcNS_11char_traitsIcEENS_9allocatorIcEEEENS_12basic_stringIT_T0_T1_EEOS9_PKS6_, symObjAddr: 0x36E70, symBinAddr: 0x10003B5B0, symSize: 0x50 }
  - { offsetInCU: 0x3994B, offset: 0x3994B, size: 0x8, addend: 0x0, symName: __ZNSt3__1eqB7v160006IPN7doctest6StringEEEbRKNS_11__wrap_iterIT_EES8_, symObjAddr: 0x36F90, symBinAddr: 0x10003B6D0, symSize: 0x40 }
  - { offsetInCU: 0x39991, offset: 0x39991, size: 0x8, addend: 0x0, symName: __ZNSt3__122__make_exception_guardB7v160006INS_6vectorIN7doctest6StringENS_9allocatorIS3_EEE16__destroy_vectorEEENS_28__exception_guard_exceptionsIT_EES9_, symObjAddr: 0x37190, symBinAddr: 0x10003B8D0, symSize: 0x40 }
  - { offsetInCU: 0x399C7, offset: 0x399C7, size: 0x8, addend: 0x0, symName: __ZNSt3__130__uninitialized_allocator_copyB7v160006INS_9allocatorIN7doctest6StringEEEPS3_S5_S5_EET2_RT_T0_T1_S6_, symObjAddr: 0x373E0, symBinAddr: 0x10003BB20, symSize: 0x100 }
  - { offsetInCU: 0x39A66, offset: 0x39A66, size: 0x8, addend: 0x0, symName: __ZNSt3__122__make_exception_guardB7v160006INS_29_AllocatorDestroyRangeReverseINS_9allocatorIN7doctest6StringEEEPS4_EEEENS_28__exception_guard_exceptionsIT_EES9_, symObjAddr: 0x374E0, symBinAddr: 0x10003BC20, symSize: 0x60 }
  - { offsetInCU: 0x39A9C, offset: 0x39A9C, size: 0x8, addend: 0x0, symName: __ZNSt3__119__allocator_destroyB7v160006INS_9allocatorIN7doctest6StringEEENS_16reverse_iteratorIPS3_EES7_EEvRT_T0_T1_, symObjAddr: 0x37770, symBinAddr: 0x10003BEB0, symSize: 0x70 }
  - { offsetInCU: 0x39B00, offset: 0x39B00, size: 0x8, addend: 0x0, symName: __ZNSt3__119__allocate_at_leastB7v160006INS_9allocatorIN7doctest12_GLOBAL__N_113JUnitReporter17JUnitTestCaseData16JUnitTestMessageEEEEENS_19__allocation_resultINS_16allocator_traitsIT_E7pointerEEERSA_m, symObjAddr: 0x38080, symBinAddr: 0x10003C7C0, symSize: 0x40 }
  - { offsetInCU: 0x39B45, offset: 0x39B45, size: 0x8, addend: 0x0, symName: __ZNSt3__142__uninitialized_allocator_move_if_noexceptB7v160006INS_9allocatorIN7doctest12_GLOBAL__N_113JUnitReporter17JUnitTestCaseData16JUnitTestMessageEEENS_16reverse_iteratorIPS6_EESA_SA_EET2_RT_T0_T1_SB_, symObjAddr: 0x38210, symBinAddr: 0x10003C950, symSize: 0x180 }
  - { offsetInCU: 0x39BE5, offset: 0x39BE5, size: 0x8, addend: 0x0, symName: __ZNSt3__14swapB7v160006IPN7doctest12_GLOBAL__N_113JUnitReporter17JUnitTestCaseData16JUnitTestMessageEEENS_9enable_ifIXaasr21is_move_constructibleIT_EE5valuesr18is_move_assignableIS8_EE5valueEvE4typeERS8_SB_, symObjAddr: 0x383E0, symBinAddr: 0x10003CB20, symSize: 0x40 }
  - { offsetInCU: 0x39C3A, offset: 0x39C3A, size: 0x8, addend: 0x0, symName: __ZNSt3__125__debug_db_invalidate_allB7v160006INS_6vectorIN7doctest12_GLOBAL__N_113JUnitReporter17JUnitTestCaseData16JUnitTestMessageENS_9allocatorIS6_EEEEEEvPT_, symObjAddr: 0x384C0, symBinAddr: 0x10003CC00, symSize: 0x10 }
  - { offsetInCU: 0x39C6D, offset: 0x39C6D, size: 0x8, addend: 0x0, symName: __ZNSt3__122__make_exception_guardB7v160006INS_29_AllocatorDestroyRangeReverseINS_9allocatorIN7doctest12_GLOBAL__N_113JUnitReporter17JUnitTestCaseData16JUnitTestMessageEEENS_16reverse_iteratorIPS7_EEEEEENS_28__exception_guard_exceptionsIT_EESE_, symObjAddr: 0x384D0, symBinAddr: 0x10003CC10, symSize: 0x60 }
  - { offsetInCU: 0x39CA4, offset: 0x39CA4, size: 0x8, addend: 0x0, symName: __ZNSt3__1neB7v160006IPN7doctest12_GLOBAL__N_113JUnitReporter17JUnitTestCaseData16JUnitTestMessageES6_EEbRKNS_16reverse_iteratorIT_EERKNS7_IT0_EE, symObjAddr: 0x38570, symBinAddr: 0x10003CCB0, symSize: 0x40 }
  - { offsetInCU: 0x39CF3, offset: 0x39CF3, size: 0x8, addend: 0x0, symName: __ZNSt3__112__to_addressB7v160006INS_16reverse_iteratorIPN7doctest12_GLOBAL__N_113JUnitReporter17JUnitTestCaseData16JUnitTestMessageEEEvEENS_5decayIDTclsr19__to_address_helperIT_EE6__callclsr3stdE7declvalIRKSA_EEEEE4typeESC_, symObjAddr: 0x385E0, symBinAddr: 0x10003CD20, symSize: 0x20 }
  - { offsetInCU: 0x39D55, offset: 0x39D55, size: 0x8, addend: 0x0, symName: __ZNSt3__119__allocator_destroyB7v160006INS_9allocatorIN7doctest12_GLOBAL__N_113JUnitReporter17JUnitTestCaseData16JUnitTestMessageEEENS_16reverse_iteratorINS8_IPS6_EEEESB_EEvRT_T0_T1_, symObjAddr: 0x38990, symBinAddr: 0x10003D0D0, symSize: 0x70 }
  - { offsetInCU: 0x39DB9, offset: 0x39DB9, size: 0x8, addend: 0x0, symName: __ZNSt3__1neB7v160006INS_16reverse_iteratorIPN7doctest12_GLOBAL__N_113JUnitReporter17JUnitTestCaseData16JUnitTestMessageEEES8_EEbRKNS1_IT_EERKNS1_IT0_EE, symObjAddr: 0x38A30, symBinAddr: 0x10003D170, symSize: 0x50 }
  - { offsetInCU: 0x39E08, offset: 0x39E08, size: 0x8, addend: 0x0, symName: __ZNSt3__112__to_addressB7v160006INS_16reverse_iteratorINS1_IPN7doctest12_GLOBAL__N_113JUnitReporter17JUnitTestCaseData16JUnitTestMessageEEEEEvEENS_5decayIDTclsr19__to_address_helperIT_EE6__callclsr3stdE7declvalIRKSB_EEEEE4typeESD_, symObjAddr: 0x38A80, symBinAddr: 0x10003D1C0, symSize: 0x20 }
  - { offsetInCU: 0x39E6B, offset: 0x39E6B, size: 0x8, addend: 0x0, symName: __ZNSt3__118__debug_db_erase_cB7v160006INS_6vectorIN7doctest12_GLOBAL__N_113JUnitReporter17JUnitTestCaseData13JUnitTestCaseENS_9allocatorIS6_EEEEEEvPT_, symObjAddr: 0x39C80, symBinAddr: 0x10003E3C0, symSize: 0x10 }
  - { offsetInCU: 0x39E9D, offset: 0x39E9D, size: 0x8, addend: 0x0, symName: __ZNSt3__1neB7v160006ERKNS_20__map_const_iteratorINS_21__tree_const_iteratorINS_12__value_typeINS_4pairIiN7doctest6StringEEEPFPNS4_9IReporterERKNS4_14ContextOptionsEEEEPNS_11__tree_nodeISE_PvEElEEEESM_, symObjAddr: 0x3C6B0, symBinAddr: 0x100040DF0, symSize: 0x30 }
  - { offsetInCU: 0x39EDA, offset: 0x39EDA, size: 0x8, addend: 0x0, symName: __ZNSt3__1neB7v160006ERKNS_21__tree_const_iteratorINS_12__value_typeINS_4pairIiN7doctest6StringEEEPFPNS3_9IReporterERKNS3_14ContextOptionsEEEEPNS_11__tree_nodeISD_PvEElEESK_, symObjAddr: 0x3C890, symBinAddr: 0x100040FD0, symSize: 0x30 }
  - { offsetInCU: 0x39F17, offset: 0x39F17, size: 0x8, addend: 0x0, symName: __ZNSt3__1eqB7v160006ERKNS_21__tree_const_iteratorINS_12__value_typeINS_4pairIiN7doctest6StringEEEPFPNS3_9IReporterERKNS3_14ContextOptionsEEEEPNS_11__tree_nodeISD_PvEElEESK_, symObjAddr: 0x3C8C0, symBinAddr: 0x100041000, symSize: 0x30 }
  - { offsetInCU: 0x39F87, offset: 0x39F87, size: 0x8, addend: 0x0, symName: __ZNSt3__17launderB7v160006IKNS_4pairIKNS1_IiN7doctest6StringEEEPFPNS2_9IReporterERKNS2_14ContextOptionsEEEEEEPT_SG_, symObjAddr: 0x3C970, symBinAddr: 0x1000410B0, symSize: 0x20 }
  - { offsetInCU: 0x39FBE, offset: 0x39FBE, size: 0x8, addend: 0x0, symName: __ZNSt3__19__launderB7v160006IKNS_4pairIKNS1_IiN7doctest6StringEEEPFPNS2_9IReporterERKNS2_14ContextOptionsEEEEEEPT_SG_, symObjAddr: 0x3C990, symBinAddr: 0x1000410D0, symSize: 0x10 }
  - { offsetInCU: 0x39FF5, offset: 0x39FF5, size: 0x8, addend: 0x0, symName: __ZNSt3__13decB7v160006ERNS_8ios_baseE, symObjAddr: 0x3CA50, symBinAddr: 0x100041190, symSize: 0x30 }
  - { offsetInCU: 0x3A024, offset: 0x3A024, size: 0x8, addend: 0x0, symName: __ZNSt3__13maxB7v160006IjEERKT_S3_S3_, symObjAddr: 0x3CA80, symBinAddr: 0x1000411C0, symSize: 0x30 }
  - { offsetInCU: 0x3A06A, offset: 0x3A06A, size: 0x8, addend: 0x0, symName: __ZNSt3__13maxB7v160006IjNS_6__lessIjjEEEERKT_S5_S5_T0_, symObjAddr: 0x3CAB0, symBinAddr: 0x1000411F0, symSize: 0x50 }
  - { offsetInCU: 0x3A0C8, offset: 0x3A0C8, size: 0x8, addend: 0x0, symName: __ZNSt3__1lsB7v160006IcNS_11char_traitsIcEEEERNS_13basic_ostreamIT_T0_EES7_RKNS_8__iom_t5E, symObjAddr: 0x3CE90, symBinAddr: 0x1000415D0, symSize: 0x40 }
  - { offsetInCU: 0x3A117, offset: 0x3A117, size: 0x8, addend: 0x0, symName: __ZNSt3__112setprecisionB7v160006Ei, symObjAddr: 0x3CED0, symBinAddr: 0x100041610, symSize: 0x20 }
  - { offsetInCU: 0x3A144, offset: 0x3A144, size: 0x8, addend: 0x0, symName: __ZNSt3__15fixedB7v160006ERNS_8ios_baseE, symObjAddr: 0x3CEF0, symBinAddr: 0x100041630, symSize: 0x30 }
  - { offsetInCU: 0x3A173, offset: 0x3A173, size: 0x8, addend: 0x0, symName: __ZNSt3__119__allocate_at_leastB7v160006INS_9allocatorIPN7doctest9IReporterEEEEENS_19__allocation_resultINS_16allocator_traitsIT_E7pointerEEERS8_m, symObjAddr: 0x3D9B0, symBinAddr: 0x1000420F0, symSize: 0x40 }
  - { offsetInCU: 0x3A1B8, offset: 0x3A1B8, size: 0x8, addend: 0x0, symName: __ZNSt3__142__uninitialized_allocator_move_if_noexceptB7v160006INS_9allocatorIPN7doctest9IReporterEEENS_16reverse_iteratorIPS4_EES8_S4_vEET1_RT_T0_SC_S9_, symObjAddr: 0x3DB40, symBinAddr: 0x100042280, symSize: 0x70 }
  - { offsetInCU: 0x3A235, offset: 0x3A235, size: 0x8, addend: 0x0, symName: __ZNSt3__14swapB7v160006IPPN7doctest9IReporterEEENS_9enable_ifIXaasr21is_move_constructibleIT_EE5valuesr18is_move_assignableIS6_EE5valueEvE4typeERS6_S9_, symObjAddr: 0x3DC00, symBinAddr: 0x100042340, symSize: 0x40 }
  - { offsetInCU: 0x3A28A, offset: 0x3A28A, size: 0x8, addend: 0x0, symName: __ZNSt3__14moveB7v160006INS_16reverse_iteratorIPPN7doctest9IReporterEEES6_EET0_T_S8_S7_, symObjAddr: 0x3DCF0, symBinAddr: 0x100042430, symSize: 0x80 }
  - { offsetInCU: 0x3A2E8, offset: 0x3A2E8, size: 0x8, addend: 0x0, symName: __ZNSt3__16__moveB7v160006INS_17_ClassicAlgPolicyENS_16reverse_iteratorIPPN7doctest9IReporterEEES7_S7_EENS_4pairIT0_T2_EES9_T1_SA_, symObjAddr: 0x3DD70, symBinAddr: 0x1000424B0, symSize: 0x90 }
  - { offsetInCU: 0x3A358, offset: 0x3A358, size: 0x8, addend: 0x0, symName: __ZNSt3__123__dispatch_copy_or_moveB7v160006INS_17_ClassicAlgPolicyENS_11__move_loopIS1_EENS_14__move_trivialENS_16reverse_iteratorIPPN7doctest9IReporterEEESA_SA_EENS_4pairIT2_T4_EESC_T3_SD_, symObjAddr: 0x3DE00, symBinAddr: 0x100042540, symSize: 0x90 }
  - { offsetInCU: 0x3A3DA, offset: 0x3A3DA, size: 0x8, addend: 0x0, symName: __ZNSt3__121__unwrap_and_dispatchB7v160006INS_10__overloadINS_11__move_loopINS_17_ClassicAlgPolicyEEENS_14__move_trivialEEENS_16reverse_iteratorIPPN7doctest9IReporterEEESC_SC_Li0EEENS_4pairIT0_T2_EESE_T1_SF_, symObjAddr: 0x3DE90, symBinAddr: 0x1000425D0, symSize: 0x210 }
  - { offsetInCU: 0x3A470, offset: 0x3A470, size: 0x8, addend: 0x0, symName: __ZNSt3__114__unwrap_rangeB7v160006INS_16reverse_iteratorIPPN7doctest9IReporterEEES6_EENS_4pairIT0_S8_EET_SA_, symObjAddr: 0x3E0A0, symBinAddr: 0x1000427E0, symSize: 0x90 }
  - { offsetInCU: 0x3A593, offset: 0x3A593, size: 0x8, addend: 0x0, symName: __ZNSt3__113__unwrap_iterB7v160006INS_16reverse_iteratorIPPN7doctest9IReporterEEENS_18__unwrap_iter_implIS6_Lb0EEELi0EEEDTclsrT0_8__unwrapclsr3stdE7declvalIT_EEEESA_, symObjAddr: 0x3E1D0, symBinAddr: 0x100042910, symSize: 0x40 }
  - { offsetInCU: 0x3A5D9, offset: 0x3A5D9, size: 0x8, addend: 0x0, symName: __ZNSt3__19make_pairB7v160006INS_16reverse_iteratorIPPN7doctest9IReporterEEES6_EENS_4pairINS_18__unwrap_ref_decayIT_E4typeENS8_IT0_E4typeEEEOS9_OSC_, symObjAddr: 0x3E210, symBinAddr: 0x100042950, symSize: 0x30 }
  - { offsetInCU: 0x3A629, offset: 0x3A629, size: 0x8, addend: 0x0, symName: __ZNSt3__114__rewrap_rangeB7v160006INS_16reverse_iteratorIPPN7doctest9IReporterEEES6_EET_S7_T0_, symObjAddr: 0x3E240, symBinAddr: 0x100042980, symSize: 0x60 }
  - { offsetInCU: 0x3A678, offset: 0x3A678, size: 0x8, addend: 0x0, symName: __ZNSt3__113__rewrap_iterB7v160006INS_16reverse_iteratorIPPN7doctest9IReporterEEES6_NS_18__unwrap_iter_implIS6_Lb0EEEEET_S9_T0_, symObjAddr: 0x3E2A0, symBinAddr: 0x1000429E0, symSize: 0x70 }
  - { offsetInCU: 0x3A6D0, offset: 0x3A6D0, size: 0x8, addend: 0x0, symName: __ZNSt3__1neB7v160006IPPN7doctest9IReporterES4_EEbRKNS_16reverse_iteratorIT_EERKNS5_IT0_EE, symObjAddr: 0x3E310, symBinAddr: 0x100042A50, symSize: 0x40 }
  - { offsetInCU: 0x3A78B, offset: 0x3A78B, size: 0x8, addend: 0x0, symName: __ZNSt3__1miB7v160006IPKPN7doctest9IReporterEPS3_EEDTmicldtfp_4baseEcldtfp0_4baseEERKNS_11__wrap_iterIT_EERKNS8_IT0_EE, symObjAddr: 0x3E670, symBinAddr: 0x100042DB0, symSize: 0x40 }
  - { offsetInCU: 0x3A7DA, offset: 0x3A7DA, size: 0x8, addend: 0x0, symName: __ZNSt3__113move_backwardB7v160006IPPN7doctest9IReporterES4_EET0_T_S6_S5_, symObjAddr: 0x3EC00, symBinAddr: 0x100043340, symSize: 0x40 }
  - { offsetInCU: 0x3A838, offset: 0x3A838, size: 0x8, addend: 0x0, symName: __ZNSt3__115__move_backwardB7v160006INS_17_ClassicAlgPolicyEPPN7doctest9IReporterES5_S5_EENS_4pairIT0_T2_EES7_T1_S8_, symObjAddr: 0x3EC40, symBinAddr: 0x100043380, symSize: 0x40 }
  - { offsetInCU: 0x3A8A8, offset: 0x3A8A8, size: 0x8, addend: 0x0, symName: __ZNSt3__123__dispatch_copy_or_moveB7v160006INS_17_ClassicAlgPolicyENS_20__move_backward_loopIS1_EENS_23__move_backward_trivialEPPN7doctest9IReporterES8_S8_EENS_4pairIT2_T4_EESA_T3_SB_, symObjAddr: 0x3EC80, symBinAddr: 0x1000433C0, symSize: 0x40 }
  - { offsetInCU: 0x3A92A, offset: 0x3A92A, size: 0x8, addend: 0x0, symName: __ZNSt3__121__unwrap_and_dispatchB7v160006INS_10__overloadINS_20__move_backward_loopINS_17_ClassicAlgPolicyEEENS_23__move_backward_trivialEEEPPN7doctest9IReporterESA_SA_Li0EEENS_4pairIT0_T2_EESC_T1_SD_, symObjAddr: 0x3ECC0, symBinAddr: 0x100043400, symSize: 0xB0 }
  - { offsetInCU: 0x3A9C0, offset: 0x3A9C0, size: 0x8, addend: 0x0, symName: __ZNSt3__114__unwrap_rangeB7v160006IPPN7doctest9IReporterES4_EENS_4pairIT0_S6_EET_S8_, symObjAddr: 0x3ED70, symBinAddr: 0x1000434B0, symSize: 0x50 }
  - { offsetInCU: 0x3AB88, offset: 0x3AB88, size: 0x8, addend: 0x0, symName: __ZNSt3__113__unwrap_iterB7v160006IPPN7doctest9IReporterENS_18__unwrap_iter_implIS4_Lb1EEELi0EEEDTclsrT0_8__unwrapclsr3stdE7declvalIT_EEEES8_, symObjAddr: 0x3EE00, symBinAddr: 0x100043540, symSize: 0x20 }
  - { offsetInCU: 0x3ABCE, offset: 0x3ABCE, size: 0x8, addend: 0x0, symName: __ZNSt3__19make_pairB7v160006IPPN7doctest9IReporterES4_EENS_4pairINS_18__unwrap_ref_decayIT_E4typeENS6_IT0_E4typeEEEOS7_OSA_, symObjAddr: 0x3EE20, symBinAddr: 0x100043560, symSize: 0x30 }
  - { offsetInCU: 0x3AC1E, offset: 0x3AC1E, size: 0x8, addend: 0x0, symName: __ZNSt3__114__rewrap_rangeB7v160006IPPN7doctest9IReporterES4_EET_S5_T0_, symObjAddr: 0x3EE50, symBinAddr: 0x100043590, symSize: 0x30 }
  - { offsetInCU: 0x3AC6D, offset: 0x3AC6D, size: 0x8, addend: 0x0, symName: __ZNSt3__113__rewrap_iterB7v160006IPPN7doctest9IReporterES4_NS_18__unwrap_iter_implIS4_Lb1EEEEET_S7_T0_, symObjAddr: 0x3EE80, symBinAddr: 0x1000435C0, symSize: 0x40 }
  - { offsetInCU: 0x3ACC5, offset: 0x3ACC5, size: 0x8, addend: 0x0, symName: __ZNSt3__128__copy_backward_trivial_implB7v160006IPN7doctest9IReporterES3_EENS_4pairIPT_PT0_EES6_S6_S8_, symObjAddr: 0x3EEC0, symBinAddr: 0x100043600, symSize: 0x80 }
  - { offsetInCU: 0x3AD31, offset: 0x3AD31, size: 0x8, addend: 0x0, symName: __ZNSt3__19make_pairB7v160006IRPPN7doctest9IReporterES5_EENS_4pairINS_18__unwrap_ref_decayIT_E4typeENS7_IT0_E4typeEEEOS8_OSB_, symObjAddr: 0x3EF40, symBinAddr: 0x100043680, symSize: 0x30 }
  - { offsetInCU: 0x3ADD4, offset: 0x3ADD4, size: 0x8, addend: 0x0, symName: __ZNSt3__14moveB7v160006IPPN7doctest9IReporterES4_EET0_T_S6_S5_, symObjAddr: 0x3F0A0, symBinAddr: 0x1000437E0, symSize: 0x40 }
  - { offsetInCU: 0x3AE32, offset: 0x3AE32, size: 0x8, addend: 0x0, symName: __ZNSt3__16__moveB7v160006INS_17_ClassicAlgPolicyEPPN7doctest9IReporterES5_S5_EENS_4pairIT0_T2_EES7_T1_S8_, symObjAddr: 0x3F210, symBinAddr: 0x100043950, symSize: 0x40 }
  - { offsetInCU: 0x3AEA2, offset: 0x3AEA2, size: 0x8, addend: 0x0, symName: __ZNSt3__123__dispatch_copy_or_moveB7v160006INS_17_ClassicAlgPolicyENS_11__move_loopIS1_EENS_14__move_trivialEPPN7doctest9IReporterES8_S8_EENS_4pairIT2_T4_EESA_T3_SB_, symObjAddr: 0x3F250, symBinAddr: 0x100043990, symSize: 0x40 }
  - { offsetInCU: 0x3AF24, offset: 0x3AF24, size: 0x8, addend: 0x0, symName: __ZNSt3__121__unwrap_and_dispatchB7v160006INS_10__overloadINS_11__move_loopINS_17_ClassicAlgPolicyEEENS_14__move_trivialEEEPPN7doctest9IReporterESA_SA_Li0EEENS_4pairIT0_T2_EESC_T1_SD_, symObjAddr: 0x3F290, symBinAddr: 0x1000439D0, symSize: 0xB0 }
  - { offsetInCU: 0x3B001, offset: 0x3B001, size: 0x8, addend: 0x0, symName: __ZNSt3__119__copy_trivial_implB7v160006IPN7doctest9IReporterES3_EENS_4pairIPT_PT0_EES6_S6_S8_, symObjAddr: 0x3F380, symBinAddr: 0x100043AC0, symSize: 0x70 }
  - { offsetInCU: 0x3B06D, offset: 0x3B06D, size: 0x8, addend: 0x0, symName: __ZNSt3__19make_pairB7v160006IRPPN7doctest9IReporterES4_EENS_4pairINS_18__unwrap_ref_decayIT_E4typeENS7_IT0_E4typeEEEOS8_OSB_, symObjAddr: 0x3F3F0, symBinAddr: 0x100043B30, symSize: 0x30 }
  - { offsetInCU: 0x3B0BD, offset: 0x3B0BD, size: 0x8, addend: 0x0, symName: __ZNSt3__18distanceB7v160006INS_13move_iteratorIPPN7doctest9IReporterEEEEENS_15iterator_traitsIT_E15difference_typeES8_S8_, symObjAddr: 0x3F480, symBinAddr: 0x100043BC0, symSize: 0x40 }
  - { offsetInCU: 0x3B103, offset: 0x3B103, size: 0x8, addend: 0x0, symName: __ZNSt3__110__distanceB7v160006INS_13move_iteratorIPPN7doctest9IReporterEEEEENS_15iterator_traitsIT_E15difference_typeES8_S8_NS_26random_access_iterator_tagE, symObjAddr: 0x3F550, symBinAddr: 0x100043C90, symSize: 0x30 }
  - { offsetInCU: 0x3B153, offset: 0x3B153, size: 0x8, addend: 0x0, symName: __ZNSt3__1miB7v160006IPPN7doctest9IReporterES4_EEDTmicldtfp_4baseEcldtfp0_4baseEERKNS_13move_iteratorIT_EERKNS6_IT0_EE, symObjAddr: 0x3F580, symBinAddr: 0x100043CC0, symSize: 0x40 }
  - { offsetInCU: 0x3B1A2, offset: 0x3B1A2, size: 0x8, addend: 0x0, symName: __ZNSt3__142__uninitialized_allocator_move_if_noexceptB7v160006INS_9allocatorIPN7doctest9IReporterEEEPS4_S6_S4_vEET1_RT_T0_SA_S7_, symObjAddr: 0x3F660, symBinAddr: 0x100043DA0, symSize: 0x30 }
  - { offsetInCU: 0x3B21F, offset: 0x3B21F, size: 0x8, addend: 0x0, symName: __ZNSt3__119__debug_db_insert_cB7v160006INS_6vectorIPKN7doctest6detail8TestCaseENS_9allocatorIS6_EEEEEEvPT_, symObjAddr: 0x3F720, symBinAddr: 0x100043E60, symSize: 0x10 }
  - { offsetInCU: 0x3B252, offset: 0x3B252, size: 0x8, addend: 0x0, symName: __ZNSt3__118__debug_db_erase_cB7v160006INS_6vectorIPKN7doctest6detail8TestCaseENS_9allocatorIS6_EEEEEEvPT_, symObjAddr: 0x3F9B0, symBinAddr: 0x1000440F0, symSize: 0x10 }
  - { offsetInCU: 0x3B285, offset: 0x3B285, size: 0x8, addend: 0x0, symName: __ZNSt3__112__to_addressB7v160006IPKN7doctest6detail8TestCaseEEEPT_S7_, symObjAddr: 0x3FAA0, symBinAddr: 0x1000441E0, symSize: 0x10 }
  - { offsetInCU: 0x3B2BB, offset: 0x3B2BB, size: 0x8, addend: 0x0, symName: __ZNSt3__1eqB7v160006ERKNS_21__tree_const_iteratorIN7doctest6detail8TestCaseEPNS_11__tree_nodeIS3_PvEElEESA_, symObjAddr: 0x3FCE0, symBinAddr: 0x100044420, symSize: 0x30 }
  - { offsetInCU: 0x3B2F9, offset: 0x3B2F9, size: 0x8, addend: 0x0, symName: __ZNSt3__119__allocate_at_leastB7v160006INS_9allocatorIPKN7doctest6detail8TestCaseEEEEENS_19__allocation_resultINS_16allocator_traitsIT_E7pointerEEERSA_m, symObjAddr: 0x40420, symBinAddr: 0x100044B60, symSize: 0x40 }
  - { offsetInCU: 0x3B33E, offset: 0x3B33E, size: 0x8, addend: 0x0, symName: __ZNSt3__142__uninitialized_allocator_move_if_noexceptB7v160006INS_9allocatorIPKN7doctest6detail8TestCaseEEENS_16reverse_iteratorIPS6_EESA_S6_vEET1_RT_T0_SE_SB_, symObjAddr: 0x405B0, symBinAddr: 0x100044CF0, symSize: 0x70 }
  - { offsetInCU: 0x3B3BB, offset: 0x3B3BB, size: 0x8, addend: 0x0, symName: __ZNSt3__14swapB7v160006IPPKN7doctest6detail8TestCaseEEENS_9enable_ifIXaasr21is_move_constructibleIT_EE5valuesr18is_move_assignableIS8_EE5valueEvE4typeERS8_SB_, symObjAddr: 0x40670, symBinAddr: 0x100044DB0, symSize: 0x40 }
  - { offsetInCU: 0x3B410, offset: 0x3B410, size: 0x8, addend: 0x0, symName: __ZNSt3__125__debug_db_invalidate_allB7v160006INS_6vectorIPKN7doctest6detail8TestCaseENS_9allocatorIS6_EEEEEEvPT_, symObjAddr: 0x40760, symBinAddr: 0x100044EA0, symSize: 0x10 }
  - { offsetInCU: 0x3B443, offset: 0x3B443, size: 0x8, addend: 0x0, symName: __ZNSt3__14moveB7v160006INS_16reverse_iteratorIPPKN7doctest6detail8TestCaseEEES8_EET0_T_SA_S9_, symObjAddr: 0x40770, symBinAddr: 0x100044EB0, symSize: 0x80 }
  - { offsetInCU: 0x3B4A1, offset: 0x3B4A1, size: 0x8, addend: 0x0, symName: __ZNSt3__16__moveB7v160006INS_17_ClassicAlgPolicyENS_16reverse_iteratorIPPKN7doctest6detail8TestCaseEEES9_S9_EENS_4pairIT0_T2_EESB_T1_SC_, symObjAddr: 0x407F0, symBinAddr: 0x100044F30, symSize: 0x90 }
  - { offsetInCU: 0x3B511, offset: 0x3B511, size: 0x8, addend: 0x0, symName: __ZNSt3__123__dispatch_copy_or_moveB7v160006INS_17_ClassicAlgPolicyENS_11__move_loopIS1_EENS_14__move_trivialENS_16reverse_iteratorIPPKN7doctest6detail8TestCaseEEESC_SC_EENS_4pairIT2_T4_EESE_T3_SF_, symObjAddr: 0x40880, symBinAddr: 0x100044FC0, symSize: 0x90 }
  - { offsetInCU: 0x3B593, offset: 0x3B593, size: 0x8, addend: 0x0, symName: __ZNSt3__121__unwrap_and_dispatchB7v160006INS_10__overloadINS_11__move_loopINS_17_ClassicAlgPolicyEEENS_14__move_trivialEEENS_16reverse_iteratorIPPKN7doctest6detail8TestCaseEEESE_SE_Li0EEENS_4pairIT0_T2_EESG_T1_SH_, symObjAddr: 0x40910, symBinAddr: 0x100045050, symSize: 0x210 }
  - { offsetInCU: 0x3B629, offset: 0x3B629, size: 0x8, addend: 0x0, symName: __ZNSt3__114__unwrap_rangeB7v160006INS_16reverse_iteratorIPPKN7doctest6detail8TestCaseEEES8_EENS_4pairIT0_SA_EET_SC_, symObjAddr: 0x40B20, symBinAddr: 0x100045260, symSize: 0x90 }
  - { offsetInCU: 0x3B74C, offset: 0x3B74C, size: 0x8, addend: 0x0, symName: __ZNSt3__113__unwrap_iterB7v160006INS_16reverse_iteratorIPPKN7doctest6detail8TestCaseEEENS_18__unwrap_iter_implIS8_Lb0EEELi0EEEDTclsrT0_8__unwrapclsr3stdE7declvalIT_EEEESC_, symObjAddr: 0x40C50, symBinAddr: 0x100045390, symSize: 0x40 }
  - { offsetInCU: 0x3B792, offset: 0x3B792, size: 0x8, addend: 0x0, symName: __ZNSt3__19make_pairB7v160006INS_16reverse_iteratorIPPKN7doctest6detail8TestCaseEEES8_EENS_4pairINS_18__unwrap_ref_decayIT_E4typeENSA_IT0_E4typeEEEOSB_OSE_, symObjAddr: 0x40C90, symBinAddr: 0x1000453D0, symSize: 0x30 }
  - { offsetInCU: 0x3B7E2, offset: 0x3B7E2, size: 0x8, addend: 0x0, symName: __ZNSt3__114__rewrap_rangeB7v160006INS_16reverse_iteratorIPPKN7doctest6detail8TestCaseEEES8_EET_S9_T0_, symObjAddr: 0x40CC0, symBinAddr: 0x100045400, symSize: 0x60 }
  - { offsetInCU: 0x3B831, offset: 0x3B831, size: 0x8, addend: 0x0, symName: __ZNSt3__113__rewrap_iterB7v160006INS_16reverse_iteratorIPPKN7doctest6detail8TestCaseEEES8_NS_18__unwrap_iter_implIS8_Lb0EEEEET_SB_T0_, symObjAddr: 0x40D20, symBinAddr: 0x100045460, symSize: 0x70 }
  - { offsetInCU: 0x3B889, offset: 0x3B889, size: 0x8, addend: 0x0, symName: __ZNSt3__1neB7v160006IPPKN7doctest6detail8TestCaseES6_EEbRKNS_16reverse_iteratorIT_EERKNS7_IT0_EE, symObjAddr: 0x40D90, symBinAddr: 0x1000454D0, symSize: 0x40 }
  - { offsetInCU: 0x3B943, offset: 0x3B943, size: 0x8, addend: 0x0, symName: __ZNSt3__111__sort_implB7v160006INS_17_ClassicAlgPolicyENS_11__wrap_iterIPPKN7doctest6detail8TestCaseEEEPFbS7_S7_EEEvT0_SC_RT1_, symObjAddr: 0x41170, symBinAddr: 0x1000458B0, symSize: 0x80 }
  - { offsetInCU: 0x3B9EB, offset: 0x3B9EB, size: 0x8, addend: 0x0, symName: __ZNSt3__123__debug_randomize_rangeB7v160006INS_17_ClassicAlgPolicyENS_11__wrap_iterIPPKN7doctest6detail8TestCaseEEES9_EEvT0_T1_, symObjAddr: 0x411F0, symBinAddr: 0x100045930, symSize: 0x10 }
  - { offsetInCU: 0x3BA3E, offset: 0x3BA3E, size: 0x8, addend: 0x0, symName: __ZNSt3__16__sortIRPFbPKN7doctest6detail8TestCaseES5_EPS5_EEvT0_SA_T_, symObjAddr: 0x41200, symBinAddr: 0x100045940, symSize: 0x60 }
  - { offsetInCU: 0x3BACF, offset: 0x3BACF, size: 0x8, addend: 0x0, symName: __ZNSt3__113__unwrap_iterB7v160006INS_11__wrap_iterIPPKN7doctest6detail8TestCaseEEENS_18__unwrap_iter_implIS8_Lb1EEELi0EEEDTclsrT0_8__unwrapclsr3stdE7declvalIT_EEEESC_, symObjAddr: 0x41260, symBinAddr: 0x1000459A0, symSize: 0x30 }
  - { offsetInCU: 0x3BB15, offset: 0x3BB15, size: 0x8, addend: 0x0, symName: __ZNSt3__17__log2iB7v160006IlEET_S1_, symObjAddr: 0x41290, symBinAddr: 0x1000459D0, symSize: 0x50 }
  - { offsetInCU: 0x3BB80, offset: 0x3BB80, size: 0x8, addend: 0x0, symName: __ZNSt3__124__sort3_maybe_branchlessB7v160006INS_17_ClassicAlgPolicyERPFbPKN7doctest6detail8TestCaseES6_EPS6_EENS_9enable_ifIXntsr21__use_branchless_sortIT0_T1_EE5valueEvE4typeESD_SD_SD_SC_, symObjAddr: 0x41A00, symBinAddr: 0x100046140, symSize: 0x40 }
  - { offsetInCU: 0x3BBF5, offset: 0x3BBF5, size: 0x8, addend: 0x0, symName: __ZNSt3__124__sort4_maybe_branchlessB7v160006INS_17_ClassicAlgPolicyERPFbPKN7doctest6detail8TestCaseES6_EPS6_EENS_9enable_ifIXntsr21__use_branchless_sortIT0_T1_EE5valueEvE4typeESD_SD_SD_SD_SC_, symObjAddr: 0x41A40, symBinAddr: 0x100046180, symSize: 0x40 }
  - { offsetInCU: 0x3BC7A, offset: 0x3BC7A, size: 0x8, addend: 0x0, symName: __ZNSt3__124__sort5_maybe_branchlessB7v160006INS_17_ClassicAlgPolicyERPFbPKN7doctest6detail8TestCaseES6_EPS6_EENS_9enable_ifIXntsr21__use_branchless_sortIT0_T1_EE5valueEvE4typeESD_SD_SD_SD_SD_SC_, symObjAddr: 0x41A80, symBinAddr: 0x1000461C0, symSize: 0x50 }
  - { offsetInCU: 0x3BD0F, offset: 0x3BD0F, size: 0x8, addend: 0x0, symName: __ZNSt3__114__partial_sortB7v160006INS_17_ClassicAlgPolicyERPFbPKN7doctest6detail8TestCaseES6_EPS6_SA_EET1_SB_SB_T2_RT0_, symObjAddr: 0x41BF0, symBinAddr: 0x100046330, symSize: 0x90 }
  - { offsetInCU: 0x3BD9D, offset: 0x3BD9D, size: 0x8, addend: 0x0, symName: __ZNSt3__119__sort5_wrap_policyB7v160006INS_17_ClassicAlgPolicyERPFbPKN7doctest6detail8TestCaseES6_EPS6_EEjT1_SB_SB_SB_SB_T0_, symObjAddr: 0x41C80, symBinAddr: 0x1000463C0, symSize: 0x50 }
  - { offsetInCU: 0x3BE4B, offset: 0x3BE4B, size: 0x8, addend: 0x0, symName: __ZNSt3__17__sort3B7v160006INS_17_ClassicAlgPolicyERPFbPKN7doctest6detail8TestCaseES6_EPS6_EEjT1_SB_SB_T0_, symObjAddr: 0x41CD0, symBinAddr: 0x100046410, symSize: 0x160 }
  - { offsetInCU: 0x3BED0, offset: 0x3BED0, size: 0x8, addend: 0x0, symName: __ZNSt3__19iter_swapB7v160006IPPKN7doctest6detail8TestCaseES6_EEvT_T0_, symObjAddr: 0x420E0, symBinAddr: 0x100046820, symSize: 0x30 }
  - { offsetInCU: 0x3BF1B, offset: 0x3BF1B, size: 0x8, addend: 0x0, symName: __ZNSt3__14swapB7v160006IPKN7doctest6detail8TestCaseEEENS_9enable_ifIXaasr21is_move_constructibleIT_EE5valuesr18is_move_assignableIS7_EE5valueEvE4typeERS7_SA_, symObjAddr: 0x42110, symBinAddr: 0x100046850, symSize: 0x40 }
  - { offsetInCU: 0x3BF70, offset: 0x3BF70, size: 0x8, addend: 0x0, symName: __ZNSt3__17__sort4B7v160006INS_17_ClassicAlgPolicyERPFbPKN7doctest6detail8TestCaseES6_EPS6_EEjT1_SB_SB_SB_T0_, symObjAddr: 0x42150, symBinAddr: 0x100046890, symSize: 0x100 }
  - { offsetInCU: 0x3C004, offset: 0x3C004, size: 0x8, addend: 0x0, symName: __ZNSt3__123__debug_randomize_rangeB7v160006INS_17_ClassicAlgPolicyEPPKN7doctest6detail8TestCaseES7_EEvT0_T1_, symObjAddr: 0x422A0, symBinAddr: 0x1000469E0, symSize: 0x10 }
  - { offsetInCU: 0x3C058, offset: 0x3C058, size: 0x8, addend: 0x0, symName: __ZNSt3__119__partial_sort_implB7v160006INS_17_ClassicAlgPolicyERPFbPKN7doctest6detail8TestCaseES6_EPS6_SA_EET1_SB_SB_T2_OT0_, symObjAddr: 0x422B0, symBinAddr: 0x1000469F0, symSize: 0x100 }
  - { offsetInCU: 0x3C0F5, offset: 0x3C0F5, size: 0x8, addend: 0x0, symName: __ZNSt3__111__make_heapB7v160006INS_17_ClassicAlgPolicyERPFbPKN7doctest6detail8TestCaseES6_EPS6_EEvT1_SB_OT0_, symObjAddr: 0x423B0, symBinAddr: 0x100046AF0, symSize: 0xA0 }
  - { offsetInCU: 0x3C19E, offset: 0x3C19E, size: 0x8, addend: 0x0, symName: __ZNSt3__111__sort_heapB7v160006INS_17_ClassicAlgPolicyERPFbPKN7doctest6detail8TestCaseES6_EPS6_EEvT1_SB_OT0_, symObjAddr: 0x42640, symBinAddr: 0x100046D80, symSize: 0x80 }
  - { offsetInCU: 0x3C238, offset: 0x3C238, size: 0x8, addend: 0x0, symName: __ZNSt3__110__pop_heapB7v160006INS_17_ClassicAlgPolicyEPFbPKN7doctest6detail8TestCaseES6_EPS6_EEvT1_SA_RT0_NS_15iterator_traitsISA_E15difference_typeE, symObjAddr: 0x426C0, symBinAddr: 0x100046E00, symSize: 0xD0 }
  - { offsetInCU: 0x3C2F0, offset: 0x3C2F0, size: 0x8, addend: 0x0, symName: __ZNSt3__19__sift_upB7v160006INS_17_ClassicAlgPolicyERPFbPKN7doctest6detail8TestCaseES6_EPS6_EEvT1_SB_OT0_NS_15iterator_traitsISB_E15difference_typeE, symObjAddr: 0x42890, symBinAddr: 0x100046FD0, symSize: 0x120 }
  - { offsetInCU: 0x3C3A7, offset: 0x3C3A7, size: 0x8, addend: 0x0, symName: __ZNSt3__17__sort5IRPFbPKN7doctest6detail8TestCaseES5_EPS5_EEjT0_SA_SA_SA_SA_T_, symObjAddr: 0x429B0, symBinAddr: 0x1000470F0, symSize: 0x150 }
  - { offsetInCU: 0x3C4AE, offset: 0x3C4AE, size: 0x8, addend: 0x0, symName: __ZNSt3__112__to_addressB7v160006INS_11__wrap_iterIPPKN7doctest6detail8TestCaseEEEvEENS_5decayIDTclsr19__to_address_helperIT_EE6__callclsr3stdE7declvalIRKSA_EEEEE4typeESC_, symObjAddr: 0x42B20, symBinAddr: 0x100047260, symSize: 0x20 }
  - { offsetInCU: 0x3C590, offset: 0x3C590, size: 0x8, addend: 0x0, symName: __ZNSt3__119__debug_db_insert_cB7v160006INS_6vectorIPKN7doctest12TestCaseDataENS_9allocatorIS5_EEEEEEvPT_, symObjAddr: 0x43100, symBinAddr: 0x100047840, symSize: 0x10 }
  - { offsetInCU: 0x3C5C3, offset: 0x3C5C3, size: 0x8, addend: 0x0, symName: __ZNSt3__118__debug_db_erase_cB7v160006INS_6vectorIPKN7doctest12TestCaseDataENS_9allocatorIS5_EEEEEEvPT_, symObjAddr: 0x43390, symBinAddr: 0x100047AD0, symSize: 0x10 }
  - { offsetInCU: 0x3C5F6, offset: 0x3C5F6, size: 0x8, addend: 0x0, symName: __ZNSt3__112__to_addressB7v160006IPKN7doctest12TestCaseDataEEEPT_S6_, symObjAddr: 0x43480, symBinAddr: 0x100047BC0, symSize: 0x10 }
  - { offsetInCU: 0x3C62D, offset: 0x3C62D, size: 0x8, addend: 0x0, symName: __ZNSt3__119__allocate_at_leastB7v160006INS_9allocatorIPKN7doctest12TestCaseDataEEEEENS_19__allocation_resultINS_16allocator_traitsIT_E7pointerEEERS9_m, symObjAddr: 0x43D00, symBinAddr: 0x100048440, symSize: 0x40 }
  - { offsetInCU: 0x3C672, offset: 0x3C672, size: 0x8, addend: 0x0, symName: __ZNSt3__142__uninitialized_allocator_move_if_noexceptB7v160006INS_9allocatorIPKN7doctest12TestCaseDataEEENS_16reverse_iteratorIPS5_EES9_S5_vEET1_RT_T0_SD_SA_, symObjAddr: 0x43E90, symBinAddr: 0x1000485D0, symSize: 0x70 }
  - { offsetInCU: 0x3C6EF, offset: 0x3C6EF, size: 0x8, addend: 0x0, symName: __ZNSt3__14swapB7v160006IPPKN7doctest12TestCaseDataEEENS_9enable_ifIXaasr21is_move_constructibleIT_EE5valuesr18is_move_assignableIS7_EE5valueEvE4typeERS7_SA_, symObjAddr: 0x43F50, symBinAddr: 0x100048690, symSize: 0x40 }
  - { offsetInCU: 0x3C744, offset: 0x3C744, size: 0x8, addend: 0x0, symName: __ZNSt3__125__debug_db_invalidate_allB7v160006INS_6vectorIPKN7doctest12TestCaseDataENS_9allocatorIS5_EEEEEEvPT_, symObjAddr: 0x44040, symBinAddr: 0x100048780, symSize: 0x10 }
  - { offsetInCU: 0x3C777, offset: 0x3C777, size: 0x8, addend: 0x0, symName: __ZNSt3__14moveB7v160006INS_16reverse_iteratorIPPKN7doctest12TestCaseDataEEES7_EET0_T_S9_S8_, symObjAddr: 0x44050, symBinAddr: 0x100048790, symSize: 0x80 }
  - { offsetInCU: 0x3C7D5, offset: 0x3C7D5, size: 0x8, addend: 0x0, symName: __ZNSt3__16__moveB7v160006INS_17_ClassicAlgPolicyENS_16reverse_iteratorIPPKN7doctest12TestCaseDataEEES8_S8_EENS_4pairIT0_T2_EESA_T1_SB_, symObjAddr: 0x440D0, symBinAddr: 0x100048810, symSize: 0x90 }
  - { offsetInCU: 0x3C845, offset: 0x3C845, size: 0x8, addend: 0x0, symName: __ZNSt3__123__dispatch_copy_or_moveB7v160006INS_17_ClassicAlgPolicyENS_11__move_loopIS1_EENS_14__move_trivialENS_16reverse_iteratorIPPKN7doctest12TestCaseDataEEESB_SB_EENS_4pairIT2_T4_EESD_T3_SE_, symObjAddr: 0x44160, symBinAddr: 0x1000488A0, symSize: 0x90 }
  - { offsetInCU: 0x3C8C7, offset: 0x3C8C7, size: 0x8, addend: 0x0, symName: __ZNSt3__121__unwrap_and_dispatchB7v160006INS_10__overloadINS_11__move_loopINS_17_ClassicAlgPolicyEEENS_14__move_trivialEEENS_16reverse_iteratorIPPKN7doctest12TestCaseDataEEESD_SD_Li0EEENS_4pairIT0_T2_EESF_T1_SG_, symObjAddr: 0x441F0, symBinAddr: 0x100048930, symSize: 0x210 }
  - { offsetInCU: 0x3C95D, offset: 0x3C95D, size: 0x8, addend: 0x0, symName: __ZNSt3__114__unwrap_rangeB7v160006INS_16reverse_iteratorIPPKN7doctest12TestCaseDataEEES7_EENS_4pairIT0_S9_EET_SB_, symObjAddr: 0x44400, symBinAddr: 0x100048B40, symSize: 0x90 }
  - { offsetInCU: 0x3CA80, offset: 0x3CA80, size: 0x8, addend: 0x0, symName: __ZNSt3__113__unwrap_iterB7v160006INS_16reverse_iteratorIPPKN7doctest12TestCaseDataEEENS_18__unwrap_iter_implIS7_Lb0EEELi0EEEDTclsrT0_8__unwrapclsr3stdE7declvalIT_EEEESB_, symObjAddr: 0x44530, symBinAddr: 0x100048C70, symSize: 0x40 }
  - { offsetInCU: 0x3CAC6, offset: 0x3CAC6, size: 0x8, addend: 0x0, symName: __ZNSt3__19make_pairB7v160006INS_16reverse_iteratorIPPKN7doctest12TestCaseDataEEES7_EENS_4pairINS_18__unwrap_ref_decayIT_E4typeENS9_IT0_E4typeEEEOSA_OSD_, symObjAddr: 0x44570, symBinAddr: 0x100048CB0, symSize: 0x30 }
  - { offsetInCU: 0x3CB16, offset: 0x3CB16, size: 0x8, addend: 0x0, symName: __ZNSt3__114__rewrap_rangeB7v160006INS_16reverse_iteratorIPPKN7doctest12TestCaseDataEEES7_EET_S8_T0_, symObjAddr: 0x445A0, symBinAddr: 0x100048CE0, symSize: 0x60 }
  - { offsetInCU: 0x3CB65, offset: 0x3CB65, size: 0x8, addend: 0x0, symName: __ZNSt3__113__rewrap_iterB7v160006INS_16reverse_iteratorIPPKN7doctest12TestCaseDataEEES7_NS_18__unwrap_iter_implIS7_Lb0EEEEET_SA_T0_, symObjAddr: 0x44600, symBinAddr: 0x100048D40, symSize: 0x70 }
  - { offsetInCU: 0x3CBBD, offset: 0x3CBBD, size: 0x8, addend: 0x0, symName: __ZNSt3__1neB7v160006IPPKN7doctest12TestCaseDataES5_EEbRKNS_16reverse_iteratorIT_EERKNS6_IT0_EE, symObjAddr: 0x44670, symBinAddr: 0x100048DB0, symSize: 0x40 }
  - { offsetInCU: 0x3CC95, offset: 0x3CC95, size: 0x8, addend: 0x0, symName: __ZNSt3__118__cxx_atomic_storeB7v160006IiEEvPNS_22__cxx_atomic_base_implIT_EES2_NS_12memory_orderE, symObjAddr: 0x45780, symBinAddr: 0x100049EC0, symSize: 0x70 }
  - { offsetInCU: 0x3CD0A, offset: 0x3CD0A, size: 0x8, addend: 0x0, symName: __ZNSt3__1ltB7v160006IiN7doctest6StringEEEbRKNS_4pairIT_T0_EES8_, symObjAddr: 0x45F60, symBinAddr: 0x10004A6A0, symSize: 0x70 }
  - { offsetInCU: 0x3D91D, offset: 0x3D91D, size: 0x8, addend: 0x0, symName: __ZSt28__throw_bad_array_new_lengthB7v160006v, symObjAddr: 0x19760, symBinAddr: 0x10001DEA0, symSize: 0x40 }
  - { offsetInCU: 0x3F0EC, offset: 0x3F0EC, size: 0x8, addend: 0x0, symName: __ZN28doctest_detail_test_suite_ns19getCurrentTestSuiteEv, symObjAddr: 0x3BB0, symBinAddr: 0x1000082F0, symSize: 0x10 }
  - { offsetInCU: 0x3F117, offset: 0x3F117, size: 0x8, addend: 0x0, symName: __ZZN28doctest_detail_test_suite_ns19getCurrentTestSuiteEvE4data, symObjAddr: 0x1EE7C8, symBinAddr: 0x100058288, symSize: 0x0 }
  - { offsetInCU: 0x3F752, offset: 0x3F752, size: 0x8, addend: 0x0, symName: __ZL19DOCTEST_ANON_VAR_15, symObjAddr: 0x1EED00, symBinAddr: 0x1000587C0, symSize: 0x0 }
  - { offsetInCU: 0x3F76C, offset: 0x3F76C, size: 0x8, addend: 0x0, symName: __ZL19DOCTEST_ANON_VAR_21, symObjAddr: 0x1EED04, symBinAddr: 0x1000587C4, symSize: 0x0 }
  - { offsetInCU: 0x3F786, offset: 0x3F786, size: 0x8, addend: 0x0, symName: __ZL19DOCTEST_ANON_VAR_27, symObjAddr: 0x1EED08, symBinAddr: 0x1000587C8, symSize: 0x0 }
  - { offsetInCU: 0x3F7A0, offset: 0x3F7A0, size: 0x8, addend: 0x0, symName: __ZL19DOCTEST_ANON_VAR_32, symObjAddr: 0x1EED0C, symBinAddr: 0x1000587CC, symSize: 0x0 }
  - { offsetInCU: 0x3F7BA, offset: 0x3F7BA, size: 0x8, addend: 0x0, symName: __ZL19DOCTEST_ANON_VAR_37, symObjAddr: 0x1EED10, symBinAddr: 0x1000587D0, symSize: 0x0 }
  - { offsetInCU: 0x3F7D4, offset: 0x3F7D4, size: 0x8, addend: 0x0, symName: __ZL19DOCTEST_ANON_VAR_39, symObjAddr: 0x1EED14, symBinAddr: 0x1000587D4, symSize: 0x0 }
  - { offsetInCU: 0x3F9C7, offset: 0x3F9C7, size: 0x8, addend: 0x0, symName: __ZN7doctest6detail15MultiLaneAtomicIiE8myAtomicEv, symObjAddr: 0x1B9A0, symBinAddr: 0x1000200E0, symSize: 0x80 }
  - { offsetInCU: 0x3F9EC, offset: 0x3F9EC, size: 0x8, addend: 0x0, symName: __ZZN7doctest6detail15MultiLaneAtomicIiE8myAtomicEvE11laneCounter, symObjAddr: 0x4CB00, symBinAddr: 0x100058000, symSize: 0x0 }
  - { offsetInCU: 0x40773, offset: 0x40773, size: 0x8, addend: 0x0, symName: __ZNSt3__16vectorINS_4fposI11__mbstate_tEENS_9allocatorIS3_EEE26__swap_out_circular_bufferERNS_14__split_bufferIS3_RS5_EE, symObjAddr: 0x190A0, symBinAddr: 0x10001D7E0, symSize: 0x130 }
  - { offsetInCU: 0x40854, offset: 0x40854, size: 0x8, addend: 0x0, symName: __ZNSt3__16vectorIN7doctest16SubcaseSignatureENS_9allocatorIS2_EEE26__swap_out_circular_bufferERNS_14__split_bufferIS2_RS4_EE, symObjAddr: 0x21EF0, symBinAddr: 0x100026630, symSize: 0x130 }
  - { offsetInCU: 0x40921, offset: 0x40921, size: 0x8, addend: 0x0, symName: __ZNSt3__16vectorIN7doctest16SubcaseSignatureENS_9allocatorIS2_EEE26__swap_out_circular_bufferERNS_14__split_bufferIS2_RS4_EEPS2_, symObjAddr: 0x23970, symBinAddr: 0x1000280B0, symSize: 0x170 }
  - { offsetInCU: 0x40988, offset: 0x40988, size: 0x8, addend: 0x0, symName: __ZNSt3__16vectorIPKN7doctest6detail20IExceptionTranslatorENS_9allocatorIS5_EEE26__swap_out_circular_bufferERNS_14__split_bufferIS5_RS7_EE, symObjAddr: 0x27AA0, symBinAddr: 0x10002C1E0, symSize: 0x130 }
  - { offsetInCU: 0x409E8, offset: 0x409E8, size: 0x8, addend: 0x0, symName: __ZNSt3__16vectorIPN7doctest13IContextScopeENS_9allocatorIS3_EEE26__swap_out_circular_bufferERNS_14__split_bufferIS3_RS5_EE, symObjAddr: 0x29400, symBinAddr: 0x10002DB40, symSize: 0x130 }
  - { offsetInCU: 0x40A42, offset: 0x40A42, size: 0x8, addend: 0x0, symName: __ZNSt3__16vectorIN7doctest6StringENS_9allocatorIS2_EEE26__swap_out_circular_bufferERNS_14__split_bufferIS2_RS4_EE, symObjAddr: 0x2A7D0, symBinAddr: 0x10002EF10, symSize: 0x130 }
  - { offsetInCU: 0x40C7B, offset: 0x40C7B, size: 0x8, addend: 0x0, symName: __ZNSt3__16vectorINS_12basic_stringIcNS_11char_traitsIcEENS_9allocatorIcEEEENS4_IS6_EEE26__swap_out_circular_bufferERNS_14__split_bufferIS6_RS7_EE, symObjAddr: 0x2F320, symBinAddr: 0x100033A60, symSize: 0x130 }
  - { offsetInCU: 0x41198, offset: 0x41198, size: 0x8, addend: 0x0, symName: __ZNSt3__16vectorIN7doctest12_GLOBAL__N_113JUnitReporter17JUnitTestCaseData13JUnitTestCaseENS_9allocatorIS5_EEE26__swap_out_circular_bufferERNS_14__split_bufferIS5_RS7_EE, symObjAddr: 0x35140, symBinAddr: 0x100039880, symSize: 0x130 }
  - { offsetInCU: 0x41288, offset: 0x41288, size: 0x8, addend: 0x0, symName: __ZNSt3__16vectorIN7doctest12_GLOBAL__N_113JUnitReporter17JUnitTestCaseData16JUnitTestMessageENS_9allocatorIS5_EEE26__swap_out_circular_bufferERNS_14__split_bufferIS5_RS7_EE, symObjAddr: 0x37D30, symBinAddr: 0x10003C470, symSize: 0x130 }
  - { offsetInCU: 0x41339, offset: 0x41339, size: 0x8, addend: 0x0, symName: __ZNSt3__16vectorIPN7doctest9IReporterENS_9allocatorIS3_EEE26__swap_out_circular_bufferERNS_14__split_bufferIS3_RS5_EE, symObjAddr: 0x3D650, symBinAddr: 0x100041D90, symSize: 0x130 }
  - { offsetInCU: 0x413B0, offset: 0x413B0, size: 0x8, addend: 0x0, symName: __ZNSt3__16vectorIPN7doctest9IReporterENS_9allocatorIS3_EEE26__swap_out_circular_bufferERNS_14__split_bufferIS3_RS5_EEPS3_, symObjAddr: 0x3EA70, symBinAddr: 0x1000431B0, symSize: 0x170 }
  - { offsetInCU: 0x415D3, offset: 0x415D3, size: 0x8, addend: 0x0, symName: __ZNSt3__16vectorIPKN7doctest6detail8TestCaseENS_9allocatorIS5_EEE26__swap_out_circular_bufferERNS_14__split_bufferIS5_RS7_EE, symObjAddr: 0x400C0, symBinAddr: 0x100044800, symSize: 0x130 }
  - { offsetInCU: 0x41A73, offset: 0x41A73, size: 0x8, addend: 0x0, symName: __ZNSt3__16vectorIPKN7doctest12TestCaseDataENS_9allocatorIS4_EEE26__swap_out_circular_bufferERNS_14__split_bufferIS4_RS6_EE, symObjAddr: 0x439A0, symBinAddr: 0x1000480E0, symSize: 0x130 }
  - { offsetInCU: 0x41C33, offset: 0x41C33, size: 0x8, addend: 0x0, symName: __Z5isnanB7v160006e, symObjAddr: 0x3D0, symBinAddr: 0x100004B10, symSize: 0x20 }
  - { offsetInCU: 0x434F8, offset: 0x434F8, size: 0x8, addend: 0x0, symName: __Z7toloweri, symObjAddr: 0x1A880, symBinAddr: 0x10001EFC0, symSize: 0x20 }
  - { offsetInCU: 0x43D38, offset: 0x43D38, size: 0x8, addend: 0x0, symName: __ZN7doctest6detail9TestSuiteC1Ev, symObjAddr: 0x50, symBinAddr: 0x100004790, symSize: 0x20 }
  - { offsetInCU: 0x43D65, offset: 0x43D65, size: 0x8, addend: 0x0, symName: __ZN7doctest6detail9TestSuitemlEPKc, symObjAddr: 0x70, symBinAddr: 0x1000047B0, symSize: 0x20 }
  - { offsetInCU: 0x43D9C, offset: 0x43D9C, size: 0x8, addend: 0x0, symName: __ZN7doctest5IsNaNIfEC2Efb, symObjAddr: 0x90, symBinAddr: 0x1000047D0, symSize: 0x30 }
  - { offsetInCU: 0x43DE4, offset: 0x43DE4, size: 0x8, addend: 0x0, symName: __ZN7doctest5IsNaNIfEC1Efb, symObjAddr: 0xC0, symBinAddr: 0x100004800, symSize: 0x40 }
  - { offsetInCU: 0x43E2C, offset: 0x43E2C, size: 0x8, addend: 0x0, symName: __ZNK7doctest5IsNaNIfEntEv, symObjAddr: 0x100, symBinAddr: 0x100004840, symSize: 0x40 }
  - { offsetInCU: 0x43E52, offset: 0x43E52, size: 0x8, addend: 0x0, symName: __ZNK7doctest5IsNaNIfEcvbEv, symObjAddr: 0x140, symBinAddr: 0x100004880, symSize: 0x50 }
  - { offsetInCU: 0x43E79, offset: 0x43E79, size: 0x8, addend: 0x0, symName: __Z5isnanB7v160006f, symObjAddr: 0x190, symBinAddr: 0x1000048D0, symSize: 0x20 }
  - { offsetInCU: 0x43EA8, offset: 0x43EA8, size: 0x8, addend: 0x0, symName: __ZN7doctest5IsNaNIdEC2Edb, symObjAddr: 0x1B0, symBinAddr: 0x1000048F0, symSize: 0x30 }
  - { offsetInCU: 0x43EF0, offset: 0x43EF0, size: 0x8, addend: 0x0, symName: __ZN7doctest5IsNaNIdEC1Edb, symObjAddr: 0x1E0, symBinAddr: 0x100004920, symSize: 0x40 }
  - { offsetInCU: 0x43F38, offset: 0x43F38, size: 0x8, addend: 0x0, symName: __ZNK7doctest5IsNaNIdEntEv, symObjAddr: 0x220, symBinAddr: 0x100004960, symSize: 0x40 }
  - { offsetInCU: 0x43F5E, offset: 0x43F5E, size: 0x8, addend: 0x0, symName: __ZNK7doctest5IsNaNIdEcvbEv, symObjAddr: 0x260, symBinAddr: 0x1000049A0, symSize: 0x50 }
  - { offsetInCU: 0x43F85, offset: 0x43F85, size: 0x8, addend: 0x0, symName: __Z5isnanB7v160006Ua9enable_ifIXLb1EEEd, symObjAddr: 0x2B0, symBinAddr: 0x1000049F0, symSize: 0x20 }
  - { offsetInCU: 0x43FB4, offset: 0x43FB4, size: 0x8, addend: 0x0, symName: __ZN7doctest5IsNaNIeEC2Eeb, symObjAddr: 0x2D0, symBinAddr: 0x100004A10, symSize: 0x30 }
  - { offsetInCU: 0x43FFC, offset: 0x43FFC, size: 0x8, addend: 0x0, symName: __ZN7doctest5IsNaNIeEC1Eeb, symObjAddr: 0x300, symBinAddr: 0x100004A40, symSize: 0x40 }
  - { offsetInCU: 0x44044, offset: 0x44044, size: 0x8, addend: 0x0, symName: __ZNK7doctest5IsNaNIeEntEv, symObjAddr: 0x340, symBinAddr: 0x100004A80, symSize: 0x40 }
  - { offsetInCU: 0x4406A, offset: 0x4406A, size: 0x8, addend: 0x0, symName: __ZNK7doctest5IsNaNIeEcvbEv, symObjAddr: 0x380, symBinAddr: 0x100004AC0, symSize: 0x50 }
  - { offsetInCU: 0x44092, offset: 0x44092, size: 0x8, addend: 0x0, symName: '__ZN7doctest6detail3$_0C1Ev', symObjAddr: 0x3F0, symBinAddr: 0x100004B30, symSize: 0x20 }
  - { offsetInCU: 0x440BF, offset: 0x440BF, size: 0x8, addend: 0x0, symName: '__ZN7doctest6detail3$_0D1Ev', symObjAddr: 0x410, symBinAddr: 0x100004B50, symSize: 0x20 }
  - { offsetInCU: 0x440EC, offset: 0x440EC, size: 0x8, addend: 0x0, symName: '__ZN7doctest6detail3$_04pushEv', symObjAddr: 0x470, symBinAddr: 0x100004BB0, symSize: 0xD0 }
  - { offsetInCU: 0x44113, offset: 0x44113, size: 0x8, addend: 0x0, symName: '__ZN7doctest6detail3$_03popEv', symObjAddr: 0x580, symBinAddr: 0x100004CC0, symSize: 0x1C0 }
  - { offsetInCU: 0x4415A, offset: 0x4415A, size: 0x8, addend: 0x0, symName: __ZN7doctest6String8allocateEj, symObjAddr: 0x770, symBinAddr: 0x100004EB0, symSize: 0xA0 }
  - { offsetInCU: 0x44191, offset: 0x44191, size: 0x8, addend: 0x0, symName: __ZN7doctest6String7setLastEj, symObjAddr: 0x810, symBinAddr: 0x100004F50, symSize: 0x20 }
  - { offsetInCU: 0x441C8, offset: 0x441C8, size: 0x8, addend: 0x0, symName: __ZN7doctest6String9setOnHeapEv, symObjAddr: 0x830, symBinAddr: 0x100004F70, symSize: 0x20 }
  - { offsetInCU: 0x441F0, offset: 0x441F0, size: 0x8, addend: 0x0, symName: __ZN7doctest6String7setSizeEj, symObjAddr: 0x850, symBinAddr: 0x100004F90, symSize: 0x60 }
  - { offsetInCU: 0x44227, offset: 0x44227, size: 0x8, addend: 0x0, symName: __ZNK7doctest6String9isOnStackEv, symObjAddr: 0x8B0, symBinAddr: 0x100004FF0, symSize: 0x30 }
  - { offsetInCU: 0x4424D, offset: 0x4424D, size: 0x8, addend: 0x0, symName: __ZN7doctest6String4copyERKS0_, symObjAddr: 0x8E0, symBinAddr: 0x100005020, symSize: 0x80 }
  - { offsetInCU: 0x44284, offset: 0x44284, size: 0x8, addend: 0x0, symName: __ZN7doctest6StringC2Ev, symObjAddr: 0x960, symBinAddr: 0x1000050A0, symSize: 0x30 }
  - { offsetInCU: 0x442B0, offset: 0x442B0, size: 0x8, addend: 0x0, symName: __ZN7doctest6StringC1Ev, symObjAddr: 0x990, symBinAddr: 0x1000050D0, symSize: 0x20 }
  - { offsetInCU: 0x442DC, offset: 0x442DC, size: 0x8, addend: 0x0, symName: __ZN7doctest6StringD2Ev, symObjAddr: 0x9B0, symBinAddr: 0x1000050F0, symSize: 0x50 }
  - { offsetInCU: 0x44308, offset: 0x44308, size: 0x8, addend: 0x0, symName: __ZN7doctest6StringD1Ev, symObjAddr: 0xA00, symBinAddr: 0x100005140, symSize: 0x20 }
  - { offsetInCU: 0x44334, offset: 0x44334, size: 0x8, addend: 0x0, symName: __ZN7doctest6StringC2EPKc, symObjAddr: 0xA20, symBinAddr: 0x100005160, symSize: 0x40 }
  - { offsetInCU: 0x4436F, offset: 0x4436F, size: 0x8, addend: 0x0, symName: __ZN7doctest6StringC2EPKcj, symObjAddr: 0xA60, symBinAddr: 0x1000051A0, symSize: 0x40 }
  - { offsetInCU: 0x443B9, offset: 0x443B9, size: 0x8, addend: 0x0, symName: __ZN7doctest6StringC1EPKc, symObjAddr: 0xAA0, symBinAddr: 0x1000051E0, symSize: 0x40 }
  - { offsetInCU: 0x443F4, offset: 0x443F4, size: 0x8, addend: 0x0, symName: __ZN7doctest6StringC1EPKcj, symObjAddr: 0xAE0, symBinAddr: 0x100005220, symSize: 0x30 }
  - { offsetInCU: 0x4443E, offset: 0x4443E, size: 0x8, addend: 0x0, symName: __ZN7doctest6StringC2ERNSt3__113basic_istreamIcNS1_11char_traitsIcEEEEj, symObjAddr: 0xB10, symBinAddr: 0x100005250, symSize: 0x40 }
  - { offsetInCU: 0x44488, offset: 0x44488, size: 0x8, addend: 0x0, symName: __ZN7doctest6StringC1ERNSt3__113basic_istreamIcNS1_11char_traitsIcEEEEj, symObjAddr: 0xB50, symBinAddr: 0x100005290, symSize: 0x30 }
  - { offsetInCU: 0x444D2, offset: 0x444D2, size: 0x8, addend: 0x0, symName: __ZN7doctest6StringC2ERKS0_, symObjAddr: 0xB80, symBinAddr: 0x1000052C0, symSize: 0x30 }
  - { offsetInCU: 0x4450D, offset: 0x4450D, size: 0x8, addend: 0x0, symName: __ZN7doctest6StringC1ERKS0_, symObjAddr: 0xBB0, symBinAddr: 0x1000052F0, symSize: 0x30 }
  - { offsetInCU: 0x44548, offset: 0x44548, size: 0x8, addend: 0x0, symName: __ZN7doctest6StringaSERKS0_, symObjAddr: 0xBE0, symBinAddr: 0x100005320, symSize: 0x70 }
  - { offsetInCU: 0x4457F, offset: 0x4457F, size: 0x8, addend: 0x0, symName: __ZN7doctest6StringpLERKS0_, symObjAddr: 0xC50, symBinAddr: 0x100005390, symSize: 0x220 }
  - { offsetInCU: 0x4461D, offset: 0x4461D, size: 0x8, addend: 0x0, symName: __ZNK7doctest6String4sizeEv, symObjAddr: 0xE70, symBinAddr: 0x1000055B0, symSize: 0x60 }
  - { offsetInCU: 0x44645, offset: 0x44645, size: 0x8, addend: 0x0, symName: __ZNK7doctest6String5c_strEv, symObjAddr: 0xED0, symBinAddr: 0x100005610, symSize: 0x20 }
  - { offsetInCU: 0x4466B, offset: 0x4466B, size: 0x8, addend: 0x0, symName: __ZN7doctest6StringC2EOS0_, symObjAddr: 0xEF0, symBinAddr: 0x100005630, symSize: 0x50 }
  - { offsetInCU: 0x446A6, offset: 0x446A6, size: 0x8, addend: 0x0, symName: __ZN7doctest6StringC1EOS0_, symObjAddr: 0xF40, symBinAddr: 0x100005680, symSize: 0x30 }
  - { offsetInCU: 0x446E1, offset: 0x446E1, size: 0x8, addend: 0x0, symName: __ZN7doctest6StringaSEOS0_, symObjAddr: 0xF70, symBinAddr: 0x1000056B0, symSize: 0xA0 }
  - { offsetInCU: 0x44718, offset: 0x44718, size: 0x8, addend: 0x0, symName: __ZNK7doctest6StringixEj, symObjAddr: 0x1010, symBinAddr: 0x100005750, symSize: 0x30 }
  - { offsetInCU: 0x4474F, offset: 0x4474F, size: 0x8, addend: 0x0, symName: __ZN7doctest6StringixEj, symObjAddr: 0x1040, symBinAddr: 0x100005780, symSize: 0x60 }
  - { offsetInCU: 0x44786, offset: 0x44786, size: 0x8, addend: 0x0, symName: __ZNK7doctest6String8capacityEv, symObjAddr: 0x10A0, symBinAddr: 0x1000057E0, symSize: 0x50 }
  - { offsetInCU: 0x447AE, offset: 0x447AE, size: 0x8, addend: 0x0, symName: __ZNO7doctest6String6substrEjj, symObjAddr: 0x10F0, symBinAddr: 0x100005830, symSize: 0xA0 }
  - { offsetInCU: 0x44803, offset: 0x44803, size: 0x8, addend: 0x0, symName: __ZN7doctest6String5c_strEv, symObjAddr: 0x11C0, symBinAddr: 0x100005900, symSize: 0x50 }
  - { offsetInCU: 0x44829, offset: 0x44829, size: 0x8, addend: 0x0, symName: __ZNKR7doctest6String6substrEjj, symObjAddr: 0x1210, symBinAddr: 0x100005950, symSize: 0x80 }
  - { offsetInCU: 0x4486F, offset: 0x4486F, size: 0x8, addend: 0x0, symName: __ZNK7doctest6String4findEcj, symObjAddr: 0x1290, symBinAddr: 0x1000059D0, symSize: 0xE0 }
  - { offsetInCU: 0x448E2, offset: 0x448E2, size: 0x8, addend: 0x0, symName: __ZNK7doctest6String5rfindEcj, symObjAddr: 0x1370, symBinAddr: 0x100005AB0, symSize: 0xE0 }
  - { offsetInCU: 0x44946, offset: 0x44946, size: 0x8, addend: 0x0, symName: __ZNK7doctest6String7compareEPKcb, symObjAddr: 0x1450, symBinAddr: 0x100005B90, symSize: 0x70 }
  - { offsetInCU: 0x4498C, offset: 0x4498C, size: 0x8, addend: 0x0, symName: __ZNK7doctest6String7compareERKS0_b, symObjAddr: 0x1540, symBinAddr: 0x100005C80, symSize: 0x50 }
  - { offsetInCU: 0x449D2, offset: 0x449D2, size: 0x8, addend: 0x0, symName: __ZN7doctest8ContainsC2ERKNS_6StringE, symObjAddr: 0x1850, symBinAddr: 0x100005F90, symSize: 0x30 }
  - { offsetInCU: 0x44A0D, offset: 0x44A0D, size: 0x8, addend: 0x0, symName: __ZN7doctest8ContainsC1ERKNS_6StringE, symObjAddr: 0x1880, symBinAddr: 0x100005FC0, symSize: 0x30 }
  - { offsetInCU: 0x44A48, offset: 0x44A48, size: 0x8, addend: 0x0, symName: __ZNK7doctest8Contains9checkWithERKNS_6StringE, symObjAddr: 0x18B0, symBinAddr: 0x100005FF0, symSize: 0x50 }
  - { offsetInCU: 0x44A7F, offset: 0x44A7F, size: 0x8, addend: 0x0, symName: __Z6strstrB7v160006Ua9enable_ifIXLb1EEEPKcS0_, symObjAddr: 0x1900, symBinAddr: 0x100006040, symSize: 0x30 }
  - { offsetInCU: 0x44ABC, offset: 0x44ABC, size: 0x8, addend: 0x0, symName: __Z7strrchrB7v160006Ua9enable_ifIXLb1EEEPKci, symObjAddr: 0x24E0, symBinAddr: 0x100006C20, symSize: 0x30 }
  - { offsetInCU: 0x44AF9, offset: 0x44AF9, size: 0x8, addend: 0x0, symName: __ZNK7doctest16SubcaseSignatureeqERKS0_, symObjAddr: 0x2510, symBinAddr: 0x100006C50, symSize: 0x70 }
  - { offsetInCU: 0x44B30, offset: 0x44B30, size: 0x8, addend: 0x0, symName: __ZNK7doctest16SubcaseSignatureltERKS0_, symObjAddr: 0x2580, symBinAddr: 0x100006CC0, symSize: 0xB0 }
  - { offsetInCU: 0x44B67, offset: 0x44B67, size: 0x8, addend: 0x0, symName: __ZN7doctest13IContextScopeD2Ev, symObjAddr: 0x2630, symBinAddr: 0x100006D70, symSize: 0x10 }
  - { offsetInCU: 0x44B93, offset: 0x44B93, size: 0x8, addend: 0x0, symName: __ZN7doctest13IContextScopeD1Ev, symObjAddr: 0x2640, symBinAddr: 0x100006D80, symSize: 0x10 }
  - { offsetInCU: 0x44BBF, offset: 0x44BBF, size: 0x8, addend: 0x0, symName: __ZN7doctest13IContextScopeD0Ev, symObjAddr: 0x2650, symBinAddr: 0x100006D90, symSize: 0x10 }
  - { offsetInCU: 0x44BEB, offset: 0x44BEB, size: 0x8, addend: 0x0, symName: __ZN7doctest6detail8filldataIPKvE4fillEPNSt3__113basic_ostreamIcNS5_11char_traitsIcEEEES3_, symObjAddr: 0x2660, symBinAddr: 0x100006DA0, symSize: 0x50 }
  - { offsetInCU: 0x44C20, offset: 0x44C20, size: 0x8, addend: 0x0, symName: __ZN7doctest6ApproxC2Ed, symObjAddr: 0x2D70, symBinAddr: 0x1000074B0, symSize: 0x60 }
  - { offsetInCU: 0x44C5B, offset: 0x44C5B, size: 0x8, addend: 0x0, symName: __ZNSt3__114numeric_limitsIfE7epsilonB7v160006Ev, symObjAddr: 0x2DD0, symBinAddr: 0x100007510, symSize: 0x10 }
  - { offsetInCU: 0x44C6F, offset: 0x44C6F, size: 0x8, addend: 0x0, symName: __ZN7doctest6ApproxC1Ed, symObjAddr: 0x2DE0, symBinAddr: 0x100007520, symSize: 0x30 }
  - { offsetInCU: 0x44CAA, offset: 0x44CAA, size: 0x8, addend: 0x0, symName: __ZNK7doctest6ApproxclEd, symObjAddr: 0x2E10, symBinAddr: 0x100007550, symSize: 0x60 }
  - { offsetInCU: 0x44CF1, offset: 0x44CF1, size: 0x8, addend: 0x0, symName: __ZN7doctest6Approx7epsilonEd, symObjAddr: 0x2E70, symBinAddr: 0x1000075B0, symSize: 0x20 }
  - { offsetInCU: 0x44D28, offset: 0x44D28, size: 0x8, addend: 0x0, symName: __ZN7doctest6Approx5scaleEd, symObjAddr: 0x2E90, symBinAddr: 0x1000075D0, symSize: 0x20 }
  - { offsetInCU: 0x44D5F, offset: 0x44D5F, size: 0x8, addend: 0x0, symName: __ZNK7doctest6detail15MultiLaneAtomicIiEcviEv, symObjAddr: 0x3C60, symBinAddr: 0x1000083A0, symSize: 0x20 }
  - { offsetInCU: 0x44D85, offset: 0x44D85, size: 0x8, addend: 0x0, symName: __ZNSt3__16atomicIbEaSB7v160006Eb, symObjAddr: 0x3CC0, symBinAddr: 0x100008400, symSize: 0x40 }
  - { offsetInCU: 0x44DDD, offset: 0x44DDD, size: 0x8, addend: 0x0, symName: __ZN7doctest6detail7Subcase12checkFiltersEv, symObjAddr: 0x3D00, symBinAddr: 0x100008440, symSize: 0x100 }
  - { offsetInCU: 0x44E05, offset: 0x44E05, size: 0x8, addend: 0x0, symName: __ZNKSt3__16vectorIN7doctest16SubcaseSignatureENS_9allocatorIS2_EEE4sizeB7v160006Ev, symObjAddr: 0x3E00, symBinAddr: 0x100008540, symSize: 0x30 }
  - { offsetInCU: 0x44E2B, offset: 0x44E2B, size: 0x8, addend: 0x0, symName: __ZNSt3__16vectorINS0_IN7doctest6StringENS_9allocatorIS2_EEEENS3_IS5_EEEixB7v160006Em, symObjAddr: 0x3F20, symBinAddr: 0x100008660, symSize: 0x20 }
  - { offsetInCU: 0x44E62, offset: 0x44E62, size: 0x8, addend: 0x0, symName: __ZN7doctest6detail7SubcaseC2ERKNS_6StringEPKci, symObjAddr: 0x3F40, symBinAddr: 0x100008680, symSize: 0x580 }
  - { offsetInCU: 0x44F5F, offset: 0x44F5F, size: 0x8, addend: 0x0, symName: __ZNSt3__16vectorIN7doctest16SubcaseSignatureENS_9allocatorIS2_EEEixB7v160006Em, symObjAddr: 0x44C0, symBinAddr: 0x100008C00, symSize: 0x20 }
  - { offsetInCU: 0x44F96, offset: 0x44F96, size: 0x8, addend: 0x0, symName: __ZNSt3__16vectorIN7doctest16SubcaseSignatureENS_9allocatorIS2_EEE9push_backB7v160006ERKS2_, symObjAddr: 0x44E0, symBinAddr: 0x100008C20, symSize: 0x60 }
  - { offsetInCU: 0x44FCD, offset: 0x44FCD, size: 0x8, addend: 0x0, symName: __ZNSt3__16vectorIPN7doctest9IReporterENS_9allocatorIS3_EEE5beginB7v160006Ev, symObjAddr: 0x4540, symBinAddr: 0x100008C80, symSize: 0x30 }
  - { offsetInCU: 0x44FF5, offset: 0x44FF5, size: 0x8, addend: 0x0, symName: __ZNSt3__16vectorIPN7doctest9IReporterENS_9allocatorIS3_EEE3endB7v160006Ev, symObjAddr: 0x4570, symBinAddr: 0x100008CB0, symSize: 0x30 }
  - { offsetInCU: 0x4501D, offset: 0x4501D, size: 0x8, addend: 0x0, symName: __ZNKSt3__111__wrap_iterIPPN7doctest9IReporterEEdeB7v160006Ev, symObjAddr: 0x45D0, symBinAddr: 0x100008D10, symSize: 0x20 }
  - { offsetInCU: 0x45043, offset: 0x45043, size: 0x8, addend: 0x0, symName: __ZNSt3__111__wrap_iterIPPN7doctest9IReporterEEppB7v160006Ev, symObjAddr: 0x45F0, symBinAddr: 0x100008D30, symSize: 0x20 }
  - { offsetInCU: 0x45069, offset: 0x45069, size: 0x8, addend: 0x0, symName: __ZNSt3__113unordered_setIyNS_4hashIyEENS_8equal_toIyEENS_9allocatorIyEEE4findB7v160006ERKy, symObjAddr: 0x4640, symBinAddr: 0x100008D80, symSize: 0x40 }
  - { offsetInCU: 0x4509E, offset: 0x4509E, size: 0x8, addend: 0x0, symName: __ZNSt3__113unordered_setIyNS_4hashIyEENS_8equal_toIyEENS_9allocatorIyEEE3endB7v160006Ev, symObjAddr: 0x47A0, symBinAddr: 0x100008EE0, symSize: 0x30 }
  - { offsetInCU: 0x450C4, offset: 0x450C4, size: 0x8, addend: 0x0, symName: __ZNSt3__16vectorIN7doctest16SubcaseSignatureENS_9allocatorIS2_EEE5clearB7v160006Ev, symObjAddr: 0x47D0, symBinAddr: 0x100008F10, symSize: 0x50 }
  - { offsetInCU: 0x450F9, offset: 0x450F9, size: 0x8, addend: 0x0, symName: __ZNSt3__16vectorIN7doctest16SubcaseSignatureENS_9allocatorIS2_EEE6insertINS_11__wrap_iterIPS2_EELi0EEES9_NS7_IPKS2_EET_SD_, symObjAddr: 0x4820, symBinAddr: 0x100008F60, symSize: 0x320 }
  - { offsetInCU: 0x4520E, offset: 0x4520E, size: 0x8, addend: 0x0, symName: __ZNSt3__16vectorIN7doctest16SubcaseSignatureENS_9allocatorIS2_EEE3endB7v160006Ev, symObjAddr: 0x4B40, symBinAddr: 0x100009280, symSize: 0x30 }
  - { offsetInCU: 0x45242, offset: 0x45242, size: 0x8, addend: 0x0, symName: __ZNSt3__111__wrap_iterIPKN7doctest16SubcaseSignatureEEC1B7v160006IPS2_EERKNS0_IT_EEPNS_9enable_ifIXsr14is_convertibleIS8_S4_EE5valueEvE4typeE, symObjAddr: 0x4B70, symBinAddr: 0x1000092B0, symSize: 0x30 }
  - { offsetInCU: 0x4528F, offset: 0x4528F, size: 0x8, addend: 0x0, symName: __ZNSt3__16vectorIN7doctest16SubcaseSignatureENS_9allocatorIS2_EEE5beginB7v160006Ev, symObjAddr: 0x4BA0, symBinAddr: 0x1000092E0, symSize: 0x30 }
  - { offsetInCU: 0x452B7, offset: 0x452B7, size: 0x8, addend: 0x0, symName: __ZNKSt3__111__wrap_iterIPN7doctest16SubcaseSignatureEEplB7v160006El, symObjAddr: 0x4BD0, symBinAddr: 0x100009310, symSize: 0x40 }
  - { offsetInCU: 0x45301, offset: 0x45301, size: 0x8, addend: 0x0, symName: __ZN7doctest16SubcaseSignatureD1Ev, symObjAddr: 0x4C10, symBinAddr: 0x100009350, symSize: 0x20 }
  - { offsetInCU: 0x4532E, offset: 0x4532E, size: 0x8, addend: 0x0, symName: __ZN7doctest6detail7SubcaseC1ERKNS_6StringEPKci, symObjAddr: 0x4C30, symBinAddr: 0x100009370, symSize: 0x40 }
  - { offsetInCU: 0x45387, offset: 0x45387, size: 0x8, addend: 0x0, symName: __ZN7doctest6detail7SubcaseD2Ev, symObjAddr: 0x4C70, symBinAddr: 0x1000093B0, symSize: 0x360 }
  - { offsetInCU: 0x45459, offset: 0x45459, size: 0x8, addend: 0x0, symName: __ZNSt3__113unordered_setIyNS_4hashIyEENS_8equal_toIyEENS_9allocatorIyEEE6insertB7v160006EOy, symObjAddr: 0x4FD0, symBinAddr: 0x100009710, symSize: 0x40 }
  - { offsetInCU: 0x4548E, offset: 0x4548E, size: 0x8, addend: 0x0, symName: __ZNKSt3__16vectorIN7doctest16SubcaseSignatureENS_9allocatorIS2_EEE5emptyB7v160006Ev, symObjAddr: 0x50C0, symBinAddr: 0x100009800, symSize: 0x20 }
  - { offsetInCU: 0x454B4, offset: 0x454B4, size: 0x8, addend: 0x0, symName: __ZNKSt3__113__atomic_baseIbLb0EEcvbB7v160006Ev, symObjAddr: 0x50E0, symBinAddr: 0x100009820, symSize: 0x30 }
  - { offsetInCU: 0x454E0, offset: 0x454E0, size: 0x8, addend: 0x0, symName: __ZN7doctest17TestCaseExceptionD1Ev, symObjAddr: 0x5110, symBinAddr: 0x100009850, symSize: 0x20 }
  - { offsetInCU: 0x4550D, offset: 0x4550D, size: 0x8, addend: 0x0, symName: __ZN7doctest6detail7SubcaseD1Ev, symObjAddr: 0x5130, symBinAddr: 0x100009870, symSize: 0x20 }
  - { offsetInCU: 0x45539, offset: 0x45539, size: 0x8, addend: 0x0, symName: __ZNK7doctest6detail7SubcasecvbEv, symObjAddr: 0x5150, symBinAddr: 0x100009890, symSize: 0x20 }
  - { offsetInCU: 0x45561, offset: 0x45561, size: 0x8, addend: 0x0, symName: __ZN7doctest6detail6ResultC2EbRKNS_6StringE, symObjAddr: 0x5170, symBinAddr: 0x1000098B0, symSize: 0x40 }
  - { offsetInCU: 0x455AB, offset: 0x455AB, size: 0x8, addend: 0x0, symName: __ZN7doctest6detail6ResultC1EbRKNS_6StringE, symObjAddr: 0x51B0, symBinAddr: 0x1000098F0, symSize: 0x40 }
  - { offsetInCU: 0x455F5, offset: 0x455F5, size: 0x8, addend: 0x0, symName: __ZN7doctest6detail20ExpressionDecomposerC2ENS_10assertType4EnumE, symObjAddr: 0x51F0, symBinAddr: 0x100009930, symSize: 0x20 }
  - { offsetInCU: 0x45630, offset: 0x45630, size: 0x8, addend: 0x0, symName: __ZN7doctest6detail20ExpressionDecomposerC1ENS_10assertType4EnumE, symObjAddr: 0x5210, symBinAddr: 0x100009950, symSize: 0x30 }
  - { offsetInCU: 0x4566B, offset: 0x4566B, size: 0x8, addend: 0x0, symName: __ZN7doctest6detail8TestCaseC2EPFvvEPKcjRKNS0_9TestSuiteERKNS_6StringEi, symObjAddr: 0x5240, symBinAddr: 0x100009980, symSize: 0x190 }
  - { offsetInCU: 0x456F9, offset: 0x456F9, size: 0x8, addend: 0x0, symName: __ZN7doctest12TestCaseDataC2Ev, symObjAddr: 0x53D0, symBinAddr: 0x100009B10, symSize: 0x20 }
  - { offsetInCU: 0x45726, offset: 0x45726, size: 0x8, addend: 0x0, symName: __ZN7doctest12TestCaseDataD2Ev, symObjAddr: 0x53F0, symBinAddr: 0x100009B30, symSize: 0x20 }
  - { offsetInCU: 0x45753, offset: 0x45753, size: 0x8, addend: 0x0, symName: __ZN7doctest6detail8TestCaseC1EPFvvEPKcjRKNS0_9TestSuiteERKNS_6StringEi, symObjAddr: 0x5410, symBinAddr: 0x100009B50, symSize: 0x50 }
  - { offsetInCU: 0x457D9, offset: 0x457D9, size: 0x8, addend: 0x0, symName: __ZN7doctest6detail8TestCaseC2ERKS1_, symObjAddr: 0x5460, symBinAddr: 0x100009BA0, symSize: 0xA0 }
  - { offsetInCU: 0x45814, offset: 0x45814, size: 0x8, addend: 0x0, symName: __ZN7doctest6detail8TestCaseaSERKS1_, symObjAddr: 0x5500, symBinAddr: 0x100009C40, symSize: 0xA0 }
  - { offsetInCU: 0x4584B, offset: 0x4584B, size: 0x8, addend: 0x0, symName: __ZN7doctest6detail8TestCaseC1ERKS1_, symObjAddr: 0x55A0, symBinAddr: 0x100009CE0, symSize: 0x30 }
  - { offsetInCU: 0x4588C, offset: 0x4588C, size: 0x8, addend: 0x0, symName: __ZN7doctest12TestCaseDataaSERKS0_, symObjAddr: 0x55D0, symBinAddr: 0x100009D10, symSize: 0x50 }
  - { offsetInCU: 0x458BE, offset: 0x458BE, size: 0x8, addend: 0x0, symName: __ZN7doctest6detail8TestCasemlEPKc, symObjAddr: 0x5620, symBinAddr: 0x100009D60, symSize: 0x230 }
  - { offsetInCU: 0x458F7, offset: 0x458F7, size: 0x8, addend: 0x0, symName: __ZNK7doctest6detail8TestCaseltERKS1_, symObjAddr: 0x5850, symBinAddr: 0x100009F90, symSize: 0xD0 }
  - { offsetInCU: 0x4594C, offset: 0x4594C, size: 0x8, addend: 0x0, symName: __ZNSt3__13setIN7doctest6detail8TestCaseENS_4lessIS3_EENS_9allocatorIS3_EEEC1B7v160006Ev, symObjAddr: 0x5990, symBinAddr: 0x10000A0D0, symSize: 0x20 }
  - { offsetInCU: 0x45976, offset: 0x45976, size: 0x8, addend: 0x0, symName: __ZNSt3__13setIN7doctest6detail8TestCaseENS_4lessIS3_EENS_9allocatorIS3_EEED1B7v160006Ev, symObjAddr: 0x59B0, symBinAddr: 0x10000A0F0, symSize: 0x20 }
  - { offsetInCU: 0x459A0, offset: 0x459A0, size: 0x8, addend: 0x0, symName: __ZNSt3__13setIN7doctest6detail8TestCaseENS_4lessIS3_EENS_9allocatorIS3_EEE6insertB7v160006ERKS3_, symObjAddr: 0x5A00, symBinAddr: 0x10000A140, symSize: 0x40 }
  - { offsetInCU: 0x459D5, offset: 0x459D5, size: 0x8, addend: 0x0, symName: __ZNSt3__16vectorIPKN7doctest6detail20IExceptionTranslatorENS_9allocatorIS5_EEE5beginB7v160006Ev, symObjAddr: 0x5CF0, symBinAddr: 0x10000A430, symSize: 0x30 }
  - { offsetInCU: 0x459FD, offset: 0x459FD, size: 0x8, addend: 0x0, symName: __ZNSt3__16vectorIPKN7doctest6detail20IExceptionTranslatorENS_9allocatorIS5_EEE3endB7v160006Ev, symObjAddr: 0x5D20, symBinAddr: 0x10000A460, symSize: 0x30 }
  - { offsetInCU: 0x45A25, offset: 0x45A25, size: 0x8, addend: 0x0, symName: __ZNSt3__16vectorIPKN7doctest6detail20IExceptionTranslatorENS_9allocatorIS5_EEE9push_backB7v160006ERKS5_, symObjAddr: 0x5D50, symBinAddr: 0x10000A490, symSize: 0x60 }
  - { offsetInCU: 0x45A5C, offset: 0x45A5C, size: 0x8, addend: 0x0, symName: __ZNSt3__16vectorIPN7doctest13IContextScopeENS_9allocatorIS3_EEEC1B7v160006Ev, symObjAddr: 0x5DB0, symBinAddr: 0x10000A4F0, symSize: 0x20 }
  - { offsetInCU: 0x45A86, offset: 0x45A86, size: 0x8, addend: 0x0, symName: __ZNSt3__16vectorIPN7doctest13IContextScopeENS_9allocatorIS3_EEED1B7v160006Ev, symObjAddr: 0x5DD0, symBinAddr: 0x10000A510, symSize: 0x20 }
  - { offsetInCU: 0x45ACD, offset: 0x45ACD, size: 0x8, addend: 0x0, symName: __ZN7doctest6detail16ContextScopeBaseC2Ev, symObjAddr: 0x5DF0, symBinAddr: 0x10000A530, symSize: 0x80 }
  - { offsetInCU: 0x45AF9, offset: 0x45AF9, size: 0x8, addend: 0x0, symName: __ZN7doctest13IContextScopeC2Ev, symObjAddr: 0x5E70, symBinAddr: 0x10000A5B0, symSize: 0x20 }
  - { offsetInCU: 0x45B23, offset: 0x45B23, size: 0x8, addend: 0x0, symName: __ZNSt3__16vectorIPN7doctest13IContextScopeENS_9allocatorIS3_EEE9push_backB7v160006EOS3_, symObjAddr: 0x5EB0, symBinAddr: 0x10000A5F0, symSize: 0x60 }
  - { offsetInCU: 0x45B5A, offset: 0x45B5A, size: 0x8, addend: 0x0, symName: __ZN7doctest6detail16ContextScopeBaseC2EOS1_, symObjAddr: 0x5F10, symBinAddr: 0x10000A650, symSize: 0x90 }
  - { offsetInCU: 0x45B95, offset: 0x45B95, size: 0x8, addend: 0x0, symName: __ZN7doctest6detail16ContextScopeBase7destroyEv, symObjAddr: 0x5FA0, symBinAddr: 0x10000A6E0, symSize: 0x190 }
  - { offsetInCU: 0x45BD3, offset: 0x45BD3, size: 0x8, addend: 0x0, symName: __ZNSt3__119basic_ostringstreamIcNS_11char_traitsIcEENS_9allocatorIcEEEC1B7v160006Ev, symObjAddr: 0x6130, symBinAddr: 0x10000A870, symSize: 0xE0 }
  - { offsetInCU: 0x45BFD, offset: 0x45BFD, size: 0x8, addend: 0x0, symName: __ZNSt3__16vectorIN7doctest6StringENS_9allocatorIS2_EEE9push_backB7v160006EOS2_, symObjAddr: 0x6210, symBinAddr: 0x10000A950, symSize: 0x60 }
  - { offsetInCU: 0x45C34, offset: 0x45C34, size: 0x8, addend: 0x0, symName: __ZNKSt3__119basic_ostringstreamIcNS_11char_traitsIcEENS_9allocatorIcEEE3strB7v160006Ev, symObjAddr: 0x6270, symBinAddr: 0x10000A9B0, symSize: 0x30 }
  - { offsetInCU: 0x45C5A, offset: 0x45C5A, size: 0x8, addend: 0x0, symName: __ZNKSt3__112basic_stringIcNS_11char_traitsIcEENS_9allocatorIcEEE5c_strB7v160006Ev, symObjAddr: 0x62A0, symBinAddr: 0x10000A9E0, symSize: 0x20 }
  - { offsetInCU: 0x45C86, offset: 0x45C86, size: 0x8, addend: 0x0, symName: __ZNSt3__119basic_ostringstreamIcNS_11char_traitsIcEENS_9allocatorIcEEED1Ev, symObjAddr: 0x62C0, symBinAddr: 0x10000AA00, symSize: 0x40 }
  - { offsetInCU: 0x45CB3, offset: 0x45CB3, size: 0x8, addend: 0x0, symName: __ZNSt3__16vectorIPN7doctest13IContextScopeENS_9allocatorIS3_EEE8pop_backEv, symObjAddr: 0x6300, symBinAddr: 0x10000AA40, symSize: 0x30 }
  - { offsetInCU: 0x45CDB, offset: 0x45CDB, size: 0x8, addend: 0x0, symName: __ZN7doctest10AssertDataC2ENS_10assertType4EnumEPKciS4_S4_RKNS0_14StringContainsE, symObjAddr: 0x6330, symBinAddr: 0x10000AA70, symSize: 0xD0 }
  - { offsetInCU: 0x45D61, offset: 0x45D61, size: 0x8, addend: 0x0, symName: __ZN7doctest10AssertData14StringContainsC1ERKS1_, symObjAddr: 0x6400, symBinAddr: 0x10000AB40, symSize: 0x30 }
  - { offsetInCU: 0x45D97, offset: 0x45D97, size: 0x8, addend: 0x0, symName: __ZN7doctest10AssertDataC1ENS_10assertType4EnumEPKciS4_S4_RKNS0_14StringContainsE, symObjAddr: 0x6430, symBinAddr: 0x10000AB70, symSize: 0x50 }
  - { offsetInCU: 0x45E3F, offset: 0x45E3F, size: 0x8, addend: 0x0, symName: __ZN7doctest6detail13ResultBuilderC2ENS_10assertType4EnumEPKciS5_S5_RKNS_6StringE, symObjAddr: 0x6480, symBinAddr: 0x10000ABC0, symSize: 0x100 }
  - { offsetInCU: 0x45EC8, offset: 0x45EC8, size: 0x8, addend: 0x0, symName: __ZN7doctest10AssertData14StringContainsC1ERKNS_6StringE, symObjAddr: 0x6580, symBinAddr: 0x10000ACC0, symSize: 0x30 }
  - { offsetInCU: 0x45F01, offset: 0x45F01, size: 0x8, addend: 0x0, symName: __ZN7doctest10AssertData14StringContainsD1Ev, symObjAddr: 0x65B0, symBinAddr: 0x10000ACF0, symSize: 0x20 }
  - { offsetInCU: 0x45F2E, offset: 0x45F2E, size: 0x8, addend: 0x0, symName: __ZN7doctest6detail13ResultBuilderC1ENS_10assertType4EnumEPKciS5_S5_RKNS_6StringE, symObjAddr: 0x65D0, symBinAddr: 0x10000AD10, symSize: 0x50 }
  - { offsetInCU: 0x45FB4, offset: 0x45FB4, size: 0x8, addend: 0x0, symName: __ZN7doctest6detail13ResultBuilderC2ENS_10assertType4EnumEPKciS5_S5_RKNS_8ContainsE, symObjAddr: 0x6620, symBinAddr: 0x10000AD60, symSize: 0x150 }
  - { offsetInCU: 0x46040, offset: 0x46040, size: 0x8, addend: 0x0, symName: __ZN7doctest8ContainsC1ERKS0_, symObjAddr: 0x6770, symBinAddr: 0x10000AEB0, symSize: 0x30 }
  - { offsetInCU: 0x46076, offset: 0x46076, size: 0x8, addend: 0x0, symName: __ZN7doctest10AssertData14StringContainsC1ENS_8ContainsE, symObjAddr: 0x67A0, symBinAddr: 0x10000AEE0, symSize: 0x20 }
  - { offsetInCU: 0x460B0, offset: 0x460B0, size: 0x8, addend: 0x0, symName: __ZN7doctest8ContainsD1Ev, symObjAddr: 0x67C0, symBinAddr: 0x10000AF00, symSize: 0x20 }
  - { offsetInCU: 0x460DD, offset: 0x460DD, size: 0x8, addend: 0x0, symName: __ZN7doctest6detail13ResultBuilderC1ENS_10assertType4EnumEPKciS5_S5_RKNS_8ContainsE, symObjAddr: 0x67E0, symBinAddr: 0x10000AF20, symSize: 0x50 }
  - { offsetInCU: 0x46163, offset: 0x46163, size: 0x8, addend: 0x0, symName: __ZN7doctest6detail13ResultBuilder9setResultERKNS0_6ResultE, symObjAddr: 0x6830, symBinAddr: 0x10000AF70, symSize: 0x50 }
  - { offsetInCU: 0x4619A, offset: 0x4619A, size: 0x8, addend: 0x0, symName: __ZN7doctest6detail13ResultBuilder18translateExceptionEv, symObjAddr: 0x6880, symBinAddr: 0x10000AFC0, symSize: 0x70 }
  - { offsetInCU: 0x461C2, offset: 0x461C2, size: 0x8, addend: 0x0, symName: __ZN7doctest6detail13ResultBuilder3logEv, symObjAddr: 0x6BE0, symBinAddr: 0x10000B320, symSize: 0x450 }
  - { offsetInCU: 0x4623E, offset: 0x4623E, size: 0x8, addend: 0x0, symName: __ZN7doctest10AssertData14StringContains5checkERKNS_6StringE, symObjAddr: 0x7030, symBinAddr: 0x10000B770, symSize: 0x60 }
  - { offsetInCU: 0x46273, offset: 0x46273, size: 0x8, addend: 0x0, symName: __ZNK7doctest6detail13ResultBuilder5reactEv, symObjAddr: 0x7160, symBinAddr: 0x10000B8A0, symSize: 0x50 }
  - { offsetInCU: 0x4629B, offset: 0x4629B, size: 0x8, addend: 0x0, symName: __ZN7doctest6detail13ResultBuilderD1Ev, symObjAddr: 0x75B0, symBinAddr: 0x10000BCF0, symSize: 0x20 }
  - { offsetInCU: 0x462E5, offset: 0x462E5, size: 0x8, addend: 0x0, symName: __ZN7doctest6detail14MessageBuilderC2EPKciNS_10assertType4EnumE, symObjAddr: 0x75D0, symBinAddr: 0x10000BD10, symSize: 0x80 }
  - { offsetInCU: 0x46344, offset: 0x46344, size: 0x8, addend: 0x0, symName: __ZN7doctest11MessageDataC2Ev, symObjAddr: 0x7650, symBinAddr: 0x10000BD90, symSize: 0x20 }
  - { offsetInCU: 0x46371, offset: 0x46371, size: 0x8, addend: 0x0, symName: __ZN7doctest11MessageDataD2Ev, symObjAddr: 0x7670, symBinAddr: 0x10000BDB0, symSize: 0x20 }
  - { offsetInCU: 0x4639E, offset: 0x4639E, size: 0x8, addend: 0x0, symName: __ZN7doctest6detail14MessageBuilderC1EPKciNS_10assertType4EnumE, symObjAddr: 0x7690, symBinAddr: 0x10000BDD0, symSize: 0x30 }
  - { offsetInCU: 0x463F7, offset: 0x463F7, size: 0x8, addend: 0x0, symName: __ZN7doctest6detail14MessageBuilderD2Ev, symObjAddr: 0x76C0, symBinAddr: 0x10000BE00, symSize: 0x80 }
  - { offsetInCU: 0x46423, offset: 0x46423, size: 0x8, addend: 0x0, symName: __ZN7doctest6detail14MessageBuilderD1Ev, symObjAddr: 0x7740, symBinAddr: 0x10000BE80, symSize: 0x20 }
  - { offsetInCU: 0x4644F, offset: 0x4644F, size: 0x8, addend: 0x0, symName: __ZN7doctest6detail20IExceptionTranslatorD2Ev, symObjAddr: 0x7760, symBinAddr: 0x10000BEA0, symSize: 0x10 }
  - { offsetInCU: 0x4647B, offset: 0x4647B, size: 0x8, addend: 0x0, symName: __ZN7doctest6detail20IExceptionTranslatorD1Ev, symObjAddr: 0x7770, symBinAddr: 0x10000BEB0, symSize: 0x10 }
  - { offsetInCU: 0x464A7, offset: 0x464A7, size: 0x8, addend: 0x0, symName: __ZN7doctest6detail20IExceptionTranslatorD0Ev, symObjAddr: 0x7780, symBinAddr: 0x10000BEC0, symSize: 0x10 }
  - { offsetInCU: 0x464D3, offset: 0x464D3, size: 0x8, addend: 0x0, symName: __ZN7doctest6detail14MessageBuilder3logEv, symObjAddr: 0x7790, symBinAddr: 0x10000BED0, symSize: 0x1A0 }
  - { offsetInCU: 0x4655B, offset: 0x4655B, size: 0x8, addend: 0x0, symName: __ZN7doctest6detail14MessageBuilder5reactEv, symObjAddr: 0x7930, symBinAddr: 0x10000C070, symSize: 0x30 }
  - { offsetInCU: 0x465AB, offset: 0x465AB, size: 0x8, addend: 0x0, symName: __ZN7doctest7ContextC2EiPKPKc, symObjAddr: 0x7A20, symBinAddr: 0x10000C160, symSize: 0xF0 }
  - { offsetInCU: 0x465F5, offset: 0x465F5, size: 0x8, addend: 0x0, symName: __ZN7doctest6detail12ContextStateC1Ev, symObjAddr: 0x7B10, symBinAddr: 0x10000C250, symSize: 0x20 }
  - { offsetInCU: 0x46622, offset: 0x46622, size: 0x8, addend: 0x0, symName: __ZN7doctest7Context9parseArgsEiPKPKcb, symObjAddr: 0x7B30, symBinAddr: 0x10000C270, symSize: 0x2C60 }
  - { offsetInCU: 0x466A2, offset: 0x466A2, size: 0x8, addend: 0x0, symName: __ZN7doctest7ContextC1EiPKPKc, symObjAddr: 0xA790, symBinAddr: 0x10000EED0, symSize: 0x30 }
  - { offsetInCU: 0x466EC, offset: 0x466EC, size: 0x8, addend: 0x0, symName: __ZN7doctest7ContextD2Ev, symObjAddr: 0xA7C0, symBinAddr: 0x10000EF00, symSize: 0x60 }
  - { offsetInCU: 0x46718, offset: 0x46718, size: 0x8, addend: 0x0, symName: __ZN7doctest6detail12ContextStateD1Ev, symObjAddr: 0xA820, symBinAddr: 0x10000EF60, symSize: 0x20 }
  - { offsetInCU: 0x46745, offset: 0x46745, size: 0x8, addend: 0x0, symName: __ZN7doctest7ContextD1Ev, symObjAddr: 0xA840, symBinAddr: 0x10000EF80, symSize: 0x20 }
  - { offsetInCU: 0x46771, offset: 0x46771, size: 0x8, addend: 0x0, symName: __ZN7doctest7Context16applyCommandLineEiPKPKc, symObjAddr: 0xA860, symBinAddr: 0x10000EFA0, symSize: 0xA0 }
  - { offsetInCU: 0x467B7, offset: 0x467B7, size: 0x8, addend: 0x0, symName: __ZN7doctest7Context9addFilterEPKcS2_, symObjAddr: 0xB0A0, symBinAddr: 0x10000F7E0, symSize: 0x30 }
  - { offsetInCU: 0x467FD, offset: 0x467FD, size: 0x8, addend: 0x0, symName: __ZN7doctest7Context9setOptionEPKcS2_, symObjAddr: 0xB0D0, symBinAddr: 0x10000F810, symSize: 0x280 }
  - { offsetInCU: 0x46865, offset: 0x46865, size: 0x8, addend: 0x0, symName: __ZN7doctest7Context12clearFiltersEv, symObjAddr: 0xB350, symBinAddr: 0x10000FA90, symSize: 0x80 }
  - { offsetInCU: 0x468DC, offset: 0x468DC, size: 0x8, addend: 0x0, symName: __ZNSt3__16vectorINS0_IN7doctest6StringENS_9allocatorIS2_EEEENS3_IS5_EEE5beginB7v160006Ev, symObjAddr: 0xB3D0, symBinAddr: 0x10000FB10, symSize: 0x30 }
  - { offsetInCU: 0x46904, offset: 0x46904, size: 0x8, addend: 0x0, symName: __ZNSt3__16vectorINS0_IN7doctest6StringENS_9allocatorIS2_EEEENS3_IS5_EEE3endB7v160006Ev, symObjAddr: 0xB400, symBinAddr: 0x10000FB40, symSize: 0x30 }
  - { offsetInCU: 0x4692C, offset: 0x4692C, size: 0x8, addend: 0x0, symName: __ZNKSt3__111__wrap_iterIPNS_6vectorIN7doctest6StringENS_9allocatorIS3_EEEEEdeB7v160006Ev, symObjAddr: 0xB460, symBinAddr: 0x10000FBA0, symSize: 0x20 }
  - { offsetInCU: 0x46952, offset: 0x46952, size: 0x8, addend: 0x0, symName: __ZNSt3__16vectorIN7doctest6StringENS_9allocatorIS2_EEE5clearB7v160006Ev, symObjAddr: 0xB480, symBinAddr: 0x10000FBC0, symSize: 0x50 }
  - { offsetInCU: 0x46987, offset: 0x46987, size: 0x8, addend: 0x0, symName: __ZNSt3__111__wrap_iterIPNS_6vectorIN7doctest6StringENS_9allocatorIS3_EEEEEppB7v160006Ev, symObjAddr: 0xB4D0, symBinAddr: 0x10000FC10, symSize: 0x20 }
  - { offsetInCU: 0x469AD, offset: 0x469AD, size: 0x8, addend: 0x0, symName: __ZN7doctest7Context9setOptionEPKcb, symObjAddr: 0xB4F0, symBinAddr: 0x10000FC30, symSize: 0x50 }
  - { offsetInCU: 0x469F3, offset: 0x469F3, size: 0x8, addend: 0x0, symName: __ZN7doctest7Context9setOptionEPKci, symObjAddr: 0xB540, symBinAddr: 0x10000FC80, symSize: 0xC0 }
  - { offsetInCU: 0x46A39, offset: 0x46A39, size: 0x8, addend: 0x0, symName: __ZN7doctest7Context10shouldExitEv, symObjAddr: 0xB600, symBinAddr: 0x10000FD40, symSize: 0x20 }
  - { offsetInCU: 0x46A61, offset: 0x46A61, size: 0x8, addend: 0x0, symName: __ZN7doctest7Context36setAsDefaultForAssertsOutOfTestCasesEv, symObjAddr: 0xB620, symBinAddr: 0x10000FD60, symSize: 0x20 }
  - { offsetInCU: 0x46A89, offset: 0x46A89, size: 0x8, addend: 0x0, symName: __ZN7doctest7Context16setAssertHandlerEPFvRKNS_10AssertDataEE, symObjAddr: 0xB640, symBinAddr: 0x10000FD80, symSize: 0x20 }
  - { offsetInCU: 0x46AC0, offset: 0x46AC0, size: 0x8, addend: 0x0, symName: __ZN7doctest7Context7setCoutEPNSt3__113basic_ostreamIcNS1_11char_traitsIcEEEE, symObjAddr: 0xB660, symBinAddr: 0x10000FDA0, symSize: 0x20 }
  - { offsetInCU: 0x46AF7, offset: 0x46AF7, size: 0x8, addend: 0x0, symName: __ZN7doctest14DiscardOStreamC1Ev, symObjAddr: 0xB680, symBinAddr: 0x10000FDC0, symSize: 0xE0 }
  - { offsetInCU: 0x46B21, offset: 0x46B21, size: 0x8, addend: 0x0, symName: __ZN7doctest14DiscardOStreamD1Ev, symObjAddr: 0xB760, symBinAddr: 0x10000FEA0, symSize: 0x40 }
  - { offsetInCU: 0x46B4E, offset: 0x46B4E, size: 0x8, addend: 0x0, symName: __ZN7doctest7Context3runEv, symObjAddr: 0xB7A0, symBinAddr: 0x10000FEE0, symSize: 0x1BF0 }
  - { offsetInCU: 0x47135, offset: 0x47135, size: 0x8, addend: 0x0, symName: __ZN7doctest6detail12ContextState12resetRunDataEv, symObjAddr: 0xD390, symBinAddr: 0x100011AD0, symSize: 0x60 }
  - { offsetInCU: 0x4720C, offset: 0x4720C, size: 0x8, addend: 0x0, symName: __ZNSt3__113basic_fstreamIcNS_11char_traitsIcEEEC1Ev, symObjAddr: 0xD3F0, symBinAddr: 0x100011B30, symSize: 0xF0 }
  - { offsetInCU: 0x47238, offset: 0x47238, size: 0x8, addend: 0x0, symName: __ZNSt3__113basic_fstreamIcNS_11char_traitsIcEEE4openEPKcj, symObjAddr: 0xD4E0, symBinAddr: 0x100011C20, symSize: 0x70 }
  - { offsetInCU: 0x4727E, offset: 0x4727E, size: 0x8, addend: 0x0, symName: __ZN7doctest12_GLOBAL__N_121FatalConditionHandler19allocateAltStackMemEv, symObjAddr: 0xD550, symBinAddr: 0x100011C90, symSize: 0x20 }
  - { offsetInCU: 0x47292, offset: 0x47292, size: 0x8, addend: 0x0, symName: __ZNKSt3__16vectorIN7doctest6StringENS_9allocatorIS2_EEE5emptyB7v160006Ev, symObjAddr: 0xD570, symBinAddr: 0x100011CB0, symSize: 0x20 }
  - { offsetInCU: 0x472B8, offset: 0x472B8, size: 0x8, addend: 0x0, symName: __ZNSt3__13mapINS_4pairIiN7doctest6StringEEEPFPNS2_9IReporterERKNS2_14ContextOptionsEENS_4lessIS4_EENS_9allocatorINS1_IKS4_SB_EEEEE5beginB7v160006Ev, symObjAddr: 0xD600, symBinAddr: 0x100011D40, symSize: 0x30 }
  - { offsetInCU: 0x472DE, offset: 0x472DE, size: 0x8, addend: 0x0, symName: __ZNSt3__13mapINS_4pairIiN7doctest6StringEEEPFPNS2_9IReporterERKNS2_14ContextOptionsEENS_4lessIS4_EENS_9allocatorINS1_IKS4_SB_EEEEE3endB7v160006Ev, symObjAddr: 0xD630, symBinAddr: 0x100011D70, symSize: 0x30 }
  - { offsetInCU: 0x47304, offset: 0x47304, size: 0x8, addend: 0x0, symName: __ZNKSt3__114__map_iteratorINS_15__tree_iteratorINS_12__value_typeINS_4pairIiN7doctest6StringEEEPFPNS4_9IReporterERKNS4_14ContextOptionsEEEEPNS_11__tree_nodeISE_PvEElEEEdeB7v160006Ev, symObjAddr: 0xD690, symBinAddr: 0x100011DD0, symSize: 0x30 }
  - { offsetInCU: 0x4732A, offset: 0x4732A, size: 0x8, addend: 0x0, symName: __ZNSt3__16vectorIPN7doctest9IReporterENS_9allocatorIS3_EEE9push_backB7v160006EOS3_, symObjAddr: 0xD6C0, symBinAddr: 0x100011E00, symSize: 0x60 }
  - { offsetInCU: 0x47361, offset: 0x47361, size: 0x8, addend: 0x0, symName: __ZNSt3__114__map_iteratorINS_15__tree_iteratorINS_12__value_typeINS_4pairIiN7doctest6StringEEEPFPNS4_9IReporterERKNS4_14ContextOptionsEEEEPNS_11__tree_nodeISE_PvEElEEEppB7v160006Ev, symObjAddr: 0xD720, symBinAddr: 0x100011E60, symSize: 0x30 }
  - { offsetInCU: 0x47387, offset: 0x47387, size: 0x8, addend: 0x0, symName: __ZNSt3__16vectorIPN7doctest9IReporterENS_9allocatorIS3_EEE6insertENS_11__wrap_iterIPKS3_EEOS3_, symObjAddr: 0xD7C0, symBinAddr: 0x100011F00, symSize: 0x1C0 }
  - { offsetInCU: 0x47407, offset: 0x47407, size: 0x8, addend: 0x0, symName: __ZNSt3__111__wrap_iterIPKPN7doctest9IReporterEEC1B7v160006IPS3_EERKNS0_IT_EEPNS_9enable_ifIXsr14is_convertibleIS9_S5_EE5valueEvE4typeE, symObjAddr: 0xD980, symBinAddr: 0x1000120C0, symSize: 0x30 }
  - { offsetInCU: 0x4745A, offset: 0x4745A, size: 0x8, addend: 0x0, symName: __ZN7doctest9QueryDataC1Ev, symObjAddr: 0xD9B0, symBinAddr: 0x1000120F0, symSize: 0x20 }
  - { offsetInCU: 0x474A4, offset: 0x474A4, size: 0x8, addend: 0x0, symName: '__ZZN7doctest7Context3runEvENK3$_1clEv', symObjAddr: 0xD9D0, symBinAddr: 0x100012110, symSize: 0x140 }
  - { offsetInCU: 0x4751D, offset: 0x4751D, size: 0x8, addend: 0x0, symName: __ZNSt3__16vectorIPKN7doctest6detail8TestCaseENS_9allocatorIS5_EEEC1B7v160006Ev, symObjAddr: 0xDB10, symBinAddr: 0x100012250, symSize: 0x20 }
  - { offsetInCU: 0x47547, offset: 0x47547, size: 0x8, addend: 0x0, symName: __ZNSt3__13setIN7doctest6detail8TestCaseENS_4lessIS3_EENS_9allocatorIS3_EEE5beginB7v160006Ev, symObjAddr: 0xDB30, symBinAddr: 0x100012270, symSize: 0x30 }
  - { offsetInCU: 0x4756D, offset: 0x4756D, size: 0x8, addend: 0x0, symName: __ZNSt3__13setIN7doctest6detail8TestCaseENS_4lessIS3_EENS_9allocatorIS3_EEE3endB7v160006Ev, symObjAddr: 0xDB60, symBinAddr: 0x1000122A0, symSize: 0x30 }
  - { offsetInCU: 0x47593, offset: 0x47593, size: 0x8, addend: 0x0, symName: __ZNKSt3__121__tree_const_iteratorIN7doctest6detail8TestCaseEPNS_11__tree_nodeIS3_PvEElEdeB7v160006Ev, symObjAddr: 0xDBC0, symBinAddr: 0x100012300, symSize: 0x20 }
  - { offsetInCU: 0x475B9, offset: 0x475B9, size: 0x8, addend: 0x0, symName: __ZNSt3__16vectorIPKN7doctest6detail8TestCaseENS_9allocatorIS5_EEE9push_backB7v160006EOS5_, symObjAddr: 0xDBE0, symBinAddr: 0x100012320, symSize: 0x60 }
  - { offsetInCU: 0x475F0, offset: 0x475F0, size: 0x8, addend: 0x0, symName: __ZNSt3__121__tree_const_iteratorIN7doctest6detail8TestCaseEPNS_11__tree_nodeIS3_PvEElEppB7v160006Ev, symObjAddr: 0xDC40, symBinAddr: 0x100012380, symSize: 0x30 }
  - { offsetInCU: 0x47616, offset: 0x47616, size: 0x8, addend: 0x0, symName: __ZNKSt3__16vectorIPKN7doctest6detail8TestCaseENS_9allocatorIS5_EEE4sizeB7v160006Ev, symObjAddr: 0xDC70, symBinAddr: 0x1000123B0, symSize: 0x20 }
  - { offsetInCU: 0x4763C, offset: 0x4763C, size: 0x8, addend: 0x0, symName: __ZNKSt3__16vectorIPKN7doctest6detail8TestCaseENS_9allocatorIS5_EEE5emptyB7v160006Ev, symObjAddr: 0xDC90, symBinAddr: 0x1000123D0, symSize: 0x20 }
  - { offsetInCU: 0x47662, offset: 0x47662, size: 0x8, addend: 0x0, symName: __ZNSt3__16vectorIPKN7doctest6detail8TestCaseENS_9allocatorIS5_EEE5beginB7v160006Ev, symObjAddr: 0xDCF0, symBinAddr: 0x100012430, symSize: 0x30 }
  - { offsetInCU: 0x4768A, offset: 0x4768A, size: 0x8, addend: 0x0, symName: __ZNSt3__16vectorIPKN7doctest6detail8TestCaseENS_9allocatorIS5_EEE3endB7v160006Ev, symObjAddr: 0xDD20, symBinAddr: 0x100012460, symSize: 0x30 }
  - { offsetInCU: 0x476B2, offset: 0x476B2, size: 0x8, addend: 0x0, symName: __ZNSt3__16vectorIPKN7doctest6detail8TestCaseENS_9allocatorIS5_EEEixB7v160006Em, symObjAddr: 0xDEC0, symBinAddr: 0x100012600, symSize: 0x20 }
  - { offsetInCU: 0x4781A, offset: 0x4781A, size: 0x8, addend: 0x0, symName: __ZNSt3__13setIN7doctest6StringENS_4lessIS2_EENS_9allocatorIS2_EEEC1B7v160006Ev, symObjAddr: 0xDEE0, symBinAddr: 0x100012620, symSize: 0x20 }
  - { offsetInCU: 0x47844, offset: 0x47844, size: 0x8, addend: 0x0, symName: __ZNSt3__16vectorIPKN7doctest12TestCaseDataENS_9allocatorIS4_EEEC1B7v160006Ev, symObjAddr: 0xDF00, symBinAddr: 0x100012640, symSize: 0x20 }
  - { offsetInCU: 0x4786E, offset: 0x4786E, size: 0x8, addend: 0x0, symName: __ZNKSt3__111__wrap_iterIPPKN7doctest6detail8TestCaseEEdeB7v160006Ev, symObjAddr: 0xDF50, symBinAddr: 0x100012690, symSize: 0x20 }
  - { offsetInCU: 0x47894, offset: 0x47894, size: 0x8, addend: 0x0, symName: __ZNSt3__16vectorIPKN7doctest12TestCaseDataENS_9allocatorIS4_EEE9push_backB7v160006EOS4_, symObjAddr: 0xDF70, symBinAddr: 0x1000126B0, symSize: 0x60 }
  - { offsetInCU: 0x478CB, offset: 0x478CB, size: 0x8, addend: 0x0, symName: __ZNKSt3__13setIN7doctest6StringENS_4lessIS2_EENS_9allocatorIS2_EEE5countB7v160006ERKS2_, symObjAddr: 0xDFD0, symBinAddr: 0x100012710, symSize: 0x30 }
  - { offsetInCU: 0x47900, offset: 0x47900, size: 0x8, addend: 0x0, symName: __ZNSt3__13setIN7doctest6StringENS_4lessIS2_EENS_9allocatorIS2_EEE6insertB7v160006EOS2_, symObjAddr: 0xE000, symBinAddr: 0x100012740, symSize: 0x40 }
  - { offsetInCU: 0x47935, offset: 0x47935, size: 0x8, addend: 0x0, symName: __ZN7doctest6detail15MultiLaneAtomicIiEaSEi, symObjAddr: 0xE040, symBinAddr: 0x100012780, symSize: 0x30 }
  - { offsetInCU: 0x4796A, offset: 0x4796A, size: 0x8, addend: 0x0, symName: __ZNSt3__113unordered_setIyNS_4hashIyEENS_8equal_toIyEENS_9allocatorIyEEE5clearB7v160006Ev, symObjAddr: 0xE070, symBinAddr: 0x1000127B0, symSize: 0x20 }
  - { offsetInCU: 0x47990, offset: 0x47990, size: 0x8, addend: 0x0, symName: __ZN7doctest6detail5Timer5startEv, symObjAddr: 0xE090, symBinAddr: 0x1000127D0, symSize: 0x30 }
  - { offsetInCU: 0x479B6, offset: 0x479B6, size: 0x8, addend: 0x0, symName: __ZN7doctest12_GLOBAL__N_121FatalConditionHandlerC1Ev, symObjAddr: 0xE0C0, symBinAddr: 0x100012800, symSize: 0x20 }
  - { offsetInCU: 0x479E0, offset: 0x479E0, size: 0x8, addend: 0x0, symName: __ZN7doctest12_GLOBAL__N_121FatalConditionHandler5resetEv, symObjAddr: 0xE0E0, symBinAddr: 0x100012820, symSize: 0x90 }
  - { offsetInCU: 0x47A12, offset: 0x47A12, size: 0x8, addend: 0x0, symName: __ZN7doctest12_GLOBAL__N_121FatalConditionHandlerD1Ev, symObjAddr: 0xE170, symBinAddr: 0x1000128B0, symSize: 0x20 }
  - { offsetInCU: 0x47A3C, offset: 0x47A3C, size: 0x8, addend: 0x0, symName: __ZN7doctest6detail12ContextState20finalizeTestCaseDataEv, symObjAddr: 0xE190, symBinAddr: 0x1000128D0, symSize: 0x310 }
  - { offsetInCU: 0x47A72, offset: 0x47A72, size: 0x8, addend: 0x0, symName: __ZNSt3__111__wrap_iterIPPKN7doctest6detail8TestCaseEEppB7v160006Ev, symObjAddr: 0xE4A0, symBinAddr: 0x100012BE0, symSize: 0x20 }
  - { offsetInCU: 0x47A98, offset: 0x47A98, size: 0x8, addend: 0x0, symName: __ZNSt3__16vectorIPKN7doctest12TestCaseDataENS_9allocatorIS4_EEE4dataB7v160006Ev, symObjAddr: 0xE4C0, symBinAddr: 0x100012C00, symSize: 0x20 }
  - { offsetInCU: 0x47ABE, offset: 0x47ABE, size: 0x8, addend: 0x0, symName: __ZNKSt3__16vectorIPKN7doctest12TestCaseDataENS_9allocatorIS4_EEE4sizeB7v160006Ev, symObjAddr: 0xE4E0, symBinAddr: 0x100012C20, symSize: 0x20 }
  - { offsetInCU: 0x47AE4, offset: 0x47AE4, size: 0x8, addend: 0x0, symName: __ZNSt3__16vectorIPKN7doctest12TestCaseDataENS_9allocatorIS4_EEED1B7v160006Ev, symObjAddr: 0xE500, symBinAddr: 0x100012C40, symSize: 0x20 }
  - { offsetInCU: 0x47B0E, offset: 0x47B0E, size: 0x8, addend: 0x0, symName: __ZNSt3__13setIN7doctest6StringENS_4lessIS2_EENS_9allocatorIS2_EEED1B7v160006Ev, symObjAddr: 0xE520, symBinAddr: 0x100012C60, symSize: 0x20 }
  - { offsetInCU: 0x47B38, offset: 0x47B38, size: 0x8, addend: 0x0, symName: __ZNSt3__16vectorIPKN7doctest6detail8TestCaseENS_9allocatorIS5_EEED1B7v160006Ev, symObjAddr: 0xE540, symBinAddr: 0x100012C80, symSize: 0x20 }
  - { offsetInCU: 0x47B68, offset: 0x47B68, size: 0x8, addend: 0x0, symName: __ZNSt3__113basic_fstreamIcNS_11char_traitsIcEEED1Ev, symObjAddr: 0xE560, symBinAddr: 0x100012CA0, symSize: 0x40 }
  - { offsetInCU: 0x47B94, offset: 0x47B94, size: 0x8, addend: 0x0, symName: __ZN7doctest9IReporterD2Ev, symObjAddr: 0xE5A0, symBinAddr: 0x100012CE0, symSize: 0x10 }
  - { offsetInCU: 0x47BC0, offset: 0x47BC0, size: 0x8, addend: 0x0, symName: __ZN7doctest9IReporterD1Ev, symObjAddr: 0xE5B0, symBinAddr: 0x100012CF0, symSize: 0x10 }
  - { offsetInCU: 0x47BEC, offset: 0x47BEC, size: 0x8, addend: 0x0, symName: __ZN7doctest9IReporterD0Ev, symObjAddr: 0xE5C0, symBinAddr: 0x100012D00, symSize: 0x10 }
  - { offsetInCU: 0x47C18, offset: 0x47C18, size: 0x8, addend: 0x0, symName: __ZN7doctest9IReporter23get_num_active_contextsEv, symObjAddr: 0xE5D0, symBinAddr: 0x100012D10, symSize: 0x20 }
  - { offsetInCU: 0x47C2E, offset: 0x47C2E, size: 0x8, addend: 0x0, symName: __ZNKSt3__16vectorIPN7doctest13IContextScopeENS_9allocatorIS3_EEE4sizeB7v160006Ev, symObjAddr: 0xE5F0, symBinAddr: 0x100012D30, symSize: 0x20 }
  - { offsetInCU: 0x47C54, offset: 0x47C54, size: 0x8, addend: 0x0, symName: __ZN7doctest9IReporter19get_active_contextsEv, symObjAddr: 0xE610, symBinAddr: 0x100012D50, symSize: 0x50 }
  - { offsetInCU: 0x47C6A, offset: 0x47C6A, size: 0x8, addend: 0x0, symName: __ZNSt3__16vectorIPN7doctest13IContextScopeENS_9allocatorIS3_EEEixB7v160006Em, symObjAddr: 0xE660, symBinAddr: 0x100012DA0, symSize: 0x20 }
  - { offsetInCU: 0x47CA1, offset: 0x47CA1, size: 0x8, addend: 0x0, symName: __ZN7doctest9IReporter28get_num_stringified_contextsEv, symObjAddr: 0xE680, symBinAddr: 0x100012DC0, symSize: 0x20 }
  - { offsetInCU: 0x47CB7, offset: 0x47CB7, size: 0x8, addend: 0x0, symName: __ZNKSt3__16vectorIN7doctest6StringENS_9allocatorIS2_EEE4sizeB7v160006Ev, symObjAddr: 0xE6A0, symBinAddr: 0x100012DE0, symSize: 0x30 }
  - { offsetInCU: 0x47CDD, offset: 0x47CDD, size: 0x8, addend: 0x0, symName: __ZN7doctest9IReporter24get_stringified_contextsEv, symObjAddr: 0xE6D0, symBinAddr: 0x100012E10, symSize: 0x50 }
  - { offsetInCU: 0x47CF3, offset: 0x47CF3, size: 0x8, addend: 0x0, symName: __ZNSt3__16vectorIN7doctest6StringENS_9allocatorIS2_EEEixB7v160006Em, symObjAddr: 0xE720, symBinAddr: 0x100012E60, symSize: 0x20 }
  - { offsetInCU: 0x47D2A, offset: 0x47D2A, size: 0x8, addend: 0x0, symName: __ZNSt3__13mapINS_4pairIiN7doctest6StringEEEPFPNS2_9IReporterERKNS2_14ContextOptionsEENS_4lessIS4_EENS_9allocatorINS1_IKS4_SB_EEEEE6insertB7v160006EOSG_, symObjAddr: 0xE950, symBinAddr: 0x100013090, symSize: 0x40 }
  - { offsetInCU: 0x47D65, offset: 0x47D65, size: 0x8, addend: 0x0, symName: __ZNSt3__14pairIiN7doctest6StringEEC1B7v160006IRiRPKcLPv0EEEOT_OT0_, symObjAddr: 0xE990, symBinAddr: 0x1000130D0, symSize: 0x30 }
  - { offsetInCU: 0x47DCB, offset: 0x47DCB, size: 0x8, addend: 0x0, symName: __ZNSt3__14pairIKNS0_IiN7doctest6StringEEEPFPNS1_9IReporterERKNS1_14ContextOptionsEEEC1B7v160006IS3_RSB_LPv0EEEOT_OT0_, symObjAddr: 0xE9C0, symBinAddr: 0x100013100, symSize: 0x30 }
  - { offsetInCU: 0x47E2B, offset: 0x47E2B, size: 0x8, addend: 0x0, symName: __ZNSt3__14pairIKNS0_IiN7doctest6StringEEEPFPNS1_9IReporterERKNS1_14ContextOptionsEEED1Ev, symObjAddr: 0xE9F0, symBinAddr: 0x100013130, symSize: 0x20 }
  - { offsetInCU: 0x47E57, offset: 0x47E57, size: 0x8, addend: 0x0, symName: __ZNSt3__14pairIiN7doctest6StringEED1Ev, symObjAddr: 0xEA10, symBinAddr: 0x100013150, symSize: 0x20 }
  - { offsetInCU: 0x47E83, offset: 0x47E83, size: 0x8, addend: 0x0, symName: _main, symObjAddr: 0xEA30, symBinAddr: 0x100013170, symSize: 0x80 }
  - { offsetInCU: 0x47EBD, offset: 0x47EBD, size: 0x8, addend: 0x0, symName: __ZL20DOCTEST_ANON_FUNC_14v, symObjAddr: 0xEAB0, symBinAddr: 0x1000131F0, symSize: 0x1E50 }
  - { offsetInCU: 0x480F0, offset: 0x480F0, size: 0x8, addend: 0x0, symName: __ZN7doctest6detail8TestCaseD1Ev, symObjAddr: 0x10900, symBinAddr: 0x100015040, symSize: 0x20 }
  - { offsetInCU: 0x4811A, offset: 0x4811A, size: 0x8, addend: 0x0, symName: __ZL20DOCTEST_ANON_FUNC_20v, symObjAddr: 0x10920, symBinAddr: 0x100015060, symSize: 0x1E50 }
  - { offsetInCU: 0x4834D, offset: 0x4834D, size: 0x8, addend: 0x0, symName: __ZL20DOCTEST_ANON_FUNC_26v, symObjAddr: 0x12770, symBinAddr: 0x100016EB0, symSize: 0x1880 }
  - { offsetInCU: 0x48518, offset: 0x48518, size: 0x8, addend: 0x0, symName: __ZL20DOCTEST_ANON_FUNC_31v, symObjAddr: 0x13FF0, symBinAddr: 0x100018730, symSize: 0x1B50 }
  - { offsetInCU: 0x48713, offset: 0x48713, size: 0x8, addend: 0x0, symName: __ZL20DOCTEST_ANON_FUNC_36v, symObjAddr: 0x15B40, symBinAddr: 0x10001A280, symSize: 0x870 }
  - { offsetInCU: 0x48815, offset: 0x48815, size: 0x8, addend: 0x0, symName: __ZL20DOCTEST_ANON_FUNC_38v, symObjAddr: 0x163B0, symBinAddr: 0x10001AAF0, symSize: 0x1620 }
  - { offsetInCU: 0x489DF, offset: 0x489DF, size: 0x8, addend: 0x0, symName: __Z5func1RKd, symObjAddr: 0x179D0, symBinAddr: 0x10001C110, symSize: 0x40 }
  - { offsetInCU: 0x48A0D, offset: 0x48A0D, size: 0x8, addend: 0x0, symName: __Z6dfunc1RKd, symObjAddr: 0x17A10, symBinAddr: 0x10001C150, symSize: 0x60 }
  - { offsetInCU: 0x48A3B, offset: 0x48A3B, size: 0x8, addend: 0x0, symName: __Z5func2RKd, symObjAddr: 0x17A70, symBinAddr: 0x10001C1B0, symSize: 0x90 }
  - { offsetInCU: 0x48A87, offset: 0x48A87, size: 0x8, addend: 0x0, symName: __Z6dfunc2RKd, symObjAddr: 0x17B00, symBinAddr: 0x10001C240, symSize: 0xA0 }
  - { offsetInCU: 0x48AE3, offset: 0x48AE3, size: 0x8, addend: 0x0, symName: __Z5func3RKd, symObjAddr: 0x17BA0, symBinAddr: 0x10001C2E0, symSize: 0x70 }
  - { offsetInCU: 0x48B11, offset: 0x48B11, size: 0x8, addend: 0x0, symName: __Z6dfunc3RKd, symObjAddr: 0x17C10, symBinAddr: 0x10001C350, symSize: 0xA0 }
  - { offsetInCU: 0x48B3F, offset: 0x48B3F, size: 0x8, addend: 0x0, symName: __Z5func4RKd, symObjAddr: 0x17CB0, symBinAddr: 0x10001C3F0, symSize: 0x70 }
  - { offsetInCU: 0x48B7C, offset: 0x48B7C, size: 0x8, addend: 0x0, symName: __Z6dfunc4RKd, symObjAddr: 0x17D20, symBinAddr: 0x10001C460, symSize: 0x60 }
  - { offsetInCU: 0x48BBA, offset: 0x48BBA, size: 0x8, addend: 0x0, symName: __ZN7doctest6detail16ContextScopeBaseD1Ev, symObjAddr: 0x17D80, symBinAddr: 0x10001C4C0, symSize: 0x10 }
  - { offsetInCU: 0x48BE4, offset: 0x48BE4, size: 0x8, addend: 0x0, symName: __ZN7doctest6detail16ContextScopeBaseD0Ev, symObjAddr: 0x17D90, symBinAddr: 0x10001C4D0, symSize: 0x10 }
  - { offsetInCU: 0x48C0E, offset: 0x48C0E, size: 0x8, addend: 0x0, symName: __ZN7doctest6detail9TestSuiteC2Ev, symObjAddr: 0x17DA0, symBinAddr: 0x10001C4E0, symSize: 0x40 }
  - { offsetInCU: 0x48C3B, offset: 0x48C3B, size: 0x8, addend: 0x0, symName: '__ZN7doctest6detail3$_0C2Ev', symObjAddr: 0x17DE0, symBinAddr: 0x10001C520, symSize: 0x50 }
  - { offsetInCU: 0x48C68, offset: 0x48C68, size: 0x8, addend: 0x0, symName: __ZNSt3__16vectorINS_4fposI11__mbstate_tEENS_9allocatorIS3_EEEC1B7v160006Ev, symObjAddr: 0x17E30, symBinAddr: 0x10001C570, symSize: 0x20 }
  - { offsetInCU: 0x48C92, offset: 0x48C92, size: 0x8, addend: 0x0, symName: __ZNSt3__118basic_stringstreamIcNS_11char_traitsIcEENS_9allocatorIcEEEC1B7v160006Ev, symObjAddr: 0x17E50, symBinAddr: 0x10001C590, symSize: 0x100 }
  - { offsetInCU: 0x48CBC, offset: 0x48CBC, size: 0x8, addend: 0x0, symName: __ZNSt3__16vectorINS_4fposI11__mbstate_tEENS_9allocatorIS3_EEED1B7v160006Ev, symObjAddr: 0x17F50, symBinAddr: 0x10001C690, symSize: 0x20 }
  - { offsetInCU: 0x48CE6, offset: 0x48CE6, size: 0x8, addend: 0x0, symName: __ZNSt3__16vectorINS_4fposI11__mbstate_tEENS_9allocatorIS3_EEEC2B7v160006Ev, symObjAddr: 0x17F70, symBinAddr: 0x10001C6B0, symSize: 0x60 }
  - { offsetInCU: 0x48D1C, offset: 0x48D1C, size: 0x8, addend: 0x0, symName: __ZNSt3__117__compressed_pairIPNS_4fposI11__mbstate_tEENS_9allocatorIS3_EEEC1B7v160006IDnNS_18__default_init_tagEEEOT_OT0_, symObjAddr: 0x17FD0, symBinAddr: 0x10001C710, symSize: 0x30 }
  - { offsetInCU: 0x48D76, offset: 0x48D76, size: 0x8, addend: 0x0, symName: __ZNSt3__117__compressed_pairIPNS_4fposI11__mbstate_tEENS_9allocatorIS3_EEEC2B7v160006IDnNS_18__default_init_tagEEEOT_OT0_, symObjAddr: 0x18010, symBinAddr: 0x10001C750, symSize: 0x40 }
  - { offsetInCU: 0x48DD0, offset: 0x48DD0, size: 0x8, addend: 0x0, symName: __ZNSt3__122__compressed_pair_elemIPNS_4fposI11__mbstate_tEELi0ELb0EEC2B7v160006IDnvEEOT_, symObjAddr: 0x18050, symBinAddr: 0x10001C790, symSize: 0x20 }
  - { offsetInCU: 0x48E13, offset: 0x48E13, size: 0x8, addend: 0x0, symName: __ZNSt3__122__compressed_pair_elemINS_9allocatorINS_4fposI11__mbstate_tEEEELi1ELb1EEC2B7v160006ENS_18__default_init_tagE, symObjAddr: 0x18070, symBinAddr: 0x10001C7B0, symSize: 0x20 }
  - { offsetInCU: 0x48E48, offset: 0x48E48, size: 0x8, addend: 0x0, symName: __ZNSt3__19allocatorINS_4fposI11__mbstate_tEEEC2B7v160006Ev, symObjAddr: 0x18090, symBinAddr: 0x10001C7D0, symSize: 0x20 }
  - { offsetInCU: 0x48E72, offset: 0x48E72, size: 0x8, addend: 0x0, symName: __ZNSt3__116__non_trivial_ifILb1ENS_9allocatorINS_4fposI11__mbstate_tEEEEEC2B7v160006Ev, symObjAddr: 0x180B0, symBinAddr: 0x10001C7F0, symSize: 0x10 }
  - { offsetInCU: 0x48E9C, offset: 0x48E9C, size: 0x8, addend: 0x0, symName: __ZNSt3__19basic_iosIcNS_11char_traitsIcEEEC2B7v160006Ev, symObjAddr: 0x180C0, symBinAddr: 0x10001C800, symSize: 0x40 }
  - { offsetInCU: 0x48EC6, offset: 0x48EC6, size: 0x8, addend: 0x0, symName: __ZNSt3__114basic_iostreamIcNS_11char_traitsIcEEEC2B7v160006EPNS_15basic_streambufIcS2_EE, symObjAddr: 0x18100, symBinAddr: 0x10001C840, symSize: 0xA0 }
  - { offsetInCU: 0x48F0C, offset: 0x48F0C, size: 0x8, addend: 0x0, symName: __ZNSt3__115basic_stringbufIcNS_11char_traitsIcEENS_9allocatorIcEEEC1B7v160006Ej, symObjAddr: 0x181A0, symBinAddr: 0x10001C8E0, symSize: 0x30 }
  - { offsetInCU: 0x48F45, offset: 0x48F45, size: 0x8, addend: 0x0, symName: __ZNSt3__18ios_baseC2B7v160006Ev, symObjAddr: 0x181D0, symBinAddr: 0x10001C910, symSize: 0x20 }
  - { offsetInCU: 0x48F6F, offset: 0x48F6F, size: 0x8, addend: 0x0, symName: __ZNSt3__113basic_istreamIcNS_11char_traitsIcEEEC2B7v160006EPNS_15basic_streambufIcS2_EE, symObjAddr: 0x181F0, symBinAddr: 0x10001C930, symSize: 0x50 }
  - { offsetInCU: 0x48FB5, offset: 0x48FB5, size: 0x8, addend: 0x0, symName: __ZNSt3__113basic_ostreamIcNS_11char_traitsIcEEEC2B7v160006Ev, symObjAddr: 0x18240, symBinAddr: 0x10001C980, symSize: 0x30 }
  - { offsetInCU: 0x48FEC, offset: 0x48FEC, size: 0x8, addend: 0x0, symName: __ZNSt3__19basic_iosIcNS_11char_traitsIcEEE4initB7v160006EPNS_15basic_streambufIcS2_EE, symObjAddr: 0x18270, symBinAddr: 0x10001C9B0, symSize: 0x50 }
  - { offsetInCU: 0x49023, offset: 0x49023, size: 0x8, addend: 0x0, symName: __ZNSt3__111char_traitsIcE3eofEv, symObjAddr: 0x182C0, symBinAddr: 0x10001CA00, symSize: 0x10 }
  - { offsetInCU: 0x49037, offset: 0x49037, size: 0x8, addend: 0x0, symName: __ZNSt3__115basic_stringbufIcNS_11char_traitsIcEENS_9allocatorIcEEEC2B7v160006Ej, symObjAddr: 0x182D0, symBinAddr: 0x10001CA10, symSize: 0x50 }
  - { offsetInCU: 0x49070, offset: 0x49070, size: 0x8, addend: 0x0, symName: __ZNSt3__112basic_stringIcNS_11char_traitsIcEENS_9allocatorIcEEEC1B7v160006Ev, symObjAddr: 0x18320, symBinAddr: 0x10001CA60, symSize: 0x20 }
  - { offsetInCU: 0x4909A, offset: 0x4909A, size: 0x8, addend: 0x0, symName: __ZNSt3__112basic_stringIcNS_11char_traitsIcEENS_9allocatorIcEEEC2B7v160006Ev, symObjAddr: 0x18340, symBinAddr: 0x10001CA80, symSize: 0x50 }
  - { offsetInCU: 0x490C4, offset: 0x490C4, size: 0x8, addend: 0x0, symName: __ZNSt3__117__compressed_pairINS_12basic_stringIcNS_11char_traitsIcEENS_9allocatorIcEEE5__repES5_EC1B7v160006INS_18__default_init_tagESA_EEOT_OT0_, symObjAddr: 0x18390, symBinAddr: 0x10001CAD0, symSize: 0x30 }
  - { offsetInCU: 0x4911E, offset: 0x4911E, size: 0x8, addend: 0x0, symName: __ZNSt3__112basic_stringIcNS_11char_traitsIcEENS_9allocatorIcEEE14__default_initB7v160006Ev, symObjAddr: 0x183D0, symBinAddr: 0x10001CB10, symSize: 0x50 }
  - { offsetInCU: 0x49144, offset: 0x49144, size: 0x8, addend: 0x0, symName: __ZNSt3__117__compressed_pairINS_12basic_stringIcNS_11char_traitsIcEENS_9allocatorIcEEE5__repES5_EC2B7v160006INS_18__default_init_tagESA_EEOT_OT0_, symObjAddr: 0x18420, symBinAddr: 0x10001CB60, symSize: 0x30 }
  - { offsetInCU: 0x4919E, offset: 0x4919E, size: 0x8, addend: 0x0, symName: __ZNSt3__122__compressed_pair_elemINS_12basic_stringIcNS_11char_traitsIcEENS_9allocatorIcEEE5__repELi0ELb0EEC2B7v160006ENS_18__default_init_tagE, symObjAddr: 0x18450, symBinAddr: 0x10001CB90, symSize: 0x10 }
  - { offsetInCU: 0x491D3, offset: 0x491D3, size: 0x8, addend: 0x0, symName: __ZNSt3__122__compressed_pair_elemINS_9allocatorIcEELi1ELb1EEC2B7v160006ENS_18__default_init_tagE, symObjAddr: 0x18460, symBinAddr: 0x10001CBA0, symSize: 0x20 }
  - { offsetInCU: 0x49208, offset: 0x49208, size: 0x8, addend: 0x0, symName: __ZNSt3__19allocatorIcEC2B7v160006Ev, symObjAddr: 0x18480, symBinAddr: 0x10001CBC0, symSize: 0x20 }
  - { offsetInCU: 0x49232, offset: 0x49232, size: 0x8, addend: 0x0, symName: __ZNSt3__116__non_trivial_ifILb1ENS_9allocatorIcEEEC2B7v160006Ev, symObjAddr: 0x184A0, symBinAddr: 0x10001CBE0, symSize: 0x10 }
  - { offsetInCU: 0x4925C, offset: 0x4925C, size: 0x8, addend: 0x0, symName: __ZNSt3__117__compressed_pairINS_12basic_stringIcNS_11char_traitsIcEENS_9allocatorIcEEE5__repES5_E5firstB7v160006Ev, symObjAddr: 0x184B0, symBinAddr: 0x10001CBF0, symSize: 0x20 }
  - { offsetInCU: 0x49282, offset: 0x49282, size: 0x8, addend: 0x0, symName: __ZNSt3__122__compressed_pair_elemINS_12basic_stringIcNS_11char_traitsIcEENS_9allocatorIcEEE5__repELi0ELb0EE5__getB7v160006Ev, symObjAddr: 0x184D0, symBinAddr: 0x10001CC10, symSize: 0x10 }
  - { offsetInCU: 0x492A8, offset: 0x492A8, size: 0x8, addend: 0x0, symName: __ZNSt3__16vectorINS_4fposI11__mbstate_tEENS_9allocatorIS3_EEED2B7v160006Ev, symObjAddr: 0x184E0, symBinAddr: 0x10001CC20, symSize: 0x40 }
  - { offsetInCU: 0x492D2, offset: 0x492D2, size: 0x8, addend: 0x0, symName: __ZNSt3__16vectorINS_4fposI11__mbstate_tEENS_9allocatorIS3_EEE16__destroy_vectorC1ERS6_, symObjAddr: 0x18520, symBinAddr: 0x10001CC60, symSize: 0x30 }
  - { offsetInCU: 0x4930B, offset: 0x4930B, size: 0x8, addend: 0x0, symName: __ZNSt3__16vectorINS_4fposI11__mbstate_tEENS_9allocatorIS3_EEE16__destroy_vectorclB7v160006Ev, symObjAddr: 0x18550, symBinAddr: 0x10001CC90, symSize: 0x90 }
  - { offsetInCU: 0x49331, offset: 0x49331, size: 0x8, addend: 0x0, symName: __ZNSt3__16vectorINS_4fposI11__mbstate_tEENS_9allocatorIS3_EEE16__destroy_vectorC2ERS6_, symObjAddr: 0x185E0, symBinAddr: 0x10001CD20, symSize: 0x20 }
  - { offsetInCU: 0x4936A, offset: 0x4936A, size: 0x8, addend: 0x0, symName: __ZNKSt3__16vectorINS_4fposI11__mbstate_tEENS_9allocatorIS3_EEE17__annotate_deleteB7v160006Ev, symObjAddr: 0x18600, symBinAddr: 0x10001CD40, symSize: 0xC0 }
  - { offsetInCU: 0x49390, offset: 0x49390, size: 0x8, addend: 0x0, symName: __ZNSt3__16vectorINS_4fposI11__mbstate_tEENS_9allocatorIS3_EEE7__clearB7v160006Ev, symObjAddr: 0x186D0, symBinAddr: 0x10001CE10, symSize: 0x20 }
  - { offsetInCU: 0x493B6, offset: 0x493B6, size: 0x8, addend: 0x0, symName: __ZNSt3__116allocator_traitsINS_9allocatorINS_4fposI11__mbstate_tEEEEE10deallocateB7v160006ERS5_PS4_m, symObjAddr: 0x186F0, symBinAddr: 0x10001CE30, symSize: 0x30 }
  - { offsetInCU: 0x493F8, offset: 0x493F8, size: 0x8, addend: 0x0, symName: __ZNSt3__16vectorINS_4fposI11__mbstate_tEENS_9allocatorIS3_EEE7__allocB7v160006Ev, symObjAddr: 0x18720, symBinAddr: 0x10001CE60, symSize: 0x20 }
  - { offsetInCU: 0x4941E, offset: 0x4941E, size: 0x8, addend: 0x0, symName: __ZNKSt3__16vectorINS_4fposI11__mbstate_tEENS_9allocatorIS3_EEE8capacityB7v160006Ev, symObjAddr: 0x18740, symBinAddr: 0x10001CE80, symSize: 0x40 }
  - { offsetInCU: 0x49444, offset: 0x49444, size: 0x8, addend: 0x0, symName: __ZNKSt3__16vectorINS_4fposI11__mbstate_tEENS_9allocatorIS3_EEE31__annotate_contiguous_containerB7v160006EPKvS8_S8_S8_, symObjAddr: 0x18780, symBinAddr: 0x10001CEC0, symSize: 0x20 }
  - { offsetInCU: 0x49496, offset: 0x49496, size: 0x8, addend: 0x0, symName: __ZNKSt3__16vectorINS_4fposI11__mbstate_tEENS_9allocatorIS3_EEE4dataB7v160006Ev, symObjAddr: 0x187A0, symBinAddr: 0x10001CEE0, symSize: 0x20 }
  - { offsetInCU: 0x494BC, offset: 0x494BC, size: 0x8, addend: 0x0, symName: __ZNKSt3__16vectorINS_4fposI11__mbstate_tEENS_9allocatorIS3_EEE4sizeB7v160006Ev, symObjAddr: 0x187C0, symBinAddr: 0x10001CF00, symSize: 0x30 }
  - { offsetInCU: 0x494E2, offset: 0x494E2, size: 0x8, addend: 0x0, symName: __ZNSt3__16vectorINS_4fposI11__mbstate_tEENS_9allocatorIS3_EEE22__base_destruct_at_endB7v160006EPS3_, symObjAddr: 0x18800, symBinAddr: 0x10001CF40, symSize: 0x80 }
  - { offsetInCU: 0x49526, offset: 0x49526, size: 0x8, addend: 0x0, symName: __ZNSt3__116allocator_traitsINS_9allocatorINS_4fposI11__mbstate_tEEEEE7destroyB7v160006IS4_vEEvRS5_PT_, symObjAddr: 0x18880, symBinAddr: 0x10001CFC0, symSize: 0x30 }
  - { offsetInCU: 0x49563, offset: 0x49563, size: 0x8, addend: 0x0, symName: __ZNSt3__19allocatorINS_4fposI11__mbstate_tEEE7destroyB7v160006EPS3_, symObjAddr: 0x188B0, symBinAddr: 0x10001CFF0, symSize: 0x10 }
  - { offsetInCU: 0x49598, offset: 0x49598, size: 0x8, addend: 0x0, symName: __ZNSt3__19allocatorINS_4fposI11__mbstate_tEEE10deallocateB7v160006EPS3_m, symObjAddr: 0x188C0, symBinAddr: 0x10001D000, symSize: 0x50 }
  - { offsetInCU: 0x495DC, offset: 0x495DC, size: 0x8, addend: 0x0, symName: __ZNSt3__117__compressed_pairIPNS_4fposI11__mbstate_tEENS_9allocatorIS3_EEE6secondB7v160006Ev, symObjAddr: 0x18A30, symBinAddr: 0x10001D170, symSize: 0x20 }
  - { offsetInCU: 0x49602, offset: 0x49602, size: 0x8, addend: 0x0, symName: __ZNSt3__122__compressed_pair_elemINS_9allocatorINS_4fposI11__mbstate_tEEEELi1ELb1EE5__getB7v160006Ev, symObjAddr: 0x18A50, symBinAddr: 0x10001D190, symSize: 0x10 }
  - { offsetInCU: 0x49628, offset: 0x49628, size: 0x8, addend: 0x0, symName: __ZNKSt3__16vectorINS_4fposI11__mbstate_tEENS_9allocatorIS3_EEE9__end_capB7v160006Ev, symObjAddr: 0x18A60, symBinAddr: 0x10001D1A0, symSize: 0x20 }
  - { offsetInCU: 0x4964E, offset: 0x4964E, size: 0x8, addend: 0x0, symName: __ZNKSt3__117__compressed_pairIPNS_4fposI11__mbstate_tEENS_9allocatorIS3_EEE5firstB7v160006Ev, symObjAddr: 0x18A80, symBinAddr: 0x10001D1C0, symSize: 0x20 }
  - { offsetInCU: 0x49674, offset: 0x49674, size: 0x8, addend: 0x0, symName: __ZNKSt3__122__compressed_pair_elemIPNS_4fposI11__mbstate_tEELi0ELb0EE5__getB7v160006Ev, symObjAddr: 0x18AA0, symBinAddr: 0x10001D1E0, symSize: 0x10 }
  - { offsetInCU: 0x4969A, offset: 0x4969A, size: 0x8, addend: 0x0, symName: '__ZN7doctest6detail3$_0D2Ev', symObjAddr: 0x18AB0, symBinAddr: 0x10001D1F0, symSize: 0x30 }
  - { offsetInCU: 0x496CD, offset: 0x496CD, size: 0x8, addend: 0x0, symName: __ZNSt3__118basic_stringstreamIcNS_11char_traitsIcEENS_9allocatorIcEEED1Ev, symObjAddr: 0x18AE0, symBinAddr: 0x10001D220, symSize: 0x40 }
  - { offsetInCU: 0x496FA, offset: 0x496FA, size: 0x8, addend: 0x0, symName: __ZNSt3__118basic_stringstreamIcNS_11char_traitsIcEENS_9allocatorIcEEED2Ev, symObjAddr: 0x18B20, symBinAddr: 0x10001D260, symSize: 0x60 }
  - { offsetInCU: 0x49734, offset: 0x49734, size: 0x8, addend: 0x0, symName: __ZThn16_NSt3__118basic_stringstreamIcNS_11char_traitsIcEENS_9allocatorIcEEED1Ev, symObjAddr: 0x18B80, symBinAddr: 0x10001D2C0, symSize: 0x20 }
  - { offsetInCU: 0x4974B, offset: 0x4974B, size: 0x8, addend: 0x0, symName: __ZTv0_n24_NSt3__118basic_stringstreamIcNS_11char_traitsIcEENS_9allocatorIcEEED1Ev, symObjAddr: 0x18BA0, symBinAddr: 0x10001D2E0, symSize: 0x20 }
  - { offsetInCU: 0x49768, offset: 0x49768, size: 0x8, addend: 0x0, symName: __ZNSt3__115basic_stringbufIcNS_11char_traitsIcEENS_9allocatorIcEEED1Ev, symObjAddr: 0x18BC0, symBinAddr: 0x10001D300, symSize: 0x20 }
  - { offsetInCU: 0x49795, offset: 0x49795, size: 0x8, addend: 0x0, symName: __ZNSt3__115basic_stringbufIcNS_11char_traitsIcEENS_9allocatorIcEEED2Ev, symObjAddr: 0x18BE0, symBinAddr: 0x10001D320, symSize: 0x40 }
  - { offsetInCU: 0x497C2, offset: 0x497C2, size: 0x8, addend: 0x0, symName: __ZNSt3__16vectorINS_4fposI11__mbstate_tEENS_9allocatorIS3_EEE9push_backB7v160006EOS3_, symObjAddr: 0x18C20, symBinAddr: 0x10001D360, symSize: 0x60 }
  - { offsetInCU: 0x497F9, offset: 0x497F9, size: 0x8, addend: 0x0, symName: __ZNSt3__113basic_ostreamIcNS_11char_traitsIcEEE5tellpEv, symObjAddr: 0x18C80, symBinAddr: 0x10001D3C0, symSize: 0x80 }
  - { offsetInCU: 0x49821, offset: 0x49821, size: 0x8, addend: 0x0, symName: __ZNSt3__16vectorINS_4fposI11__mbstate_tEENS_9allocatorIS3_EEE9__end_capB7v160006Ev, symObjAddr: 0x18D00, symBinAddr: 0x10001D440, symSize: 0x20 }
  - { offsetInCU: 0x4984D, offset: 0x4984D, size: 0x8, addend: 0x0, symName: __ZNSt3__16vectorINS_4fposI11__mbstate_tEENS_9allocatorIS3_EEE22__construct_one_at_endB7v160006IJS3_EEEvDpOT_, symObjAddr: 0x18D20, symBinAddr: 0x10001D460, symSize: 0x90 }
  - { offsetInCU: 0x4989C, offset: 0x4989C, size: 0x8, addend: 0x0, symName: __ZNSt3__16vectorINS_4fposI11__mbstate_tEENS_9allocatorIS3_EEE21__push_back_slow_pathIS3_EEvOT_, symObjAddr: 0x18DB0, symBinAddr: 0x10001D4F0, symSize: 0xD0 }
  - { offsetInCU: 0x498FA, offset: 0x498FA, size: 0x8, addend: 0x0, symName: __ZNSt3__117__compressed_pairIPNS_4fposI11__mbstate_tEENS_9allocatorIS3_EEE5firstB7v160006Ev, symObjAddr: 0x18E80, symBinAddr: 0x10001D5C0, symSize: 0x20 }
  - { offsetInCU: 0x49920, offset: 0x49920, size: 0x8, addend: 0x0, symName: __ZNSt3__122__compressed_pair_elemIPNS_4fposI11__mbstate_tEELi0ELb0EE5__getB7v160006Ev, symObjAddr: 0x18EA0, symBinAddr: 0x10001D5E0, symSize: 0x10 }
  - { offsetInCU: 0x49962, offset: 0x49962, size: 0x8, addend: 0x0, symName: __ZNSt3__16vectorINS_4fposI11__mbstate_tEENS_9allocatorIS3_EEE21_ConstructTransactionC1B7v160006ERS6_m, symObjAddr: 0x18EB0, symBinAddr: 0x10001D5F0, symSize: 0x30 }
  - { offsetInCU: 0x499AA, offset: 0x499AA, size: 0x8, addend: 0x0, symName: __ZNSt3__116allocator_traitsINS_9allocatorINS_4fposI11__mbstate_tEEEEE9constructB7v160006IS4_JS4_EvEEvRS5_PT_DpOT0_, symObjAddr: 0x18EE0, symBinAddr: 0x10001D620, symSize: 0x30 }
  - { offsetInCU: 0x49A01, offset: 0x49A01, size: 0x8, addend: 0x0, symName: __ZNSt3__16vectorINS_4fposI11__mbstate_tEENS_9allocatorIS3_EEE21_ConstructTransactionD1B7v160006Ev, symObjAddr: 0x18F10, symBinAddr: 0x10001D650, symSize: 0x20 }
  - { offsetInCU: 0x49A2B, offset: 0x49A2B, size: 0x8, addend: 0x0, symName: __ZNSt3__16vectorINS_4fposI11__mbstate_tEENS_9allocatorIS3_EEE21_ConstructTransactionC2B7v160006ERS6_m, symObjAddr: 0x18F30, symBinAddr: 0x10001D670, symSize: 0x40 }
  - { offsetInCU: 0x49A73, offset: 0x49A73, size: 0x8, addend: 0x0, symName: __ZNSt3__19allocatorINS_4fposI11__mbstate_tEEE9constructB7v160006IS3_JS3_EEEvPT_DpOT0_, symObjAddr: 0x18F70, symBinAddr: 0x10001D6B0, symSize: 0x30 }
  - { offsetInCU: 0x49ACB, offset: 0x49ACB, size: 0x8, addend: 0x0, symName: __ZNSt3__16vectorINS_4fposI11__mbstate_tEENS_9allocatorIS3_EEE21_ConstructTransactionD2B7v160006Ev, symObjAddr: 0x18FA0, symBinAddr: 0x10001D6E0, symSize: 0x20 }
  - { offsetInCU: 0x49AF5, offset: 0x49AF5, size: 0x8, addend: 0x0, symName: __ZNKSt3__16vectorINS_4fposI11__mbstate_tEENS_9allocatorIS3_EEE11__recommendB7v160006Em, symObjAddr: 0x18FC0, symBinAddr: 0x10001D700, symSize: 0xA0 }
  - { offsetInCU: 0x49B4A, offset: 0x49B4A, size: 0x8, addend: 0x0, symName: __ZNSt3__114__split_bufferINS_4fposI11__mbstate_tEERNS_9allocatorIS3_EEEC1EmmS6_, symObjAddr: 0x19060, symBinAddr: 0x10001D7A0, symSize: 0x40 }
  - { offsetInCU: 0x49BA3, offset: 0x49BA3, size: 0x8, addend: 0x0, symName: __ZNSt3__114__split_bufferINS_4fposI11__mbstate_tEERNS_9allocatorIS3_EEED1Ev, symObjAddr: 0x191D0, symBinAddr: 0x10001D910, symSize: 0x20 }
  - { offsetInCU: 0x49BCF, offset: 0x49BCF, size: 0x8, addend: 0x0, symName: __ZNKSt3__16vectorINS_4fposI11__mbstate_tEENS_9allocatorIS3_EEE8max_sizeEv, symObjAddr: 0x191F0, symBinAddr: 0x10001D930, symSize: 0x60 }
  - { offsetInCU: 0x49BF7, offset: 0x49BF7, size: 0x8, addend: 0x0, symName: __ZNKSt3__16vectorINS_4fposI11__mbstate_tEENS_9allocatorIS3_EEE20__throw_length_errorB7v160006Ev, symObjAddr: 0x19250, symBinAddr: 0x10001D990, symSize: 0x20 }
  - { offsetInCU: 0x49C28, offset: 0x49C28, size: 0x8, addend: 0x0, symName: __ZNSt3__116allocator_traitsINS_9allocatorINS_4fposI11__mbstate_tEEEEE8max_sizeB7v160006IS5_vEEmRKS5_, symObjAddr: 0x192D0, symBinAddr: 0x10001DA10, symSize: 0x20 }
  - { offsetInCU: 0x49C56, offset: 0x49C56, size: 0x8, addend: 0x0, symName: __ZNKSt3__16vectorINS_4fposI11__mbstate_tEENS_9allocatorIS3_EEE7__allocB7v160006Ev, symObjAddr: 0x192F0, symBinAddr: 0x10001DA30, symSize: 0x20 }
  - { offsetInCU: 0x49C7C, offset: 0x49C7C, size: 0x8, addend: 0x0, symName: __ZNSt3__114numeric_limitsIlE3maxB7v160006Ev, symObjAddr: 0x19310, symBinAddr: 0x10001DA50, symSize: 0x10 }
  - { offsetInCU: 0x49C9B, offset: 0x49C9B, size: 0x8, addend: 0x0, symName: __ZNKSt3__16__lessImmEclB7v160006ERKmS3_, symObjAddr: 0x19370, symBinAddr: 0x10001DAB0, symSize: 0x30 }
  - { offsetInCU: 0x49CDF, offset: 0x49CDF, size: 0x8, addend: 0x0, symName: __ZNKSt3__19allocatorINS_4fposI11__mbstate_tEEE8max_sizeB7v160006Ev, symObjAddr: 0x193A0, symBinAddr: 0x10001DAE0, symSize: 0x20 }
  - { offsetInCU: 0x49D05, offset: 0x49D05, size: 0x8, addend: 0x0, symName: __ZNKSt3__117__compressed_pairIPNS_4fposI11__mbstate_tEENS_9allocatorIS3_EEE6secondB7v160006Ev, symObjAddr: 0x193C0, symBinAddr: 0x10001DB00, symSize: 0x20 }
  - { offsetInCU: 0x49D2B, offset: 0x49D2B, size: 0x8, addend: 0x0, symName: __ZNKSt3__122__compressed_pair_elemINS_9allocatorINS_4fposI11__mbstate_tEEEELi1ELb1EE5__getB7v160006Ev, symObjAddr: 0x193E0, symBinAddr: 0x10001DB20, symSize: 0x10 }
  - { offsetInCU: 0x49D51, offset: 0x49D51, size: 0x8, addend: 0x0, symName: __ZNSt3__123__libcpp_numeric_limitsIlLb1EE3maxB7v160006Ev, symObjAddr: 0x193F0, symBinAddr: 0x10001DB30, symSize: 0x10 }
  - { offsetInCU: 0x49D65, offset: 0x49D65, size: 0x8, addend: 0x0, symName: __ZNSt12length_errorC1B7v160006EPKc, symObjAddr: 0x19470, symBinAddr: 0x10001DBB0, symSize: 0x30 }
  - { offsetInCU: 0x49D9E, offset: 0x49D9E, size: 0x8, addend: 0x0, symName: __ZNSt12length_errorC2B7v160006EPKc, symObjAddr: 0x194A0, symBinAddr: 0x10001DBE0, symSize: 0x40 }
  - { offsetInCU: 0x49DD7, offset: 0x49DD7, size: 0x8, addend: 0x0, symName: __ZNSt3__114__split_bufferINS_4fposI11__mbstate_tEERNS_9allocatorIS3_EEEC2EmmS6_, symObjAddr: 0x19530, symBinAddr: 0x10001DC70, symSize: 0xD0 }
  - { offsetInCU: 0x49E4D, offset: 0x49E4D, size: 0x8, addend: 0x0, symName: __ZNSt3__117__compressed_pairIPNS_4fposI11__mbstate_tEERNS_9allocatorIS3_EEEC1B7v160006IDnS7_EEOT_OT0_, symObjAddr: 0x19600, symBinAddr: 0x10001DD40, symSize: 0x30 }
  - { offsetInCU: 0x49EA7, offset: 0x49EA7, size: 0x8, addend: 0x0, symName: __ZNSt3__114__split_bufferINS_4fposI11__mbstate_tEERNS_9allocatorIS3_EEE7__allocB7v160006Ev, symObjAddr: 0x19670, symBinAddr: 0x10001DDB0, symSize: 0x20 }
  - { offsetInCU: 0x49ECD, offset: 0x49ECD, size: 0x8, addend: 0x0, symName: __ZNSt3__114__split_bufferINS_4fposI11__mbstate_tEERNS_9allocatorIS3_EEE9__end_capB7v160006Ev, symObjAddr: 0x19690, symBinAddr: 0x10001DDD0, symSize: 0x20 }
  - { offsetInCU: 0x49EF3, offset: 0x49EF3, size: 0x8, addend: 0x0, symName: __ZNSt3__117__compressed_pairIPNS_4fposI11__mbstate_tEERNS_9allocatorIS3_EEEC2B7v160006IDnS7_EEOT_OT0_, symObjAddr: 0x196B0, symBinAddr: 0x10001DDF0, symSize: 0x40 }
  - { offsetInCU: 0x49F4D, offset: 0x49F4D, size: 0x8, addend: 0x0, symName: __ZNSt3__122__compressed_pair_elemIRNS_9allocatorINS_4fposI11__mbstate_tEEEELi1ELb0EEC2B7v160006IS6_vEEOT_, symObjAddr: 0x196F0, symBinAddr: 0x10001DE30, symSize: 0x20 }
  - { offsetInCU: 0x49F90, offset: 0x49F90, size: 0x8, addend: 0x0, symName: __ZNSt3__19allocatorINS_4fposI11__mbstate_tEEE8allocateB7v160006Em, symObjAddr: 0x19710, symBinAddr: 0x10001DE50, symSize: 0x50 }
  - { offsetInCU: 0x49FC5, offset: 0x49FC5, size: 0x8, addend: 0x0, symName: __ZNSt3__117__compressed_pairIPNS_4fposI11__mbstate_tEERNS_9allocatorIS3_EEE6secondB7v160006Ev, symObjAddr: 0x19850, symBinAddr: 0x10001DF90, symSize: 0x20 }
  - { offsetInCU: 0x49FEB, offset: 0x49FEB, size: 0x8, addend: 0x0, symName: __ZNSt3__122__compressed_pair_elemIRNS_9allocatorINS_4fposI11__mbstate_tEEEELi1ELb0EE5__getB7v160006Ev, symObjAddr: 0x19870, symBinAddr: 0x10001DFB0, symSize: 0x20 }
  - { offsetInCU: 0x4A011, offset: 0x4A011, size: 0x8, addend: 0x0, symName: __ZNSt3__117__compressed_pairIPNS_4fposI11__mbstate_tEERNS_9allocatorIS3_EEE5firstB7v160006Ev, symObjAddr: 0x19890, symBinAddr: 0x10001DFD0, symSize: 0x20 }
  - { offsetInCU: 0x4A037, offset: 0x4A037, size: 0x8, addend: 0x0, symName: __ZNSt3__116reverse_iteratorIPNS_4fposI11__mbstate_tEEEC1B7v160006ES4_, symObjAddr: 0x19920, symBinAddr: 0x10001E060, symSize: 0x30 }
  - { offsetInCU: 0x4A070, offset: 0x4A070, size: 0x8, addend: 0x0, symName: __ZNKSt3__116reverse_iteratorIPNS_4fposI11__mbstate_tEEE4baseB7v160006Ev, symObjAddr: 0x19950, symBinAddr: 0x10001E090, symSize: 0x20 }
  - { offsetInCU: 0x4A096, offset: 0x4A096, size: 0x8, addend: 0x0, symName: __ZNKSt3__16vectorINS_4fposI11__mbstate_tEENS_9allocatorIS3_EEE14__annotate_newB7v160006Em, symObjAddr: 0x199B0, symBinAddr: 0x10001E0F0, symSize: 0xB0 }
  - { offsetInCU: 0x4A0F3, offset: 0x4A0F3, size: 0x8, addend: 0x0, symName: __ZNKSt3__111__move_loopINS_17_ClassicAlgPolicyEEclB7v160006INS_16reverse_iteratorIPNS_4fposI11__mbstate_tEEEES9_S9_EENS_4pairIT_T1_EESB_T0_SC_, symObjAddr: 0x19EB0, symBinAddr: 0x10001E5F0, symSize: 0xA0 }
  - { offsetInCU: 0x4A161, offset: 0x4A161, size: 0x8, addend: 0x0, symName: __ZNSt3__18_IterOpsINS_17_ClassicAlgPolicyEE11__iter_moveB7v160006IRNS_16reverse_iteratorIPNS_4fposI11__mbstate_tEEEEEENS_9enable_ifIXsr12is_referenceIDTdeclsr3stdE7declvalIRT_EEEEE5valueEDTclsr3stdE4movedeclsr3stdE7declvalISD_EEEEE4typeEOSC_, symObjAddr: 0x1A0D0, symBinAddr: 0x10001E810, symSize: 0x20 }
  - { offsetInCU: 0x4A18E, offset: 0x4A18E, size: 0x8, addend: 0x0, symName: __ZNKSt3__116reverse_iteratorIPNS_4fposI11__mbstate_tEEEdeB7v160006Ev, symObjAddr: 0x1A0F0, symBinAddr: 0x10001E830, symSize: 0x30 }
  - { offsetInCU: 0x4A1C3, offset: 0x4A1C3, size: 0x8, addend: 0x0, symName: __ZNSt3__116reverse_iteratorIPNS_4fposI11__mbstate_tEEEppB7v160006Ev, symObjAddr: 0x1A120, symBinAddr: 0x10001E860, symSize: 0x20 }
  - { offsetInCU: 0x4A1E9, offset: 0x4A1E9, size: 0x8, addend: 0x0, symName: __ZNSt3__18_IterOpsINS_17_ClassicAlgPolicyEE25__validate_iter_referenceB7v160006IRNS_16reverse_iteratorIPNS_4fposI11__mbstate_tEEEEEEvv, symObjAddr: 0x1A140, symBinAddr: 0x10001E880, symSize: 0x10 }
  - { offsetInCU: 0x4A207, offset: 0x4A207, size: 0x8, addend: 0x0, symName: __ZNSt3__118__unwrap_iter_implINS_16reverse_iteratorIPNS_4fposI11__mbstate_tEEEELb0EE8__unwrapB7v160006ES6_, symObjAddr: 0x1A150, symBinAddr: 0x10001E890, symSize: 0x20 }
  - { offsetInCU: 0x4A231, offset: 0x4A231, size: 0x8, addend: 0x0, symName: __ZNSt3__14pairINS_16reverse_iteratorIPNS_4fposI11__mbstate_tEEEES6_EC1B7v160006IS6_S6_LPv0EEEOT_OT0_, symObjAddr: 0x1A170, symBinAddr: 0x10001E8B0, symSize: 0x30 }
  - { offsetInCU: 0x4A291, offset: 0x4A291, size: 0x8, addend: 0x0, symName: __ZNSt3__14pairINS_16reverse_iteratorIPNS_4fposI11__mbstate_tEEEES6_EC2B7v160006IS6_S6_LPv0EEEOT_OT0_, symObjAddr: 0x1A1A0, symBinAddr: 0x10001E8E0, symSize: 0x40 }
  - { offsetInCU: 0x4A2F1, offset: 0x4A2F1, size: 0x8, addend: 0x0, symName: __ZNSt3__118__unwrap_iter_implINS_16reverse_iteratorIPNS_4fposI11__mbstate_tEEEELb0EE8__rewrapB7v160006ES6_S6_, symObjAddr: 0x1A1E0, symBinAddr: 0x10001E920, symSize: 0x30 }
  - { offsetInCU: 0x4A320, offset: 0x4A320, size: 0x8, addend: 0x0, symName: __ZNSt3__116reverse_iteratorIPNS_4fposI11__mbstate_tEEEC2B7v160006ES4_, symObjAddr: 0x1A210, symBinAddr: 0x10001E950, symSize: 0x30 }
  - { offsetInCU: 0x4A359, offset: 0x4A359, size: 0x8, addend: 0x0, symName: __ZNSt3__114__split_bufferINS_4fposI11__mbstate_tEERNS_9allocatorIS3_EEED2Ev, symObjAddr: 0x1A240, symBinAddr: 0x10001E980, symSize: 0x70 }
  - { offsetInCU: 0x4A385, offset: 0x4A385, size: 0x8, addend: 0x0, symName: __ZNSt3__114__split_bufferINS_4fposI11__mbstate_tEERNS_9allocatorIS3_EEE5clearB7v160006Ev, symObjAddr: 0x1A2B0, symBinAddr: 0x10001E9F0, symSize: 0x20 }
  - { offsetInCU: 0x4A3AB, offset: 0x4A3AB, size: 0x8, addend: 0x0, symName: __ZNKSt3__114__split_bufferINS_4fposI11__mbstate_tEERNS_9allocatorIS3_EEE8capacityB7v160006Ev, symObjAddr: 0x1A2D0, symBinAddr: 0x10001EA10, symSize: 0x40 }
  - { offsetInCU: 0x4A3D1, offset: 0x4A3D1, size: 0x8, addend: 0x0, symName: __ZNSt3__114__split_bufferINS_4fposI11__mbstate_tEERNS_9allocatorIS3_EEE17__destruct_at_endB7v160006EPS3_, symObjAddr: 0x1A310, symBinAddr: 0x10001EA50, symSize: 0x30 }
  - { offsetInCU: 0x4A406, offset: 0x4A406, size: 0x8, addend: 0x0, symName: __ZNSt3__114__split_bufferINS_4fposI11__mbstate_tEERNS_9allocatorIS3_EEE17__destruct_at_endB7v160006EPS3_NS_17integral_constantIbLb0EEE, symObjAddr: 0x1A340, symBinAddr: 0x10001EA80, symSize: 0x80 }
  - { offsetInCU: 0x4A448, offset: 0x4A448, size: 0x8, addend: 0x0, symName: __ZNKSt3__114__split_bufferINS_4fposI11__mbstate_tEERNS_9allocatorIS3_EEE9__end_capB7v160006Ev, symObjAddr: 0x1A3C0, symBinAddr: 0x10001EB00, symSize: 0x20 }
  - { offsetInCU: 0x4A46E, offset: 0x4A46E, size: 0x8, addend: 0x0, symName: __ZNKSt3__117__compressed_pairIPNS_4fposI11__mbstate_tEERNS_9allocatorIS3_EEE5firstB7v160006Ev, symObjAddr: 0x1A3E0, symBinAddr: 0x10001EB20, symSize: 0x20 }
  - { offsetInCU: 0x4A494, offset: 0x4A494, size: 0x8, addend: 0x0, symName: __ZNKSt3__19basic_iosIcNS_11char_traitsIcEEE4failB7v160006Ev, symObjAddr: 0x1A400, symBinAddr: 0x10001EB40, symSize: 0x20 }
  - { offsetInCU: 0x4A4BA, offset: 0x4A4BA, size: 0x8, addend: 0x0, symName: __ZNSt3__14fposI11__mbstate_tEC1B7v160006Ex, symObjAddr: 0x1A420, symBinAddr: 0x10001EB60, symSize: 0x30 }
  - { offsetInCU: 0x4A4F3, offset: 0x4A4F3, size: 0x8, addend: 0x0, symName: __ZNKSt3__19basic_iosIcNS_11char_traitsIcEEE5rdbufB7v160006Ev, symObjAddr: 0x1A450, symBinAddr: 0x10001EB90, symSize: 0x20 }
  - { offsetInCU: 0x4A51B, offset: 0x4A51B, size: 0x8, addend: 0x0, symName: __ZNSt3__115basic_streambufIcNS_11char_traitsIcEEE10pubseekoffB7v160006ExNS_8ios_base7seekdirEj, symObjAddr: 0x1A470, symBinAddr: 0x10001EBB0, symSize: 0x40 }
  - { offsetInCU: 0x4A56E, offset: 0x4A56E, size: 0x8, addend: 0x0, symName: __ZNKSt3__18ios_base4failB7v160006Ev, symObjAddr: 0x1A4B0, symBinAddr: 0x10001EBF0, symSize: 0x20 }
  - { offsetInCU: 0x4A596, offset: 0x4A596, size: 0x8, addend: 0x0, symName: __ZNSt3__14fposI11__mbstate_tEC2B7v160006Ex, symObjAddr: 0x1A4D0, symBinAddr: 0x10001EC10, symSize: 0x40 }
  - { offsetInCU: 0x4A5CF, offset: 0x4A5CF, size: 0x8, addend: 0x0, symName: __ZNKSt3__18ios_base5rdbufB7v160006Ev, symObjAddr: 0x1A510, symBinAddr: 0x10001EC50, symSize: 0x20 }
  - { offsetInCU: 0x4A5F5, offset: 0x4A5F5, size: 0x8, addend: 0x0, symName: __ZNKSt3__16vectorINS_4fposI11__mbstate_tEENS_9allocatorIS3_EEE5emptyB7v160006Ev, symObjAddr: 0x1A530, symBinAddr: 0x10001EC70, symSize: 0x20 }
  - { offsetInCU: 0x4A61B, offset: 0x4A61B, size: 0x8, addend: 0x0, symName: __ZNSt3__16vectorINS_4fposI11__mbstate_tEENS_9allocatorIS3_EEE4backB7v160006Ev, symObjAddr: 0x1A550, symBinAddr: 0x10001EC90, symSize: 0x20 }
  - { offsetInCU: 0x4A641, offset: 0x4A641, size: 0x8, addend: 0x0, symName: __ZNSt3__16vectorINS_4fposI11__mbstate_tEENS_9allocatorIS3_EEE8pop_backEv, symObjAddr: 0x1A570, symBinAddr: 0x10001ECB0, symSize: 0x30 }
  - { offsetInCU: 0x4A669, offset: 0x4A669, size: 0x8, addend: 0x0, symName: __ZNKSt3__118basic_stringstreamIcNS_11char_traitsIcEENS_9allocatorIcEEE5rdbufB7v160006Ev, symObjAddr: 0x1A5E0, symBinAddr: 0x10001ED20, symSize: 0x20 }
  - { offsetInCU: 0x4A68F, offset: 0x4A68F, size: 0x8, addend: 0x0, symName: __ZNSt3__115basic_streambufIcNS_11char_traitsIcEEE10pubseekposB7v160006ENS_4fposI11__mbstate_tEEj, symObjAddr: 0x1A600, symBinAddr: 0x10001ED40, symSize: 0xC0 }
  - { offsetInCU: 0x4A6D5, offset: 0x4A6D5, size: 0x8, addend: 0x0, symName: __ZNSt3__16vectorINS_4fposI11__mbstate_tEENS_9allocatorIS3_EEE17__destruct_at_endB7v160006EPS3_, symObjAddr: 0x1A6C0, symBinAddr: 0x10001EE00, symSize: 0x60 }
  - { offsetInCU: 0x4A719, offset: 0x4A719, size: 0x8, addend: 0x0, symName: __ZNSt3__16vectorINS_4fposI11__mbstate_tEENS_9allocatorIS3_EEE27__invalidate_iterators_pastB7v160006EPS3_, symObjAddr: 0x1A720, symBinAddr: 0x10001EE60, symSize: 0x10 }
  - { offsetInCU: 0x4A750, offset: 0x4A750, size: 0x8, addend: 0x0, symName: __ZNKSt3__16vectorINS_4fposI11__mbstate_tEENS_9allocatorIS3_EEE17__annotate_shrinkB7v160006Em, symObjAddr: 0x1A730, symBinAddr: 0x10001EE70, symSize: 0xB0 }
  - { offsetInCU: 0x4A785, offset: 0x4A785, size: 0x8, addend: 0x0, symName: __ZNKSt3__14fposI11__mbstate_tEcvxB7v160006Ev, symObjAddr: 0x1A7E0, symBinAddr: 0x10001EF20, symSize: 0x20 }
  - { offsetInCU: 0x4A7C1, offset: 0x4A7C1, size: 0x8, addend: 0x0, symName: __ZNKSt3__16__lessIjjEclB7v160006ERKjS3_, symObjAddr: 0x1A850, symBinAddr: 0x10001EF90, symSize: 0x30 }
  - { offsetInCU: 0x4A805, offset: 0x4A805, size: 0x8, addend: 0x0, symName: __ZNSt3__123__libcpp_numeric_limitsIfLb1EE7epsilonB7v160006Ev, symObjAddr: 0x1A8A0, symBinAddr: 0x10001EFE0, symSize: 0x10 }
  - { offsetInCU: 0x4A82F, offset: 0x4A82F, size: 0x8, addend: 0x0, symName: __ZNKSt3__16__lessIddEclB7v160006ERKdS3_, symObjAddr: 0x1A900, symBinAddr: 0x10001F040, symSize: 0x30 }
  - { offsetInCU: 0x4A873, offset: 0x4A873, size: 0x8, addend: 0x0, symName: __ZNKSt3__16vectorIN7doctest6StringENS_9allocatorIS2_EEE5beginB7v160006Ev, symObjAddr: 0x1A930, symBinAddr: 0x10001F070, symSize: 0x30 }
  - { offsetInCU: 0x4A89B, offset: 0x4A89B, size: 0x8, addend: 0x0, symName: __ZNKSt3__16vectorIN7doctest6StringENS_9allocatorIS2_EEE3endB7v160006Ev, symObjAddr: 0x1A960, symBinAddr: 0x10001F0A0, symSize: 0x30 }
  - { offsetInCU: 0x4A8C3, offset: 0x4A8C3, size: 0x8, addend: 0x0, symName: __ZNKSt3__111__wrap_iterIPKN7doctest6StringEEdeB7v160006Ev, symObjAddr: 0x1A9C0, symBinAddr: 0x10001F100, symSize: 0x20 }
  - { offsetInCU: 0x4A8E9, offset: 0x4A8E9, size: 0x8, addend: 0x0, symName: __ZNSt3__111__wrap_iterIPKN7doctest6StringEEppB7v160006Ev, symObjAddr: 0x1AC10, symBinAddr: 0x10001F350, symSize: 0x20 }
  - { offsetInCU: 0x4A90F, offset: 0x4A90F, size: 0x8, addend: 0x0, symName: __ZNKSt3__16vectorIN7doctest6StringENS_9allocatorIS2_EEE11__make_iterB7v160006EPKS2_, symObjAddr: 0x1AC30, symBinAddr: 0x10001F370, symSize: 0x30 }
  - { offsetInCU: 0x4A944, offset: 0x4A944, size: 0x8, addend: 0x0, symName: __ZNSt3__111__wrap_iterIPKN7doctest6StringEEC1B7v160006EPKvS4_, symObjAddr: 0x1AC60, symBinAddr: 0x10001F3A0, symSize: 0x30 }
  - { offsetInCU: 0x4A98C, offset: 0x4A98C, size: 0x8, addend: 0x0, symName: __ZNSt3__111__wrap_iterIPKN7doctest6StringEEC2B7v160006EPKvS4_, symObjAddr: 0x1AC90, symBinAddr: 0x10001F3D0, symSize: 0x20 }
  - { offsetInCU: 0x4A9D4, offset: 0x4A9D4, size: 0x8, addend: 0x0, symName: __ZNKSt3__111__wrap_iterIPKN7doctest6StringEE4baseB7v160006Ev, symObjAddr: 0x1ACF0, symBinAddr: 0x10001F430, symSize: 0x20 }
  - { offsetInCU: 0x4A9FA, offset: 0x4A9FA, size: 0x8, addend: 0x0, symName: __ZNKSt3__111__wrap_iterIPPN7doctest9IReporterEE4baseB7v160006Ev, symObjAddr: 0x1AD50, symBinAddr: 0x10001F490, symSize: 0x20 }
  - { offsetInCU: 0x4AA20, offset: 0x4AA20, size: 0x8, addend: 0x0, symName: __ZNKSt3__16vectorIN7doctest16SubcaseSignatureENS_9allocatorIS2_EEE5beginB7v160006Ev, symObjAddr: 0x1AD70, symBinAddr: 0x10001F4B0, symSize: 0x30 }
  - { offsetInCU: 0x4AA48, offset: 0x4AA48, size: 0x8, addend: 0x0, symName: __ZNKSt3__111__wrap_iterIPKN7doctest16SubcaseSignatureEEplB7v160006El, symObjAddr: 0x1ADA0, symBinAddr: 0x10001F4E0, symSize: 0x40 }
  - { offsetInCU: 0x4AA8C, offset: 0x4AA8C, size: 0x8, addend: 0x0, symName: __ZNKSt3__111__wrap_iterIPKN7doctest16SubcaseSignatureEEdeB7v160006Ev, symObjAddr: 0x1AE10, symBinAddr: 0x10001F550, symSize: 0x20 }
  - { offsetInCU: 0x4AAB2, offset: 0x4AAB2, size: 0x8, addend: 0x0, symName: __ZNSt3__111__wrap_iterIPKN7doctest16SubcaseSignatureEEppB7v160006Ei, symObjAddr: 0x1AE30, symBinAddr: 0x10001F570, symSize: 0x30 }
  - { offsetInCU: 0x4AAF2, offset: 0x4AAF2, size: 0x8, addend: 0x0, symName: __ZNKSt3__16vectorIN7doctest16SubcaseSignatureENS_9allocatorIS2_EEE11__make_iterB7v160006EPKS2_, symObjAddr: 0x1AE60, symBinAddr: 0x10001F5A0, symSize: 0x30 }
  - { offsetInCU: 0x4AB27, offset: 0x4AB27, size: 0x8, addend: 0x0, symName: __ZNSt3__111__wrap_iterIPKN7doctest16SubcaseSignatureEEC1B7v160006EPKvS4_, symObjAddr: 0x1AE90, symBinAddr: 0x10001F5D0, symSize: 0x30 }
  - { offsetInCU: 0x4AB6F, offset: 0x4AB6F, size: 0x8, addend: 0x0, symName: __ZNSt3__111__wrap_iterIPKN7doctest16SubcaseSignatureEEC2B7v160006EPKvS4_, symObjAddr: 0x1AEC0, symBinAddr: 0x10001F600, symSize: 0x20 }
  - { offsetInCU: 0x4ABB7, offset: 0x4ABB7, size: 0x8, addend: 0x0, symName: __ZNSt3__111__wrap_iterIPKN7doctest16SubcaseSignatureEEpLB7v160006El, symObjAddr: 0x1AEE0, symBinAddr: 0x10001F620, symSize: 0x20 }
  - { offsetInCU: 0x4ABEC, offset: 0x4ABEC, size: 0x8, addend: 0x0, symName: __ZNKSt3__111__wrap_iterIPKN7doctest16SubcaseSignatureEE4baseB7v160006Ev, symObjAddr: 0x1AF40, symBinAddr: 0x10001F680, symSize: 0x20 }
  - { offsetInCU: 0x4AC12, offset: 0x4AC12, size: 0x8, addend: 0x0, symName: __ZNSt3__111__wrap_iterIPKN7doctest16SubcaseSignatureEEppB7v160006Ev, symObjAddr: 0x1AF60, symBinAddr: 0x10001F6A0, symSize: 0x20 }
  - { offsetInCU: 0x4AC38, offset: 0x4AC38, size: 0x8, addend: 0x0, symName: __ZNSt3__111__wrap_iterIPKN7doctest16SubcaseSignatureEEC2B7v160006IPS2_EERKNS0_IT_EEPNS_9enable_ifIXsr14is_convertibleIS8_S4_EE5valueEvE4typeE, symObjAddr: 0x1AFD0, symBinAddr: 0x10001F710, symSize: 0x40 }
  - { offsetInCU: 0x4AC85, offset: 0x4AC85, size: 0x8, addend: 0x0, symName: __ZNKSt3__111__wrap_iterIPN7doctest16SubcaseSignatureEE4baseB7v160006Ev, symObjAddr: 0x1B010, symBinAddr: 0x10001F750, symSize: 0x20 }
  - { offsetInCU: 0x4ACAB, offset: 0x4ACAB, size: 0x8, addend: 0x0, symName: __ZNSt3__111__wrap_iterIPN7doctest16SubcaseSignatureEEpLB7v160006El, symObjAddr: 0x1B030, symBinAddr: 0x10001F770, symSize: 0x20 }
  - { offsetInCU: 0x4ACE0, offset: 0x4ACE0, size: 0x8, addend: 0x0, symName: __ZN7doctest16SubcaseSignatureD2Ev, symObjAddr: 0x1B050, symBinAddr: 0x10001F790, symSize: 0x20 }
  - { offsetInCU: 0x4AD0D, offset: 0x4AD0D, size: 0x8, addend: 0x0, symName: __ZNKSt3__16vectorIN7doctest16SubcaseSignatureENS_9allocatorIS2_EEE3endB7v160006Ev, symObjAddr: 0x1B070, symBinAddr: 0x10001F7B0, symSize: 0x30 }
  - { offsetInCU: 0x4AD35, offset: 0x4AD35, size: 0x8, addend: 0x0, symName: __ZN7doctest17TestCaseExceptionD2Ev, symObjAddr: 0x1B0A0, symBinAddr: 0x10001F7E0, symSize: 0x20 }
  - { offsetInCU: 0x4AD62, offset: 0x4AD62, size: 0x8, addend: 0x0, symName: __ZNKSt3__111__wrap_iterIPPKN7doctest6detail20IExceptionTranslatorEE4baseB7v160006Ev, symObjAddr: 0x1B0C0, symBinAddr: 0x10001F800, symSize: 0x20 }
  - { offsetInCU: 0x4AD88, offset: 0x4AD88, size: 0x8, addend: 0x0, symName: __ZNSt3__16vectorIPKN7doctest6detail20IExceptionTranslatorENS_9allocatorIS5_EEEC1B7v160006Ev, symObjAddr: 0x1B0E0, symBinAddr: 0x10001F820, symSize: 0x20 }
  - { offsetInCU: 0x4ADB2, offset: 0x4ADB2, size: 0x8, addend: 0x0, symName: __ZNSt3__16vectorIPKN7doctest6detail20IExceptionTranslatorENS_9allocatorIS5_EEED1B7v160006Ev, symObjAddr: 0x1B100, symBinAddr: 0x10001F840, symSize: 0x20 }
  - { offsetInCU: 0x4ADDC, offset: 0x4ADDC, size: 0x8, addend: 0x0, symName: __ZNSt3__16vectorIPKN7doctest6detail20IExceptionTranslatorENS_9allocatorIS5_EEEC2B7v160006Ev, symObjAddr: 0x1B120, symBinAddr: 0x10001F860, symSize: 0x60 }
  - { offsetInCU: 0x4AE06, offset: 0x4AE06, size: 0x8, addend: 0x0, symName: __ZNSt3__117__compressed_pairIPPKN7doctest6detail20IExceptionTranslatorENS_9allocatorIS5_EEEC1B7v160006IDnNS_18__default_init_tagEEEOT_OT0_, symObjAddr: 0x1B180, symBinAddr: 0x10001F8C0, symSize: 0x30 }
  - { offsetInCU: 0x4AE60, offset: 0x4AE60, size: 0x8, addend: 0x0, symName: __ZNSt3__117__compressed_pairIPPKN7doctest6detail20IExceptionTranslatorENS_9allocatorIS5_EEEC2B7v160006IDnNS_18__default_init_tagEEEOT_OT0_, symObjAddr: 0x1B1C0, symBinAddr: 0x10001F900, symSize: 0x40 }
  - { offsetInCU: 0x4AEBA, offset: 0x4AEBA, size: 0x8, addend: 0x0, symName: __ZNSt3__122__compressed_pair_elemIPPKN7doctest6detail20IExceptionTranslatorELi0ELb0EEC2B7v160006IDnvEEOT_, symObjAddr: 0x1B200, symBinAddr: 0x10001F940, symSize: 0x20 }
  - { offsetInCU: 0x4AEFD, offset: 0x4AEFD, size: 0x8, addend: 0x0, symName: __ZNSt3__122__compressed_pair_elemINS_9allocatorIPKN7doctest6detail20IExceptionTranslatorEEELi1ELb1EEC2B7v160006ENS_18__default_init_tagE, symObjAddr: 0x1B220, symBinAddr: 0x10001F960, symSize: 0x20 }
  - { offsetInCU: 0x4AF32, offset: 0x4AF32, size: 0x8, addend: 0x0, symName: __ZNSt3__19allocatorIPKN7doctest6detail20IExceptionTranslatorEEC2B7v160006Ev, symObjAddr: 0x1B240, symBinAddr: 0x10001F980, symSize: 0x20 }
  - { offsetInCU: 0x4AF5C, offset: 0x4AF5C, size: 0x8, addend: 0x0, symName: __ZNSt3__116__non_trivial_ifILb1ENS_9allocatorIPKN7doctest6detail20IExceptionTranslatorEEEEC2B7v160006Ev, symObjAddr: 0x1B260, symBinAddr: 0x10001F9A0, symSize: 0x10 }
  - { offsetInCU: 0x4AF86, offset: 0x4AF86, size: 0x8, addend: 0x0, symName: __ZNSt3__16vectorIPKN7doctest6detail20IExceptionTranslatorENS_9allocatorIS5_EEED2B7v160006Ev, symObjAddr: 0x1B270, symBinAddr: 0x10001F9B0, symSize: 0x40 }
  - { offsetInCU: 0x4AFB0, offset: 0x4AFB0, size: 0x8, addend: 0x0, symName: __ZNSt3__16vectorIPKN7doctest6detail20IExceptionTranslatorENS_9allocatorIS5_EEE16__destroy_vectorC1ERS8_, symObjAddr: 0x1B2B0, symBinAddr: 0x10001F9F0, symSize: 0x30 }
  - { offsetInCU: 0x4AFE9, offset: 0x4AFE9, size: 0x8, addend: 0x0, symName: __ZNSt3__16vectorIPKN7doctest6detail20IExceptionTranslatorENS_9allocatorIS5_EEE16__destroy_vectorclB7v160006Ev, symObjAddr: 0x1B2E0, symBinAddr: 0x10001FA20, symSize: 0x90 }
  - { offsetInCU: 0x4B00F, offset: 0x4B00F, size: 0x8, addend: 0x0, symName: __ZNSt3__16vectorIPKN7doctest6detail20IExceptionTranslatorENS_9allocatorIS5_EEE16__destroy_vectorC2ERS8_, symObjAddr: 0x1B370, symBinAddr: 0x10001FAB0, symSize: 0x20 }
  - { offsetInCU: 0x4B048, offset: 0x4B048, size: 0x8, addend: 0x0, symName: __ZNKSt3__16vectorIPKN7doctest6detail20IExceptionTranslatorENS_9allocatorIS5_EEE17__annotate_deleteB7v160006Ev, symObjAddr: 0x1B390, symBinAddr: 0x10001FAD0, symSize: 0xB0 }
  - { offsetInCU: 0x4B06E, offset: 0x4B06E, size: 0x8, addend: 0x0, symName: __ZNSt3__16vectorIPKN7doctest6detail20IExceptionTranslatorENS_9allocatorIS5_EEE7__clearB7v160006Ev, symObjAddr: 0x1B450, symBinAddr: 0x10001FB90, symSize: 0x20 }
  - { offsetInCU: 0x4B094, offset: 0x4B094, size: 0x8, addend: 0x0, symName: __ZNSt3__116allocator_traitsINS_9allocatorIPKN7doctest6detail20IExceptionTranslatorEEEE10deallocateB7v160006ERS7_PS6_m, symObjAddr: 0x1B470, symBinAddr: 0x10001FBB0, symSize: 0x30 }
  - { offsetInCU: 0x4B0D6, offset: 0x4B0D6, size: 0x8, addend: 0x0, symName: __ZNSt3__16vectorIPKN7doctest6detail20IExceptionTranslatorENS_9allocatorIS5_EEE7__allocB7v160006Ev, symObjAddr: 0x1B4A0, symBinAddr: 0x10001FBE0, symSize: 0x20 }
  - { offsetInCU: 0x4B0FC, offset: 0x4B0FC, size: 0x8, addend: 0x0, symName: __ZNKSt3__16vectorIPKN7doctest6detail20IExceptionTranslatorENS_9allocatorIS5_EEE8capacityB7v160006Ev, symObjAddr: 0x1B4C0, symBinAddr: 0x10001FC00, symSize: 0x30 }
  - { offsetInCU: 0x4B122, offset: 0x4B122, size: 0x8, addend: 0x0, symName: __ZNKSt3__16vectorIPKN7doctest6detail20IExceptionTranslatorENS_9allocatorIS5_EEE31__annotate_contiguous_containerB7v160006EPKvSA_SA_SA_, symObjAddr: 0x1B4F0, symBinAddr: 0x10001FC30, symSize: 0x20 }
  - { offsetInCU: 0x4B174, offset: 0x4B174, size: 0x8, addend: 0x0, symName: __ZNKSt3__16vectorIPKN7doctest6detail20IExceptionTranslatorENS_9allocatorIS5_EEE4dataB7v160006Ev, symObjAddr: 0x1B510, symBinAddr: 0x10001FC50, symSize: 0x20 }
  - { offsetInCU: 0x4B19A, offset: 0x4B19A, size: 0x8, addend: 0x0, symName: __ZNKSt3__16vectorIPKN7doctest6detail20IExceptionTranslatorENS_9allocatorIS5_EEE4sizeB7v160006Ev, symObjAddr: 0x1B530, symBinAddr: 0x10001FC70, symSize: 0x20 }
  - { offsetInCU: 0x4B1C0, offset: 0x4B1C0, size: 0x8, addend: 0x0, symName: __ZNSt3__16vectorIPKN7doctest6detail20IExceptionTranslatorENS_9allocatorIS5_EEE22__base_destruct_at_endB7v160006EPS5_, symObjAddr: 0x1B560, symBinAddr: 0x10001FCA0, symSize: 0x80 }
  - { offsetInCU: 0x4B204, offset: 0x4B204, size: 0x8, addend: 0x0, symName: __ZNSt3__116allocator_traitsINS_9allocatorIPKN7doctest6detail20IExceptionTranslatorEEEE7destroyB7v160006IS6_vEEvRS7_PT_, symObjAddr: 0x1B5E0, symBinAddr: 0x10001FD20, symSize: 0x30 }
  - { offsetInCU: 0x4B241, offset: 0x4B241, size: 0x8, addend: 0x0, symName: __ZNSt3__19allocatorIPKN7doctest6detail20IExceptionTranslatorEE7destroyB7v160006EPS5_, symObjAddr: 0x1B610, symBinAddr: 0x10001FD50, symSize: 0x10 }
  - { offsetInCU: 0x4B276, offset: 0x4B276, size: 0x8, addend: 0x0, symName: __ZNSt3__19allocatorIPKN7doctest6detail20IExceptionTranslatorEE10deallocateB7v160006EPS5_m, symObjAddr: 0x1B620, symBinAddr: 0x10001FD60, symSize: 0x40 }
  - { offsetInCU: 0x4B2BA, offset: 0x4B2BA, size: 0x8, addend: 0x0, symName: __ZNSt3__117__compressed_pairIPPKN7doctest6detail20IExceptionTranslatorENS_9allocatorIS5_EEE6secondB7v160006Ev, symObjAddr: 0x1B660, symBinAddr: 0x10001FDA0, symSize: 0x20 }
  - { offsetInCU: 0x4B2E0, offset: 0x4B2E0, size: 0x8, addend: 0x0, symName: __ZNSt3__122__compressed_pair_elemINS_9allocatorIPKN7doctest6detail20IExceptionTranslatorEEELi1ELb1EE5__getB7v160006Ev, symObjAddr: 0x1B680, symBinAddr: 0x10001FDC0, symSize: 0x10 }
  - { offsetInCU: 0x4B306, offset: 0x4B306, size: 0x8, addend: 0x0, symName: __ZNKSt3__16vectorIPKN7doctest6detail20IExceptionTranslatorENS_9allocatorIS5_EEE9__end_capB7v160006Ev, symObjAddr: 0x1B690, symBinAddr: 0x10001FDD0, symSize: 0x20 }
  - { offsetInCU: 0x4B32C, offset: 0x4B32C, size: 0x8, addend: 0x0, symName: __ZNKSt3__117__compressed_pairIPPKN7doctest6detail20IExceptionTranslatorENS_9allocatorIS5_EEE5firstB7v160006Ev, symObjAddr: 0x1B6B0, symBinAddr: 0x10001FDF0, symSize: 0x20 }
  - { offsetInCU: 0x4B352, offset: 0x4B352, size: 0x8, addend: 0x0, symName: __ZNKSt3__122__compressed_pair_elemIPPKN7doctest6detail20IExceptionTranslatorELi0ELb0EE5__getB7v160006Ev, symObjAddr: 0x1B6D0, symBinAddr: 0x10001FE10, symSize: 0x10 }
  - { offsetInCU: 0x4B378, offset: 0x4B378, size: 0x8, addend: 0x0, symName: __ZNSt3__119basic_ostringstreamIcNS_11char_traitsIcEENS_9allocatorIcEEED2Ev, symObjAddr: 0x1B6E0, symBinAddr: 0x10001FE20, symSize: 0x60 }
  - { offsetInCU: 0x4B3B2, offset: 0x4B3B2, size: 0x8, addend: 0x0, symName: __ZTv0_n24_NSt3__119basic_ostringstreamIcNS_11char_traitsIcEENS_9allocatorIcEEED1Ev, symObjAddr: 0x1B740, symBinAddr: 0x10001FE80, symSize: 0x20 }
  - { offsetInCU: 0x4B3C9, offset: 0x4B3C9, size: 0x8, addend: 0x0, symName: __ZN7doctest10AssertData14StringContainsC2ERKS1_, symObjAddr: 0x1B760, symBinAddr: 0x10001FEA0, symSize: 0x40 }
  - { offsetInCU: 0x4B3FF, offset: 0x4B3FF, size: 0x8, addend: 0x0, symName: __ZN7doctest10AssertData14StringContainsC2ERKNS_6StringE, symObjAddr: 0x1B7A0, symBinAddr: 0x10001FEE0, symSize: 0x30 }
  - { offsetInCU: 0x4B438, offset: 0x4B438, size: 0x8, addend: 0x0, symName: __ZN7doctest10AssertData14StringContainsD2Ev, symObjAddr: 0x1B7D0, symBinAddr: 0x10001FF10, symSize: 0x20 }
  - { offsetInCU: 0x4B465, offset: 0x4B465, size: 0x8, addend: 0x0, symName: __ZN7doctest8ContainsC2ERKS0_, symObjAddr: 0x1B7F0, symBinAddr: 0x10001FF30, symSize: 0x30 }
  - { offsetInCU: 0x4B49B, offset: 0x4B49B, size: 0x8, addend: 0x0, symName: __ZN7doctest10AssertData14StringContainsC2ENS_8ContainsE, symObjAddr: 0x1B820, symBinAddr: 0x10001FF60, symSize: 0x30 }
  - { offsetInCU: 0x4B4DB, offset: 0x4B4DB, size: 0x8, addend: 0x0, symName: __ZN7doctest8ContainsC1EOS0_, symObjAddr: 0x1B850, symBinAddr: 0x10001FF90, symSize: 0x30 }
  - { offsetInCU: 0x4B511, offset: 0x4B511, size: 0x8, addend: 0x0, symName: __ZN7doctest8ContainsC2EOS0_, symObjAddr: 0x1B880, symBinAddr: 0x10001FFC0, symSize: 0x30 }
  - { offsetInCU: 0x4B547, offset: 0x4B547, size: 0x8, addend: 0x0, symName: __ZN7doctest8ContainsD2Ev, symObjAddr: 0x1B8B0, symBinAddr: 0x10001FFF0, symSize: 0x20 }
  - { offsetInCU: 0x4B574, offset: 0x4B574, size: 0x8, addend: 0x0, symName: __ZNKSt3__111__wrap_iterIPPKN7doctest6detail20IExceptionTranslatorEEdeB7v160006Ev, symObjAddr: 0x1B900, symBinAddr: 0x100020040, symSize: 0x20 }
  - { offsetInCU: 0x4B59A, offset: 0x4B59A, size: 0x8, addend: 0x0, symName: __ZNSt3__111__wrap_iterIPPKN7doctest6detail20IExceptionTranslatorEEppB7v160006Ev, symObjAddr: 0x1B920, symBinAddr: 0x100020060, symSize: 0x20 }
  - { offsetInCU: 0x4B5C0, offset: 0x4B5C0, size: 0x8, addend: 0x0, symName: __ZN7doctest6detail15MultiLaneAtomicIiEppEi, symObjAddr: 0x1B940, symBinAddr: 0x100020080, symSize: 0x30 }
  - { offsetInCU: 0x4B5F1, offset: 0x4B5F1, size: 0x8, addend: 0x0, symName: __ZN7doctest6detail15MultiLaneAtomicIiE9fetch_addEiNSt3__112memory_orderE, symObjAddr: 0x1B970, symBinAddr: 0x1000200B0, symSize: 0x30 }
  - { offsetInCU: 0x4B635, offset: 0x4B635, size: 0x8, addend: 0x0, symName: __ZNSt3__113__atomic_baseIiLb1EE9fetch_addB7v160006EiNS_12memory_orderE, symObjAddr: 0x1BA20, symBinAddr: 0x100020160, symSize: 0x30 }
  - { offsetInCU: 0x4B679, offset: 0x4B679, size: 0x8, addend: 0x0, symName: __ZNSt3__113__atomic_baseImLb1EEppB7v160006Ei, symObjAddr: 0x1BA50, symBinAddr: 0x100020190, symSize: 0x30 }
  - { offsetInCU: 0x4B6AA, offset: 0x4B6AA, size: 0x8, addend: 0x0, symName: __ZNSt3__113__atomic_baseImLb1EE9fetch_addB7v160006EmNS_12memory_orderE, symObjAddr: 0x1BA80, symBinAddr: 0x1000201C0, symSize: 0x30 }
  - { offsetInCU: 0x4B6EE, offset: 0x4B6EE, size: 0x8, addend: 0x0, symName: __ZN7doctest6detail13ResultBuilderD2Ev, symObjAddr: 0x1BC40, symBinAddr: 0x100020380, symSize: 0x20 }
  - { offsetInCU: 0x4B71B, offset: 0x4B71B, size: 0x8, addend: 0x0, symName: __ZN7doctest10AssertDataD2Ev, symObjAddr: 0x1BC60, symBinAddr: 0x1000203A0, symSize: 0x40 }
  - { offsetInCU: 0x4B748, offset: 0x4B748, size: 0x8, addend: 0x0, symName: __ZN7doctest6detail12ContextStateC2Ev, symObjAddr: 0x1BCA0, symBinAddr: 0x1000203E0, symSize: 0xF0 }
  - { offsetInCU: 0x4B77B, offset: 0x4B77B, size: 0x8, addend: 0x0, symName: __ZN7doctest14ContextOptionsC2Ev, symObjAddr: 0x1BD90, symBinAddr: 0x1000204D0, symSize: 0x50 }
  - { offsetInCU: 0x4B7A8, offset: 0x4B7A8, size: 0x8, addend: 0x0, symName: __ZN7doctest6detail15MultiLaneAtomicIiEC1Ev, symObjAddr: 0x1BDE0, symBinAddr: 0x100020520, symSize: 0x20 }
  - { offsetInCU: 0x4B7D5, offset: 0x4B7D5, size: 0x8, addend: 0x0, symName: __ZNSt3__16vectorINS0_IN7doctest6StringENS_9allocatorIS2_EEEENS3_IS5_EEEC1Em, symObjAddr: 0x1BE00, symBinAddr: 0x100020540, symSize: 0x30 }
  - { offsetInCU: 0x4B810, offset: 0x4B810, size: 0x8, addend: 0x0, symName: __ZNSt3__16vectorIPN7doctest9IReporterENS_9allocatorIS3_EEEC1B7v160006Ev, symObjAddr: 0x1BE30, symBinAddr: 0x100020570, symSize: 0x20 }
  - { offsetInCU: 0x4B83A, offset: 0x4B83A, size: 0x8, addend: 0x0, symName: __ZN7doctest6detail5TimerC1Ev, symObjAddr: 0x1BE50, symBinAddr: 0x100020590, symSize: 0x20 }
  - { offsetInCU: 0x4B867, offset: 0x4B867, size: 0x8, addend: 0x0, symName: __ZNSt3__16vectorIN7doctest6StringENS_9allocatorIS2_EEEC1B7v160006Ev, symObjAddr: 0x1BE70, symBinAddr: 0x1000205B0, symSize: 0x20 }
  - { offsetInCU: 0x4B891, offset: 0x4B891, size: 0x8, addend: 0x0, symName: __ZNSt3__16vectorIN7doctest16SubcaseSignatureENS_9allocatorIS2_EEEC1B7v160006Ev, symObjAddr: 0x1BE90, symBinAddr: 0x1000205D0, symSize: 0x20 }
  - { offsetInCU: 0x4B8BB, offset: 0x4B8BB, size: 0x8, addend: 0x0, symName: __ZNSt3__113unordered_setIyNS_4hashIyEENS_8equal_toIyEENS_9allocatorIyEEEC1B7v160006Ev, symObjAddr: 0x1BEB0, symBinAddr: 0x1000205F0, symSize: 0x20 }
  - { offsetInCU: 0x4B8E5, offset: 0x4B8E5, size: 0x8, addend: 0x0, symName: __ZN7doctest14ContextOptionsD2Ev, symObjAddr: 0x1BED0, symBinAddr: 0x100020610, symSize: 0x40 }
  - { offsetInCU: 0x4B912, offset: 0x4B912, size: 0x8, addend: 0x0, symName: __ZN7doctest6detail15MultiLaneAtomicIiEC2Ev, symObjAddr: 0x1BF10, symBinAddr: 0x100020650, symSize: 0x50 }
  - { offsetInCU: 0x4B945, offset: 0x4B945, size: 0x8, addend: 0x0, symName: __ZN7doctest6detail15MultiLaneAtomicIiE22CacheLineAlignedAtomicC1Ev, symObjAddr: 0x1BF60, symBinAddr: 0x1000206A0, symSize: 0x20 }
  - { offsetInCU: 0x4B972, offset: 0x4B972, size: 0x8, addend: 0x0, symName: __ZN7doctest6detail15MultiLaneAtomicIiE22CacheLineAlignedAtomicC2Ev, symObjAddr: 0x1BF80, symBinAddr: 0x1000206C0, symSize: 0x30 }
  - { offsetInCU: 0x4B99F, offset: 0x4B99F, size: 0x8, addend: 0x0, symName: __ZNSt3__16vectorINS0_IN7doctest6StringENS_9allocatorIS2_EEEENS3_IS5_EEEC2Em, symObjAddr: 0x1BFB0, symBinAddr: 0x1000206F0, symSize: 0xE0 }
  - { offsetInCU: 0x4B9EF, offset: 0x4B9EF, size: 0x8, addend: 0x0, symName: __ZNSt3__117__compressed_pairIPNS_6vectorIN7doctest6StringENS_9allocatorIS3_EEEENS4_IS6_EEEC1B7v160006IDnNS_18__default_init_tagEEEOT_OT0_, symObjAddr: 0x1C090, symBinAddr: 0x1000207D0, symSize: 0x30 }
  - { offsetInCU: 0x4BA49, offset: 0x4BA49, size: 0x8, addend: 0x0, symName: __ZNSt3__16vectorINS0_IN7doctest6StringENS_9allocatorIS2_EEEENS3_IS5_EEE16__destroy_vectorC1ERS7_, symObjAddr: 0x1C100, symBinAddr: 0x100020840, symSize: 0x30 }
  - { offsetInCU: 0x4BA82, offset: 0x4BA82, size: 0x8, addend: 0x0, symName: __ZNSt3__16vectorINS0_IN7doctest6StringENS_9allocatorIS2_EEEENS3_IS5_EEE11__vallocateB7v160006Em, symObjAddr: 0x1C140, symBinAddr: 0x100020880, symSize: 0xA0 }
  - { offsetInCU: 0x4BAC6, offset: 0x4BAC6, size: 0x8, addend: 0x0, symName: __ZNSt3__16vectorINS0_IN7doctest6StringENS_9allocatorIS2_EEEENS3_IS5_EEE18__construct_at_endEm, symObjAddr: 0x1C1E0, symBinAddr: 0x100020920, symSize: 0xC0 }
  - { offsetInCU: 0x4BB38, offset: 0x4BB38, size: 0x8, addend: 0x0, symName: __ZNSt3__128__exception_guard_exceptionsINS_6vectorINS1_IN7doctest6StringENS_9allocatorIS3_EEEENS4_IS6_EEE16__destroy_vectorEE10__completeB7v160006Ev, symObjAddr: 0x1C2A0, symBinAddr: 0x1000209E0, symSize: 0x20 }
  - { offsetInCU: 0x4BB5E, offset: 0x4BB5E, size: 0x8, addend: 0x0, symName: __ZNSt3__128__exception_guard_exceptionsINS_6vectorINS1_IN7doctest6StringENS_9allocatorIS3_EEEENS4_IS6_EEE16__destroy_vectorEED1B7v160006Ev, symObjAddr: 0x1C2C0, symBinAddr: 0x100020A00, symSize: 0x20 }
  - { offsetInCU: 0x4BB88, offset: 0x4BB88, size: 0x8, addend: 0x0, symName: __ZNSt3__117__compressed_pairIPNS_6vectorIN7doctest6StringENS_9allocatorIS3_EEEENS4_IS6_EEEC2B7v160006IDnNS_18__default_init_tagEEEOT_OT0_, symObjAddr: 0x1C2E0, symBinAddr: 0x100020A20, symSize: 0x40 }
  - { offsetInCU: 0x4BBE2, offset: 0x4BBE2, size: 0x8, addend: 0x0, symName: __ZNSt3__122__compressed_pair_elemIPNS_6vectorIN7doctest6StringENS_9allocatorIS3_EEEELi0ELb0EEC2B7v160006IDnvEEOT_, symObjAddr: 0x1C320, symBinAddr: 0x100020A60, symSize: 0x20 }
  - { offsetInCU: 0x4BC25, offset: 0x4BC25, size: 0x8, addend: 0x0, symName: __ZNSt3__122__compressed_pair_elemINS_9allocatorINS_6vectorIN7doctest6StringENS1_IS4_EEEEEELi1ELb1EEC2B7v160006ENS_18__default_init_tagE, symObjAddr: 0x1C340, symBinAddr: 0x100020A80, symSize: 0x20 }
  - { offsetInCU: 0x4BC5A, offset: 0x4BC5A, size: 0x8, addend: 0x0, symName: __ZNSt3__19allocatorINS_6vectorIN7doctest6StringENS0_IS3_EEEEEC2B7v160006Ev, symObjAddr: 0x1C360, symBinAddr: 0x100020AA0, symSize: 0x20 }
  - { offsetInCU: 0x4BC84, offset: 0x4BC84, size: 0x8, addend: 0x0, symName: __ZNSt3__116__non_trivial_ifILb1ENS_9allocatorINS_6vectorIN7doctest6StringENS1_IS4_EEEEEEEC2B7v160006Ev, symObjAddr: 0x1C380, symBinAddr: 0x100020AC0, symSize: 0x10 }
  - { offsetInCU: 0x4BCAE, offset: 0x4BCAE, size: 0x8, addend: 0x0, symName: __ZNSt3__128__exception_guard_exceptionsINS_6vectorINS1_IN7doctest6StringENS_9allocatorIS3_EEEENS4_IS6_EEE16__destroy_vectorEEC1B7v160006ES9_, symObjAddr: 0x1C390, symBinAddr: 0x100020AD0, symSize: 0x30 }
  - { offsetInCU: 0x4BCE7, offset: 0x4BCE7, size: 0x8, addend: 0x0, symName: __ZNSt3__128__exception_guard_exceptionsINS_6vectorINS1_IN7doctest6StringENS_9allocatorIS3_EEEENS4_IS6_EEE16__destroy_vectorEEC2B7v160006ES9_, symObjAddr: 0x1C3C0, symBinAddr: 0x100020B00, symSize: 0x20 }
  - { offsetInCU: 0x4BD20, offset: 0x4BD20, size: 0x8, addend: 0x0, symName: __ZNSt3__16vectorINS0_IN7doctest6StringENS_9allocatorIS2_EEEENS3_IS5_EEE16__destroy_vectorC2ERS7_, symObjAddr: 0x1C3E0, symBinAddr: 0x100020B20, symSize: 0x20 }
  - { offsetInCU: 0x4BD59, offset: 0x4BD59, size: 0x8, addend: 0x0, symName: __ZNKSt3__16vectorINS0_IN7doctest6StringENS_9allocatorIS2_EEEENS3_IS5_EEE8max_sizeEv, symObjAddr: 0x1C400, symBinAddr: 0x100020B40, symSize: 0x60 }
  - { offsetInCU: 0x4BD81, offset: 0x4BD81, size: 0x8, addend: 0x0, symName: __ZNKSt3__16vectorINS0_IN7doctest6StringENS_9allocatorIS2_EEEENS3_IS5_EEE20__throw_length_errorB7v160006Ev, symObjAddr: 0x1C460, symBinAddr: 0x100020BA0, symSize: 0x20 }
  - { offsetInCU: 0x4BDA7, offset: 0x4BDA7, size: 0x8, addend: 0x0, symName: __ZNSt3__16vectorINS0_IN7doctest6StringENS_9allocatorIS2_EEEENS3_IS5_EEE7__allocB7v160006Ev, symObjAddr: 0x1C4C0, symBinAddr: 0x100020C00, symSize: 0x20 }
  - { offsetInCU: 0x4BDCD, offset: 0x4BDCD, size: 0x8, addend: 0x0, symName: __ZNSt3__16vectorINS0_IN7doctest6StringENS_9allocatorIS2_EEEENS3_IS5_EEE9__end_capB7v160006Ev, symObjAddr: 0x1C4E0, symBinAddr: 0x100020C20, symSize: 0x20 }
  - { offsetInCU: 0x4BDF3, offset: 0x4BDF3, size: 0x8, addend: 0x0, symName: __ZNKSt3__16vectorINS0_IN7doctest6StringENS_9allocatorIS2_EEEENS3_IS5_EEE14__annotate_newB7v160006Em, symObjAddr: 0x1C500, symBinAddr: 0x100020C40, symSize: 0xA0 }
  - { offsetInCU: 0x4BE33, offset: 0x4BE33, size: 0x8, addend: 0x0, symName: __ZNSt3__116allocator_traitsINS_9allocatorINS_6vectorIN7doctest6StringENS1_IS4_EEEEEEE8max_sizeB7v160006IS7_vEEmRKS7_, symObjAddr: 0x1C5A0, symBinAddr: 0x100020CE0, symSize: 0x20 }
  - { offsetInCU: 0x4BE61, offset: 0x4BE61, size: 0x8, addend: 0x0, symName: __ZNKSt3__16vectorINS0_IN7doctest6StringENS_9allocatorIS2_EEEENS3_IS5_EEE7__allocB7v160006Ev, symObjAddr: 0x1C5C0, symBinAddr: 0x100020D00, symSize: 0x20 }
  - { offsetInCU: 0x4BE87, offset: 0x4BE87, size: 0x8, addend: 0x0, symName: __ZNKSt3__19allocatorINS_6vectorIN7doctest6StringENS0_IS3_EEEEE8max_sizeB7v160006Ev, symObjAddr: 0x1C5E0, symBinAddr: 0x100020D20, symSize: 0x20 }
  - { offsetInCU: 0x4BEAD, offset: 0x4BEAD, size: 0x8, addend: 0x0, symName: __ZNKSt3__117__compressed_pairIPNS_6vectorIN7doctest6StringENS_9allocatorIS3_EEEENS4_IS6_EEE6secondB7v160006Ev, symObjAddr: 0x1C600, symBinAddr: 0x100020D40, symSize: 0x20 }
  - { offsetInCU: 0x4BED3, offset: 0x4BED3, size: 0x8, addend: 0x0, symName: __ZNKSt3__122__compressed_pair_elemINS_9allocatorINS_6vectorIN7doctest6StringENS1_IS4_EEEEEELi1ELb1EE5__getB7v160006Ev, symObjAddr: 0x1C620, symBinAddr: 0x100020D60, symSize: 0x10 }
  - { offsetInCU: 0x4BEF9, offset: 0x4BEF9, size: 0x8, addend: 0x0, symName: __ZNSt3__19allocatorINS_6vectorIN7doctest6StringENS0_IS3_EEEEE8allocateB7v160006Em, symObjAddr: 0x1C630, symBinAddr: 0x100020D70, symSize: 0x50 }
  - { offsetInCU: 0x4BF2E, offset: 0x4BF2E, size: 0x8, addend: 0x0, symName: __ZNSt3__117__compressed_pairIPNS_6vectorIN7doctest6StringENS_9allocatorIS3_EEEENS4_IS6_EEE6secondB7v160006Ev, symObjAddr: 0x1C680, symBinAddr: 0x100020DC0, symSize: 0x20 }
  - { offsetInCU: 0x4BF54, offset: 0x4BF54, size: 0x8, addend: 0x0, symName: __ZNSt3__122__compressed_pair_elemINS_9allocatorINS_6vectorIN7doctest6StringENS1_IS4_EEEEEELi1ELb1EE5__getB7v160006Ev, symObjAddr: 0x1C6A0, symBinAddr: 0x100020DE0, symSize: 0x10 }
  - { offsetInCU: 0x4BF7A, offset: 0x4BF7A, size: 0x8, addend: 0x0, symName: __ZNSt3__117__compressed_pairIPNS_6vectorIN7doctest6StringENS_9allocatorIS3_EEEENS4_IS6_EEE5firstB7v160006Ev, symObjAddr: 0x1C6B0, symBinAddr: 0x100020DF0, symSize: 0x20 }
  - { offsetInCU: 0x4BFA0, offset: 0x4BFA0, size: 0x8, addend: 0x0, symName: __ZNSt3__122__compressed_pair_elemIPNS_6vectorIN7doctest6StringENS_9allocatorIS3_EEEELi0ELb0EE5__getB7v160006Ev, symObjAddr: 0x1C6D0, symBinAddr: 0x100020E10, symSize: 0x10 }
  - { offsetInCU: 0x4BFC6, offset: 0x4BFC6, size: 0x8, addend: 0x0, symName: __ZNKSt3__16vectorINS0_IN7doctest6StringENS_9allocatorIS2_EEEENS3_IS5_EEE31__annotate_contiguous_containerB7v160006EPKvS9_S9_S9_, symObjAddr: 0x1C6E0, symBinAddr: 0x100020E20, symSize: 0x20 }
  - { offsetInCU: 0x4C018, offset: 0x4C018, size: 0x8, addend: 0x0, symName: __ZNKSt3__16vectorINS0_IN7doctest6StringENS_9allocatorIS2_EEEENS3_IS5_EEE4dataB7v160006Ev, symObjAddr: 0x1C700, symBinAddr: 0x100020E40, symSize: 0x20 }
  - { offsetInCU: 0x4C03E, offset: 0x4C03E, size: 0x8, addend: 0x0, symName: __ZNKSt3__16vectorINS0_IN7doctest6StringENS_9allocatorIS2_EEEENS3_IS5_EEE8capacityB7v160006Ev, symObjAddr: 0x1C720, symBinAddr: 0x100020E60, symSize: 0x40 }
  - { offsetInCU: 0x4C064, offset: 0x4C064, size: 0x8, addend: 0x0, symName: __ZNKSt3__16vectorINS0_IN7doctest6StringENS_9allocatorIS2_EEEENS3_IS5_EEE9__end_capB7v160006Ev, symObjAddr: 0x1C770, symBinAddr: 0x100020EB0, symSize: 0x20 }
  - { offsetInCU: 0x4C08A, offset: 0x4C08A, size: 0x8, addend: 0x0, symName: __ZNKSt3__117__compressed_pairIPNS_6vectorIN7doctest6StringENS_9allocatorIS3_EEEENS4_IS6_EEE5firstB7v160006Ev, symObjAddr: 0x1C790, symBinAddr: 0x100020ED0, symSize: 0x20 }
  - { offsetInCU: 0x4C0B0, offset: 0x4C0B0, size: 0x8, addend: 0x0, symName: __ZNKSt3__122__compressed_pair_elemIPNS_6vectorIN7doctest6StringENS_9allocatorIS3_EEEELi0ELb0EE5__getB7v160006Ev, symObjAddr: 0x1C7B0, symBinAddr: 0x100020EF0, symSize: 0x10 }
  - { offsetInCU: 0x4C0F2, offset: 0x4C0F2, size: 0x8, addend: 0x0, symName: __ZNSt3__16vectorINS0_IN7doctest6StringENS_9allocatorIS2_EEEENS3_IS5_EEE21_ConstructTransactionC1B7v160006ERS7_m, symObjAddr: 0x1C7C0, symBinAddr: 0x100020F00, symSize: 0x30 }
  - { offsetInCU: 0x4C13A, offset: 0x4C13A, size: 0x8, addend: 0x0, symName: __ZNSt3__116allocator_traitsINS_9allocatorINS_6vectorIN7doctest6StringENS1_IS4_EEEEEEE9constructB7v160006IS6_JEvEEvRS7_PT_DpOT0_, symObjAddr: 0x1C7F0, symBinAddr: 0x100020F30, symSize: 0x30 }
  - { offsetInCU: 0x4C17D, offset: 0x4C17D, size: 0x8, addend: 0x0, symName: __ZNSt3__16vectorINS0_IN7doctest6StringENS_9allocatorIS2_EEEENS3_IS5_EEE21_ConstructTransactionD1B7v160006Ev, symObjAddr: 0x1C820, symBinAddr: 0x100020F60, symSize: 0x20 }
  - { offsetInCU: 0x4C1A7, offset: 0x4C1A7, size: 0x8, addend: 0x0, symName: __ZNSt3__16vectorINS0_IN7doctest6StringENS_9allocatorIS2_EEEENS3_IS5_EEE21_ConstructTransactionC2B7v160006ERS7_m, symObjAddr: 0x1C840, symBinAddr: 0x100020F80, symSize: 0x40 }
  - { offsetInCU: 0x4C1EF, offset: 0x4C1EF, size: 0x8, addend: 0x0, symName: __ZNSt3__19allocatorINS_6vectorIN7doctest6StringENS0_IS3_EEEEE9constructB7v160006IS5_JEEEvPT_DpOT0_, symObjAddr: 0x1C880, symBinAddr: 0x100020FC0, symSize: 0x20 }
  - { offsetInCU: 0x4C233, offset: 0x4C233, size: 0x8, addend: 0x0, symName: __ZNSt3__16vectorINS0_IN7doctest6StringENS_9allocatorIS2_EEEENS3_IS5_EEE21_ConstructTransactionD2B7v160006Ev, symObjAddr: 0x1C8A0, symBinAddr: 0x100020FE0, symSize: 0x20 }
  - { offsetInCU: 0x4C25D, offset: 0x4C25D, size: 0x8, addend: 0x0, symName: __ZNSt3__128__exception_guard_exceptionsINS_6vectorINS1_IN7doctest6StringENS_9allocatorIS3_EEEENS4_IS6_EEE16__destroy_vectorEED2B7v160006Ev, symObjAddr: 0x1C8C0, symBinAddr: 0x100021000, symSize: 0x40 }
  - { offsetInCU: 0x4C287, offset: 0x4C287, size: 0x8, addend: 0x0, symName: __ZNSt3__16vectorINS0_IN7doctest6StringENS_9allocatorIS2_EEEENS3_IS5_EEE16__destroy_vectorclB7v160006Ev, symObjAddr: 0x1C900, symBinAddr: 0x100021040, symSize: 0x90 }
  - { offsetInCU: 0x4C2AD, offset: 0x4C2AD, size: 0x8, addend: 0x0, symName: __ZNKSt3__16vectorINS0_IN7doctest6StringENS_9allocatorIS2_EEEENS3_IS5_EEE17__annotate_deleteB7v160006Ev, symObjAddr: 0x1C990, symBinAddr: 0x1000210D0, symSize: 0xB0 }
  - { offsetInCU: 0x4C2D3, offset: 0x4C2D3, size: 0x8, addend: 0x0, symName: __ZNSt3__16vectorINS0_IN7doctest6StringENS_9allocatorIS2_EEEENS3_IS5_EEE7__clearB7v160006Ev, symObjAddr: 0x1CA50, symBinAddr: 0x100021190, symSize: 0x20 }
  - { offsetInCU: 0x4C2F9, offset: 0x4C2F9, size: 0x8, addend: 0x0, symName: __ZNSt3__116allocator_traitsINS_9allocatorINS_6vectorIN7doctest6StringENS1_IS4_EEEEEEE10deallocateB7v160006ERS7_PS6_m, symObjAddr: 0x1CA70, symBinAddr: 0x1000211B0, symSize: 0x30 }
  - { offsetInCU: 0x4C33B, offset: 0x4C33B, size: 0x8, addend: 0x0, symName: __ZNKSt3__16vectorINS0_IN7doctest6StringENS_9allocatorIS2_EEEENS3_IS5_EEE4sizeB7v160006Ev, symObjAddr: 0x1CAA0, symBinAddr: 0x1000211E0, symSize: 0x30 }
  - { offsetInCU: 0x4C361, offset: 0x4C361, size: 0x8, addend: 0x0, symName: __ZNSt3__16vectorINS0_IN7doctest6StringENS_9allocatorIS2_EEEENS3_IS5_EEE22__base_destruct_at_endB7v160006EPS5_, symObjAddr: 0x1CAD0, symBinAddr: 0x100021210, symSize: 0x80 }
  - { offsetInCU: 0x4C3A5, offset: 0x4C3A5, size: 0x8, addend: 0x0, symName: __ZNSt3__116allocator_traitsINS_9allocatorINS_6vectorIN7doctest6StringENS1_IS4_EEEEEEE7destroyB7v160006IS6_vEEvRS7_PT_, symObjAddr: 0x1CB50, symBinAddr: 0x100021290, symSize: 0x30 }
  - { offsetInCU: 0x4C3E2, offset: 0x4C3E2, size: 0x8, addend: 0x0, symName: __ZNSt3__19allocatorINS_6vectorIN7doctest6StringENS0_IS3_EEEEE7destroyB7v160006EPS5_, symObjAddr: 0x1CB80, symBinAddr: 0x1000212C0, symSize: 0x20 }
  - { offsetInCU: 0x4C417, offset: 0x4C417, size: 0x8, addend: 0x0, symName: __ZNSt3__16vectorIN7doctest6StringENS_9allocatorIS2_EEED1B7v160006Ev, symObjAddr: 0x1CBA0, symBinAddr: 0x1000212E0, symSize: 0x20 }
  - { offsetInCU: 0x4C441, offset: 0x4C441, size: 0x8, addend: 0x0, symName: __ZNSt3__16vectorIN7doctest6StringENS_9allocatorIS2_EEED2B7v160006Ev, symObjAddr: 0x1CBC0, symBinAddr: 0x100021300, symSize: 0x40 }
  - { offsetInCU: 0x4C46B, offset: 0x4C46B, size: 0x8, addend: 0x0, symName: __ZNSt3__16vectorIN7doctest6StringENS_9allocatorIS2_EEE16__destroy_vectorC1ERS5_, symObjAddr: 0x1CC00, symBinAddr: 0x100021340, symSize: 0x30 }
  - { offsetInCU: 0x4C4A4, offset: 0x4C4A4, size: 0x8, addend: 0x0, symName: __ZNSt3__16vectorIN7doctest6StringENS_9allocatorIS2_EEE16__destroy_vectorclB7v160006Ev, symObjAddr: 0x1CC30, symBinAddr: 0x100021370, symSize: 0x90 }
  - { offsetInCU: 0x4C4CA, offset: 0x4C4CA, size: 0x8, addend: 0x0, symName: __ZNSt3__16vectorIN7doctest6StringENS_9allocatorIS2_EEE16__destroy_vectorC2ERS5_, symObjAddr: 0x1CCC0, symBinAddr: 0x100021400, symSize: 0x20 }
  - { offsetInCU: 0x4C503, offset: 0x4C503, size: 0x8, addend: 0x0, symName: __ZNKSt3__16vectorIN7doctest6StringENS_9allocatorIS2_EEE17__annotate_deleteB7v160006Ev, symObjAddr: 0x1CCE0, symBinAddr: 0x100021420, symSize: 0xB0 }
  - { offsetInCU: 0x4C529, offset: 0x4C529, size: 0x8, addend: 0x0, symName: __ZNSt3__16vectorIN7doctest6StringENS_9allocatorIS2_EEE7__clearB7v160006Ev, symObjAddr: 0x1CDA0, symBinAddr: 0x1000214E0, symSize: 0x20 }
  - { offsetInCU: 0x4C54F, offset: 0x4C54F, size: 0x8, addend: 0x0, symName: __ZNSt3__116allocator_traitsINS_9allocatorIN7doctest6StringEEEE10deallocateB7v160006ERS4_PS3_m, symObjAddr: 0x1CDC0, symBinAddr: 0x100021500, symSize: 0x30 }
  - { offsetInCU: 0x4C591, offset: 0x4C591, size: 0x8, addend: 0x0, symName: __ZNSt3__16vectorIN7doctest6StringENS_9allocatorIS2_EEE7__allocB7v160006Ev, symObjAddr: 0x1CDF0, symBinAddr: 0x100021530, symSize: 0x20 }
  - { offsetInCU: 0x4C5B7, offset: 0x4C5B7, size: 0x8, addend: 0x0, symName: __ZNKSt3__16vectorIN7doctest6StringENS_9allocatorIS2_EEE8capacityB7v160006Ev, symObjAddr: 0x1CE10, symBinAddr: 0x100021550, symSize: 0x40 }
  - { offsetInCU: 0x4C5DD, offset: 0x4C5DD, size: 0x8, addend: 0x0, symName: __ZNKSt3__16vectorIN7doctest6StringENS_9allocatorIS2_EEE31__annotate_contiguous_containerB7v160006EPKvS7_S7_S7_, symObjAddr: 0x1CE50, symBinAddr: 0x100021590, symSize: 0x20 }
  - { offsetInCU: 0x4C62F, offset: 0x4C62F, size: 0x8, addend: 0x0, symName: __ZNKSt3__16vectorIN7doctest6StringENS_9allocatorIS2_EEE4dataB7v160006Ev, symObjAddr: 0x1CE70, symBinAddr: 0x1000215B0, symSize: 0x20 }
  - { offsetInCU: 0x4C655, offset: 0x4C655, size: 0x8, addend: 0x0, symName: __ZNSt3__16vectorIN7doctest6StringENS_9allocatorIS2_EEE22__base_destruct_at_endB7v160006EPS2_, symObjAddr: 0x1CEA0, symBinAddr: 0x1000215E0, symSize: 0x80 }
  - { offsetInCU: 0x4C699, offset: 0x4C699, size: 0x8, addend: 0x0, symName: __ZNSt3__116allocator_traitsINS_9allocatorIN7doctest6StringEEEE7destroyB7v160006IS3_vEEvRS4_PT_, symObjAddr: 0x1CF20, symBinAddr: 0x100021660, symSize: 0x30 }
  - { offsetInCU: 0x4C6D6, offset: 0x4C6D6, size: 0x8, addend: 0x0, symName: __ZNSt3__19allocatorIN7doctest6StringEE7destroyB7v160006EPS2_, symObjAddr: 0x1CF50, symBinAddr: 0x100021690, symSize: 0x20 }
  - { offsetInCU: 0x4C70B, offset: 0x4C70B, size: 0x8, addend: 0x0, symName: __ZNSt3__19allocatorIN7doctest6StringEE10deallocateB7v160006EPS2_m, symObjAddr: 0x1CF70, symBinAddr: 0x1000216B0, symSize: 0x50 }
  - { offsetInCU: 0x4C74F, offset: 0x4C74F, size: 0x8, addend: 0x0, symName: __ZNSt3__117__compressed_pairIPN7doctest6StringENS_9allocatorIS2_EEE6secondB7v160006Ev, symObjAddr: 0x1CFC0, symBinAddr: 0x100021700, symSize: 0x20 }
  - { offsetInCU: 0x4C775, offset: 0x4C775, size: 0x8, addend: 0x0, symName: __ZNSt3__122__compressed_pair_elemINS_9allocatorIN7doctest6StringEEELi1ELb1EE5__getB7v160006Ev, symObjAddr: 0x1CFE0, symBinAddr: 0x100021720, symSize: 0x10 }
  - { offsetInCU: 0x4C79B, offset: 0x4C79B, size: 0x8, addend: 0x0, symName: __ZNKSt3__16vectorIN7doctest6StringENS_9allocatorIS2_EEE9__end_capB7v160006Ev, symObjAddr: 0x1CFF0, symBinAddr: 0x100021730, symSize: 0x20 }
  - { offsetInCU: 0x4C7C1, offset: 0x4C7C1, size: 0x8, addend: 0x0, symName: __ZNKSt3__117__compressed_pairIPN7doctest6StringENS_9allocatorIS2_EEE5firstB7v160006Ev, symObjAddr: 0x1D010, symBinAddr: 0x100021750, symSize: 0x20 }
  - { offsetInCU: 0x4C7E7, offset: 0x4C7E7, size: 0x8, addend: 0x0, symName: __ZNKSt3__122__compressed_pair_elemIPN7doctest6StringELi0ELb0EE5__getB7v160006Ev, symObjAddr: 0x1D030, symBinAddr: 0x100021770, symSize: 0x10 }
  - { offsetInCU: 0x4C80D, offset: 0x4C80D, size: 0x8, addend: 0x0, symName: __ZNSt3__19allocatorINS_6vectorIN7doctest6StringENS0_IS3_EEEEE10deallocateB7v160006EPS5_m, symObjAddr: 0x1D040, symBinAddr: 0x100021780, symSize: 0x50 }
  - { offsetInCU: 0x4C851, offset: 0x4C851, size: 0x8, addend: 0x0, symName: __ZNSt3__16vectorIPN7doctest9IReporterENS_9allocatorIS3_EEEC2B7v160006Ev, symObjAddr: 0x1D090, symBinAddr: 0x1000217D0, symSize: 0x60 }
  - { offsetInCU: 0x4C87B, offset: 0x4C87B, size: 0x8, addend: 0x0, symName: __ZNSt3__117__compressed_pairIPPN7doctest9IReporterENS_9allocatorIS3_EEEC1B7v160006IDnNS_18__default_init_tagEEEOT_OT0_, symObjAddr: 0x1D0F0, symBinAddr: 0x100021830, symSize: 0x30 }
  - { offsetInCU: 0x4C8D5, offset: 0x4C8D5, size: 0x8, addend: 0x0, symName: __ZNSt3__117__compressed_pairIPPN7doctest9IReporterENS_9allocatorIS3_EEEC2B7v160006IDnNS_18__default_init_tagEEEOT_OT0_, symObjAddr: 0x1D130, symBinAddr: 0x100021870, symSize: 0x40 }
  - { offsetInCU: 0x4C92F, offset: 0x4C92F, size: 0x8, addend: 0x0, symName: __ZNSt3__122__compressed_pair_elemIPPN7doctest9IReporterELi0ELb0EEC2B7v160006IDnvEEOT_, symObjAddr: 0x1D170, symBinAddr: 0x1000218B0, symSize: 0x20 }
  - { offsetInCU: 0x4C972, offset: 0x4C972, size: 0x8, addend: 0x0, symName: __ZNSt3__122__compressed_pair_elemINS_9allocatorIPN7doctest9IReporterEEELi1ELb1EEC2B7v160006ENS_18__default_init_tagE, symObjAddr: 0x1D190, symBinAddr: 0x1000218D0, symSize: 0x20 }
  - { offsetInCU: 0x4C9A7, offset: 0x4C9A7, size: 0x8, addend: 0x0, symName: __ZNSt3__19allocatorIPN7doctest9IReporterEEC2B7v160006Ev, symObjAddr: 0x1D1B0, symBinAddr: 0x1000218F0, symSize: 0x20 }
  - { offsetInCU: 0x4C9D1, offset: 0x4C9D1, size: 0x8, addend: 0x0, symName: __ZNSt3__116__non_trivial_ifILb1ENS_9allocatorIPN7doctest9IReporterEEEEC2B7v160006Ev, symObjAddr: 0x1D1D0, symBinAddr: 0x100021910, symSize: 0x10 }
  - { offsetInCU: 0x4C9FB, offset: 0x4C9FB, size: 0x8, addend: 0x0, symName: __ZN7doctest6detail5TimerC2Ev, symObjAddr: 0x1D1E0, symBinAddr: 0x100021920, symSize: 0x20 }
  - { offsetInCU: 0x4CA28, offset: 0x4CA28, size: 0x8, addend: 0x0, symName: __ZNSt3__16vectorIN7doctest6StringENS_9allocatorIS2_EEEC2B7v160006Ev, symObjAddr: 0x1D200, symBinAddr: 0x100021940, symSize: 0x60 }
  - { offsetInCU: 0x4CA52, offset: 0x4CA52, size: 0x8, addend: 0x0, symName: __ZNSt3__117__compressed_pairIPN7doctest6StringENS_9allocatorIS2_EEEC1B7v160006IDnNS_18__default_init_tagEEEOT_OT0_, symObjAddr: 0x1D260, symBinAddr: 0x1000219A0, symSize: 0x30 }
  - { offsetInCU: 0x4CAAC, offset: 0x4CAAC, size: 0x8, addend: 0x0, symName: __ZNSt3__117__compressed_pairIPN7doctest6StringENS_9allocatorIS2_EEEC2B7v160006IDnNS_18__default_init_tagEEEOT_OT0_, symObjAddr: 0x1D2A0, symBinAddr: 0x1000219E0, symSize: 0x40 }
  - { offsetInCU: 0x4CB06, offset: 0x4CB06, size: 0x8, addend: 0x0, symName: __ZNSt3__122__compressed_pair_elemIPN7doctest6StringELi0ELb0EEC2B7v160006IDnvEEOT_, symObjAddr: 0x1D2E0, symBinAddr: 0x100021A20, symSize: 0x20 }
  - { offsetInCU: 0x4CB49, offset: 0x4CB49, size: 0x8, addend: 0x0, symName: __ZNSt3__122__compressed_pair_elemINS_9allocatorIN7doctest6StringEEELi1ELb1EEC2B7v160006ENS_18__default_init_tagE, symObjAddr: 0x1D300, symBinAddr: 0x100021A40, symSize: 0x20 }
  - { offsetInCU: 0x4CB7E, offset: 0x4CB7E, size: 0x8, addend: 0x0, symName: __ZNSt3__19allocatorIN7doctest6StringEEC2B7v160006Ev, symObjAddr: 0x1D320, symBinAddr: 0x100021A60, symSize: 0x20 }
  - { offsetInCU: 0x4CBA8, offset: 0x4CBA8, size: 0x8, addend: 0x0, symName: __ZNSt3__116__non_trivial_ifILb1ENS_9allocatorIN7doctest6StringEEEEC2B7v160006Ev, symObjAddr: 0x1D340, symBinAddr: 0x100021A80, symSize: 0x10 }
  - { offsetInCU: 0x4CBD2, offset: 0x4CBD2, size: 0x8, addend: 0x0, symName: __ZNSt3__16vectorIN7doctest16SubcaseSignatureENS_9allocatorIS2_EEEC2B7v160006Ev, symObjAddr: 0x1D350, symBinAddr: 0x100021A90, symSize: 0x60 }
  - { offsetInCU: 0x4CBFC, offset: 0x4CBFC, size: 0x8, addend: 0x0, symName: __ZNSt3__117__compressed_pairIPN7doctest16SubcaseSignatureENS_9allocatorIS2_EEEC1B7v160006IDnNS_18__default_init_tagEEEOT_OT0_, symObjAddr: 0x1D3B0, symBinAddr: 0x100021AF0, symSize: 0x30 }
  - { offsetInCU: 0x4CC56, offset: 0x4CC56, size: 0x8, addend: 0x0, symName: __ZNSt3__117__compressed_pairIPN7doctest16SubcaseSignatureENS_9allocatorIS2_EEEC2B7v160006IDnNS_18__default_init_tagEEEOT_OT0_, symObjAddr: 0x1D3F0, symBinAddr: 0x100021B30, symSize: 0x40 }
  - { offsetInCU: 0x4CCB0, offset: 0x4CCB0, size: 0x8, addend: 0x0, symName: __ZNSt3__122__compressed_pair_elemIPN7doctest16SubcaseSignatureELi0ELb0EEC2B7v160006IDnvEEOT_, symObjAddr: 0x1D430, symBinAddr: 0x100021B70, symSize: 0x20 }
  - { offsetInCU: 0x4CCF3, offset: 0x4CCF3, size: 0x8, addend: 0x0, symName: __ZNSt3__122__compressed_pair_elemINS_9allocatorIN7doctest16SubcaseSignatureEEELi1ELb1EEC2B7v160006ENS_18__default_init_tagE, symObjAddr: 0x1D450, symBinAddr: 0x100021B90, symSize: 0x20 }
  - { offsetInCU: 0x4CD28, offset: 0x4CD28, size: 0x8, addend: 0x0, symName: __ZNSt3__19allocatorIN7doctest16SubcaseSignatureEEC2B7v160006Ev, symObjAddr: 0x1D470, symBinAddr: 0x100021BB0, symSize: 0x20 }
  - { offsetInCU: 0x4CD52, offset: 0x4CD52, size: 0x8, addend: 0x0, symName: __ZNSt3__116__non_trivial_ifILb1ENS_9allocatorIN7doctest16SubcaseSignatureEEEEC2B7v160006Ev, symObjAddr: 0x1D490, symBinAddr: 0x100021BD0, symSize: 0x10 }
  - { offsetInCU: 0x4CD7C, offset: 0x4CD7C, size: 0x8, addend: 0x0, symName: __ZNSt3__113unordered_setIyNS_4hashIyEENS_8equal_toIyEENS_9allocatorIyEEEC2B7v160006Ev, symObjAddr: 0x1D4A0, symBinAddr: 0x100021BE0, symSize: 0x40 }
  - { offsetInCU: 0x4CDA6, offset: 0x4CDA6, size: 0x8, addend: 0x0, symName: __ZNSt3__112__hash_tableIyNS_4hashIyEENS_8equal_toIyEENS_9allocatorIyEEEC1Ev, symObjAddr: 0x1D4E0, symBinAddr: 0x100021C20, symSize: 0x20 }
  - { offsetInCU: 0x4CDD2, offset: 0x4CDD2, size: 0x8, addend: 0x0, symName: __ZNSt3__112__hash_tableIyNS_4hashIyEENS_8equal_toIyEENS_9allocatorIyEEEC2Ev, symObjAddr: 0x1D510, symBinAddr: 0x100021C50, symSize: 0x80 }
  - { offsetInCU: 0x4CDFE, offset: 0x4CDFE, size: 0x8, addend: 0x0, symName: __ZNSt3__110unique_ptrIA_PNS_16__hash_node_baseIPNS_11__hash_nodeIyPvEEEENS_25__bucket_list_deallocatorINS_9allocatorIS7_EEEEEC1B7v160006ILb1EvEEv, symObjAddr: 0x1D590, symBinAddr: 0x100021CD0, symSize: 0x20 }
  - { offsetInCU: 0x4CE33, offset: 0x4CE33, size: 0x8, addend: 0x0, symName: __ZNSt3__117__compressed_pairINS_16__hash_node_baseIPNS_11__hash_nodeIyPvEEEENS_9allocatorIS4_EEEC1B7v160006ILb1EvEEv, symObjAddr: 0x1D5B0, symBinAddr: 0x100021CF0, symSize: 0x20 }
  - { offsetInCU: 0x4CE6E, offset: 0x4CE6E, size: 0x8, addend: 0x0, symName: __ZNSt3__117__compressed_pairImNS_4hashIyEEEC1B7v160006IiNS_18__default_init_tagEEEOT_OT0_, symObjAddr: 0x1D5D0, symBinAddr: 0x100021D10, symSize: 0x30 }
  - { offsetInCU: 0x4CECE, offset: 0x4CECE, size: 0x8, addend: 0x0, symName: __ZNSt3__117__compressed_pairIfNS_8equal_toIyEEEC1B7v160006IfNS_18__default_init_tagEEEOT_OT0_, symObjAddr: 0x1D600, symBinAddr: 0x100021D40, symSize: 0x30 }
  - { offsetInCU: 0x4CF28, offset: 0x4CF28, size: 0x8, addend: 0x0, symName: __ZNSt3__110unique_ptrIA_PNS_16__hash_node_baseIPNS_11__hash_nodeIyPvEEEENS_25__bucket_list_deallocatorINS_9allocatorIS7_EEEEEC2B7v160006ILb1EvEEv, symObjAddr: 0x1D630, symBinAddr: 0x100021D70, symSize: 0x30 }
  - { offsetInCU: 0x4CF63, offset: 0x4CF63, size: 0x8, addend: 0x0, symName: __ZNSt3__117__compressed_pairIPPNS_16__hash_node_baseIPNS_11__hash_nodeIyPvEEEENS_25__bucket_list_deallocatorINS_9allocatorIS7_EEEEEC1B7v160006INS_16__value_init_tagESF_EEOT_OT0_, symObjAddr: 0x1D660, symBinAddr: 0x100021DA0, symSize: 0x30 }
  - { offsetInCU: 0x4CFBD, offset: 0x4CFBD, size: 0x8, addend: 0x0, symName: __ZNSt3__117__compressed_pairIPPNS_16__hash_node_baseIPNS_11__hash_nodeIyPvEEEENS_25__bucket_list_deallocatorINS_9allocatorIS7_EEEEEC2B7v160006INS_16__value_init_tagESF_EEOT_OT0_, symObjAddr: 0x1D690, symBinAddr: 0x100021DD0, symSize: 0x40 }
  - { offsetInCU: 0x4D017, offset: 0x4D017, size: 0x8, addend: 0x0, symName: __ZNSt3__122__compressed_pair_elemIPPNS_16__hash_node_baseIPNS_11__hash_nodeIyPvEEEELi0ELb0EEC2B7v160006ENS_16__value_init_tagE, symObjAddr: 0x1D6D0, symBinAddr: 0x100021E10, symSize: 0x20 }
  - { offsetInCU: 0x4D04C, offset: 0x4D04C, size: 0x8, addend: 0x0, symName: __ZNSt3__122__compressed_pair_elemINS_25__bucket_list_deallocatorINS_9allocatorIPNS_16__hash_node_baseIPNS_11__hash_nodeIyPvEEEEEEEELi1ELb0EEC2B7v160006ENS_16__value_init_tagE, symObjAddr: 0x1D6F0, symBinAddr: 0x100021E30, symSize: 0x20 }
  - { offsetInCU: 0x4D081, offset: 0x4D081, size: 0x8, addend: 0x0, symName: __ZNSt3__125__bucket_list_deallocatorINS_9allocatorIPNS_16__hash_node_baseIPNS_11__hash_nodeIyPvEEEEEEEC1B7v160006Ev, symObjAddr: 0x1D710, symBinAddr: 0x100021E50, symSize: 0x20 }
  - { offsetInCU: 0x4D0AB, offset: 0x4D0AB, size: 0x8, addend: 0x0, symName: __ZNSt3__125__bucket_list_deallocatorINS_9allocatorIPNS_16__hash_node_baseIPNS_11__hash_nodeIyPvEEEEEEEC2B7v160006Ev, symObjAddr: 0x1D730, symBinAddr: 0x100021E70, symSize: 0x40 }
  - { offsetInCU: 0x4D0D5, offset: 0x4D0D5, size: 0x8, addend: 0x0, symName: __ZNSt3__117__compressed_pairImNS_9allocatorIPNS_16__hash_node_baseIPNS_11__hash_nodeIyPvEEEEEEEC1B7v160006IiNS_18__default_init_tagEEEOT_OT0_, symObjAddr: 0x1D770, symBinAddr: 0x100021EB0, symSize: 0x30 }
  - { offsetInCU: 0x4D12F, offset: 0x4D12F, size: 0x8, addend: 0x0, symName: __ZNSt3__117__compressed_pairImNS_9allocatorIPNS_16__hash_node_baseIPNS_11__hash_nodeIyPvEEEEEEEC2B7v160006IiNS_18__default_init_tagEEEOT_OT0_, symObjAddr: 0x1D7A0, symBinAddr: 0x100021EE0, symSize: 0x40 }
  - { offsetInCU: 0x4D189, offset: 0x4D189, size: 0x8, addend: 0x0, symName: __ZNSt3__122__compressed_pair_elemImLi0ELb0EEC2B7v160006IivEEOT_, symObjAddr: 0x1D7E0, symBinAddr: 0x100021F20, symSize: 0x20 }
  - { offsetInCU: 0x4D1CC, offset: 0x4D1CC, size: 0x8, addend: 0x0, symName: __ZNSt3__122__compressed_pair_elemINS_9allocatorIPNS_16__hash_node_baseIPNS_11__hash_nodeIyPvEEEEEELi1ELb1EEC2B7v160006ENS_18__default_init_tagE, symObjAddr: 0x1D800, symBinAddr: 0x100021F40, symSize: 0x20 }
  - { offsetInCU: 0x4D201, offset: 0x4D201, size: 0x8, addend: 0x0, symName: __ZNSt3__19allocatorIPNS_16__hash_node_baseIPNS_11__hash_nodeIyPvEEEEEC2B7v160006Ev, symObjAddr: 0x1D820, symBinAddr: 0x100021F60, symSize: 0x20 }
  - { offsetInCU: 0x4D22B, offset: 0x4D22B, size: 0x8, addend: 0x0, symName: __ZNSt3__116__non_trivial_ifILb1ENS_9allocatorIPNS_16__hash_node_baseIPNS_11__hash_nodeIyPvEEEEEEEC2B7v160006Ev, symObjAddr: 0x1D840, symBinAddr: 0x100021F80, symSize: 0x10 }
  - { offsetInCU: 0x4D255, offset: 0x4D255, size: 0x8, addend: 0x0, symName: __ZNSt3__117__compressed_pairINS_16__hash_node_baseIPNS_11__hash_nodeIyPvEEEENS_9allocatorIS4_EEEC2B7v160006ILb1EvEEv, symObjAddr: 0x1D850, symBinAddr: 0x100021F90, symSize: 0x30 }
  - { offsetInCU: 0x4D28A, offset: 0x4D28A, size: 0x8, addend: 0x0, symName: __ZNSt3__122__compressed_pair_elemINS_16__hash_node_baseIPNS_11__hash_nodeIyPvEEEELi0ELb0EEC2B7v160006ENS_16__value_init_tagE, symObjAddr: 0x1D880, symBinAddr: 0x100021FC0, symSize: 0x20 }
  - { offsetInCU: 0x4D2BF, offset: 0x4D2BF, size: 0x8, addend: 0x0, symName: __ZNSt3__122__compressed_pair_elemINS_9allocatorINS_11__hash_nodeIyPvEEEELi1ELb1EEC2B7v160006ENS_16__value_init_tagE, symObjAddr: 0x1D8A0, symBinAddr: 0x100021FE0, symSize: 0x20 }
  - { offsetInCU: 0x4D2F4, offset: 0x4D2F4, size: 0x8, addend: 0x0, symName: __ZNSt3__116__hash_node_baseIPNS_11__hash_nodeIyPvEEEC1B7v160006Ev, symObjAddr: 0x1D8C0, symBinAddr: 0x100022000, symSize: 0x20 }
  - { offsetInCU: 0x4D31E, offset: 0x4D31E, size: 0x8, addend: 0x0, symName: __ZNSt3__116__hash_node_baseIPNS_11__hash_nodeIyPvEEEC2B7v160006Ev, symObjAddr: 0x1D8E0, symBinAddr: 0x100022020, symSize: 0x20 }
  - { offsetInCU: 0x4D348, offset: 0x4D348, size: 0x8, addend: 0x0, symName: __ZNSt3__19allocatorINS_11__hash_nodeIyPvEEEC2B7v160006Ev, symObjAddr: 0x1D900, symBinAddr: 0x100022040, symSize: 0x20 }
  - { offsetInCU: 0x4D372, offset: 0x4D372, size: 0x8, addend: 0x0, symName: __ZNSt3__116__non_trivial_ifILb1ENS_9allocatorINS_11__hash_nodeIyPvEEEEEC2B7v160006Ev, symObjAddr: 0x1D920, symBinAddr: 0x100022060, symSize: 0x10 }
  - { offsetInCU: 0x4D39C, offset: 0x4D39C, size: 0x8, addend: 0x0, symName: __ZNSt3__117__compressed_pairImNS_4hashIyEEEC2B7v160006IiNS_18__default_init_tagEEEOT_OT0_, symObjAddr: 0x1D930, symBinAddr: 0x100022070, symSize: 0x40 }
  - { offsetInCU: 0x4D3F6, offset: 0x4D3F6, size: 0x8, addend: 0x0, symName: __ZNSt3__122__compressed_pair_elemINS_4hashIyEELi1ELb1EEC2B7v160006ENS_18__default_init_tagE, symObjAddr: 0x1D970, symBinAddr: 0x1000220B0, symSize: 0x10 }
  - { offsetInCU: 0x4D42B, offset: 0x4D42B, size: 0x8, addend: 0x0, symName: __ZNSt3__117__compressed_pairIfNS_8equal_toIyEEEC2B7v160006IfNS_18__default_init_tagEEEOT_OT0_, symObjAddr: 0x1D980, symBinAddr: 0x1000220C0, symSize: 0x40 }
  - { offsetInCU: 0x4D485, offset: 0x4D485, size: 0x8, addend: 0x0, symName: __ZNSt3__122__compressed_pair_elemIfLi0ELb0EEC2B7v160006IfvEEOT_, symObjAddr: 0x1D9C0, symBinAddr: 0x100022100, symSize: 0x20 }
  - { offsetInCU: 0x4D4C8, offset: 0x4D4C8, size: 0x8, addend: 0x0, symName: __ZNSt3__122__compressed_pair_elemINS_8equal_toIyEELi1ELb1EEC2B7v160006ENS_18__default_init_tagE, symObjAddr: 0x1D9E0, symBinAddr: 0x100022120, symSize: 0x10 }
  - { offsetInCU: 0x4D4FD, offset: 0x4D4FD, size: 0x8, addend: 0x0, symName: __ZN7doctest6detail12ContextStateD2Ev, symObjAddr: 0x1D9F0, symBinAddr: 0x100022130, symSize: 0x80 }
  - { offsetInCU: 0x4D52A, offset: 0x4D52A, size: 0x8, addend: 0x0, symName: __ZNSt3__113unordered_setIyNS_4hashIyEENS_8equal_toIyEENS_9allocatorIyEEED1B7v160006Ev, symObjAddr: 0x1DA70, symBinAddr: 0x1000221B0, symSize: 0x20 }
  - { offsetInCU: 0x4D554, offset: 0x4D554, size: 0x8, addend: 0x0, symName: __ZNSt3__16vectorIN7doctest16SubcaseSignatureENS_9allocatorIS2_EEED1B7v160006Ev, symObjAddr: 0x1DA90, symBinAddr: 0x1000221D0, symSize: 0x20 }
  - { offsetInCU: 0x4D57E, offset: 0x4D57E, size: 0x8, addend: 0x0, symName: __ZNSt3__16vectorIPN7doctest9IReporterENS_9allocatorIS3_EEED1B7v160006Ev, symObjAddr: 0x1DAB0, symBinAddr: 0x1000221F0, symSize: 0x20 }
  - { offsetInCU: 0x4D5A8, offset: 0x4D5A8, size: 0x8, addend: 0x0, symName: __ZNSt3__16vectorINS0_IN7doctest6StringENS_9allocatorIS2_EEEENS3_IS5_EEED1B7v160006Ev, symObjAddr: 0x1DAD0, symBinAddr: 0x100022210, symSize: 0x20 }
  - { offsetInCU: 0x4D5D2, offset: 0x4D5D2, size: 0x8, addend: 0x0, symName: __ZNSt3__113unordered_setIyNS_4hashIyEENS_8equal_toIyEENS_9allocatorIyEEED2B7v160006Ev, symObjAddr: 0x1DAF0, symBinAddr: 0x100022230, symSize: 0x20 }
  - { offsetInCU: 0x4D5FC, offset: 0x4D5FC, size: 0x8, addend: 0x0, symName: __ZNSt3__112__hash_tableIyNS_4hashIyEENS_8equal_toIyEENS_9allocatorIyEEED1Ev, symObjAddr: 0x1DB10, symBinAddr: 0x100022250, symSize: 0x20 }
  - { offsetInCU: 0x4D628, offset: 0x4D628, size: 0x8, addend: 0x0, symName: __ZNSt3__112__hash_tableIyNS_4hashIyEENS_8equal_toIyEENS_9allocatorIyEEED2Ev, symObjAddr: 0x1DB30, symBinAddr: 0x100022270, symSize: 0x50 }
  - { offsetInCU: 0x4D654, offset: 0x4D654, size: 0x8, addend: 0x0, symName: __ZNSt3__112__hash_tableIyNS_4hashIyEENS_8equal_toIyEENS_9allocatorIyEEE17__deallocate_nodeEPNS_16__hash_node_baseIPNS_11__hash_nodeIyPvEEEE, symObjAddr: 0x1DB80, symBinAddr: 0x1000222C0, symSize: 0xA0 }
  - { offsetInCU: 0x4D6BE, offset: 0x4D6BE, size: 0x8, addend: 0x0, symName: __ZNSt3__117__compressed_pairINS_16__hash_node_baseIPNS_11__hash_nodeIyPvEEEENS_9allocatorIS4_EEE5firstB7v160006Ev, symObjAddr: 0x1DC20, symBinAddr: 0x100022360, symSize: 0x20 }
  - { offsetInCU: 0x4D6E4, offset: 0x4D6E4, size: 0x8, addend: 0x0, symName: __ZNSt3__110unique_ptrIA_PNS_16__hash_node_baseIPNS_11__hash_nodeIyPvEEEENS_25__bucket_list_deallocatorINS_9allocatorIS7_EEEEED1B7v160006Ev, symObjAddr: 0x1DC50, symBinAddr: 0x100022390, symSize: 0x20 }
  - { offsetInCU: 0x4D70E, offset: 0x4D70E, size: 0x8, addend: 0x0, symName: __ZNSt3__112__hash_tableIyNS_4hashIyEENS_8equal_toIyEENS_9allocatorIyEEE12__node_allocB7v160006Ev, symObjAddr: 0x1DC70, symBinAddr: 0x1000223B0, symSize: 0x20 }
  - { offsetInCU: 0x4D734, offset: 0x4D734, size: 0x8, addend: 0x0, symName: __ZNSt3__116__hash_node_baseIPNS_11__hash_nodeIyPvEEE8__upcastB7v160006Ev, symObjAddr: 0x1DC90, symBinAddr: 0x1000223D0, symSize: 0x20 }
  - { offsetInCU: 0x4D75A, offset: 0x4D75A, size: 0x8, addend: 0x0, symName: __ZNSt3__116allocator_traitsINS_9allocatorINS_11__hash_nodeIyPvEEEEE7destroyB7v160006IyvvEEvRS5_PT_, symObjAddr: 0x1DCB0, symBinAddr: 0x1000223F0, symSize: 0x10 }
  - { offsetInCU: 0x4D794, offset: 0x4D794, size: 0x8, addend: 0x0, symName: __ZNSt3__122__hash_key_value_typesIyE9__get_ptrB7v160006ERy, symObjAddr: 0x1DCC0, symBinAddr: 0x100022400, symSize: 0x10 }
  - { offsetInCU: 0x4D7B8, offset: 0x4D7B8, size: 0x8, addend: 0x0, symName: __ZNSt3__116allocator_traitsINS_9allocatorINS_11__hash_nodeIyPvEEEEE10deallocateB7v160006ERS5_PS4_m, symObjAddr: 0x1DCD0, symBinAddr: 0x100022410, symSize: 0x30 }
  - { offsetInCU: 0x4D7FA, offset: 0x4D7FA, size: 0x8, addend: 0x0, symName: __ZNSt3__117__compressed_pairINS_16__hash_node_baseIPNS_11__hash_nodeIyPvEEEENS_9allocatorIS4_EEE6secondB7v160006Ev, symObjAddr: 0x1DD00, symBinAddr: 0x100022440, symSize: 0x20 }
  - { offsetInCU: 0x4D820, offset: 0x4D820, size: 0x8, addend: 0x0, symName: __ZNSt3__122__compressed_pair_elemINS_9allocatorINS_11__hash_nodeIyPvEEEELi1ELb1EE5__getB7v160006Ev, symObjAddr: 0x1DD20, symBinAddr: 0x100022460, symSize: 0x10 }
  - { offsetInCU: 0x4D846, offset: 0x4D846, size: 0x8, addend: 0x0, symName: __ZNSt3__114pointer_traitsIPNS_16__hash_node_baseIPNS_11__hash_nodeIyPvEEEEE10pointer_toB7v160006ERS6_, symObjAddr: 0x1DD30, symBinAddr: 0x100022470, symSize: 0x10 }
  - { offsetInCU: 0x4D86A, offset: 0x4D86A, size: 0x8, addend: 0x0, symName: __ZNSt3__19allocatorINS_11__hash_nodeIyPvEEE10deallocateB7v160006EPS3_m, symObjAddr: 0x1DD40, symBinAddr: 0x100022480, symSize: 0x50 }
  - { offsetInCU: 0x4D8AE, offset: 0x4D8AE, size: 0x8, addend: 0x0, symName: __ZNSt3__122__compressed_pair_elemINS_16__hash_node_baseIPNS_11__hash_nodeIyPvEEEELi0ELb0EE5__getB7v160006Ev, symObjAddr: 0x1DD90, symBinAddr: 0x1000224D0, symSize: 0x10 }
  - { offsetInCU: 0x4D8D4, offset: 0x4D8D4, size: 0x8, addend: 0x0, symName: __ZNSt3__110unique_ptrIA_PNS_16__hash_node_baseIPNS_11__hash_nodeIyPvEEEENS_25__bucket_list_deallocatorINS_9allocatorIS7_EEEEED2B7v160006Ev, symObjAddr: 0x1DDA0, symBinAddr: 0x1000224E0, symSize: 0x20 }
  - { offsetInCU: 0x4D8FE, offset: 0x4D8FE, size: 0x8, addend: 0x0, symName: __ZNSt3__110unique_ptrIA_PNS_16__hash_node_baseIPNS_11__hash_nodeIyPvEEEENS_25__bucket_list_deallocatorINS_9allocatorIS7_EEEEE5resetB7v160006EDn, symObjAddr: 0x1DDC0, symBinAddr: 0x100022500, symSize: 0x60 }
  - { offsetInCU: 0x4D93E, offset: 0x4D93E, size: 0x8, addend: 0x0, symName: __ZNSt3__117__compressed_pairIPPNS_16__hash_node_baseIPNS_11__hash_nodeIyPvEEEENS_25__bucket_list_deallocatorINS_9allocatorIS7_EEEEE5firstB7v160006Ev, symObjAddr: 0x1DE20, symBinAddr: 0x100022560, symSize: 0x20 }
  - { offsetInCU: 0x4D964, offset: 0x4D964, size: 0x8, addend: 0x0, symName: __ZNSt3__117__compressed_pairIPPNS_16__hash_node_baseIPNS_11__hash_nodeIyPvEEEENS_25__bucket_list_deallocatorINS_9allocatorIS7_EEEEE6secondB7v160006Ev, symObjAddr: 0x1DE40, symBinAddr: 0x100022580, symSize: 0x20 }
  - { offsetInCU: 0x4D98A, offset: 0x4D98A, size: 0x8, addend: 0x0, symName: __ZNSt3__125__bucket_list_deallocatorINS_9allocatorIPNS_16__hash_node_baseIPNS_11__hash_nodeIyPvEEEEEEEclB7v160006EPS8_, symObjAddr: 0x1DE60, symBinAddr: 0x1000225A0, symSize: 0x50 }
  - { offsetInCU: 0x4D9BF, offset: 0x4D9BF, size: 0x8, addend: 0x0, symName: __ZNSt3__122__compressed_pair_elemIPPNS_16__hash_node_baseIPNS_11__hash_nodeIyPvEEEELi0ELb0EE5__getB7v160006Ev, symObjAddr: 0x1DEB0, symBinAddr: 0x1000225F0, symSize: 0x10 }
  - { offsetInCU: 0x4D9E5, offset: 0x4D9E5, size: 0x8, addend: 0x0, symName: __ZNSt3__122__compressed_pair_elemINS_25__bucket_list_deallocatorINS_9allocatorIPNS_16__hash_node_baseIPNS_11__hash_nodeIyPvEEEEEEEELi1ELb0EE5__getB7v160006Ev, symObjAddr: 0x1DEC0, symBinAddr: 0x100022600, symSize: 0x10 }
  - { offsetInCU: 0x4DA0B, offset: 0x4DA0B, size: 0x8, addend: 0x0, symName: __ZNSt3__116allocator_traitsINS_9allocatorIPNS_16__hash_node_baseIPNS_11__hash_nodeIyPvEEEEEEE10deallocateB7v160006ERS9_PS8_m, symObjAddr: 0x1DED0, symBinAddr: 0x100022610, symSize: 0x30 }
  - { offsetInCU: 0x4DA4D, offset: 0x4DA4D, size: 0x8, addend: 0x0, symName: __ZNSt3__125__bucket_list_deallocatorINS_9allocatorIPNS_16__hash_node_baseIPNS_11__hash_nodeIyPvEEEEEEE7__allocB7v160006Ev, symObjAddr: 0x1DF00, symBinAddr: 0x100022640, symSize: 0x20 }
  - { offsetInCU: 0x4DA73, offset: 0x4DA73, size: 0x8, addend: 0x0, symName: __ZNSt3__125__bucket_list_deallocatorINS_9allocatorIPNS_16__hash_node_baseIPNS_11__hash_nodeIyPvEEEEEEE4sizeB7v160006Ev, symObjAddr: 0x1DF20, symBinAddr: 0x100022660, symSize: 0x20 }
  - { offsetInCU: 0x4DA99, offset: 0x4DA99, size: 0x8, addend: 0x0, symName: __ZNSt3__19allocatorIPNS_16__hash_node_baseIPNS_11__hash_nodeIyPvEEEEE10deallocateB7v160006EPS7_m, symObjAddr: 0x1DF40, symBinAddr: 0x100022680, symSize: 0x40 }
  - { offsetInCU: 0x4DADD, offset: 0x4DADD, size: 0x8, addend: 0x0, symName: __ZNSt3__117__compressed_pairImNS_9allocatorIPNS_16__hash_node_baseIPNS_11__hash_nodeIyPvEEEEEEE6secondB7v160006Ev, symObjAddr: 0x1DF80, symBinAddr: 0x1000226C0, symSize: 0x20 }
  - { offsetInCU: 0x4DB03, offset: 0x4DB03, size: 0x8, addend: 0x0, symName: __ZNSt3__122__compressed_pair_elemINS_9allocatorIPNS_16__hash_node_baseIPNS_11__hash_nodeIyPvEEEEEELi1ELb1EE5__getB7v160006Ev, symObjAddr: 0x1DFA0, symBinAddr: 0x1000226E0, symSize: 0x10 }
  - { offsetInCU: 0x4DB29, offset: 0x4DB29, size: 0x8, addend: 0x0, symName: __ZNSt3__117__compressed_pairImNS_9allocatorIPNS_16__hash_node_baseIPNS_11__hash_nodeIyPvEEEEEEE5firstB7v160006Ev, symObjAddr: 0x1DFB0, symBinAddr: 0x1000226F0, symSize: 0x20 }
  - { offsetInCU: 0x4DB4F, offset: 0x4DB4F, size: 0x8, addend: 0x0, symName: __ZNSt3__122__compressed_pair_elemImLi0ELb0EE5__getB7v160006Ev, symObjAddr: 0x1DFD0, symBinAddr: 0x100022710, symSize: 0x10 }
  - { offsetInCU: 0x4DB75, offset: 0x4DB75, size: 0x8, addend: 0x0, symName: __ZNSt3__16vectorIN7doctest16SubcaseSignatureENS_9allocatorIS2_EEED2B7v160006Ev, symObjAddr: 0x1DFE0, symBinAddr: 0x100022720, symSize: 0x40 }
  - { offsetInCU: 0x4DB9F, offset: 0x4DB9F, size: 0x8, addend: 0x0, symName: __ZNSt3__16vectorIN7doctest16SubcaseSignatureENS_9allocatorIS2_EEE16__destroy_vectorC1ERS5_, symObjAddr: 0x1E020, symBinAddr: 0x100022760, symSize: 0x30 }
  - { offsetInCU: 0x4DBD8, offset: 0x4DBD8, size: 0x8, addend: 0x0, symName: __ZNSt3__16vectorIN7doctest16SubcaseSignatureENS_9allocatorIS2_EEE16__destroy_vectorclB7v160006Ev, symObjAddr: 0x1E050, symBinAddr: 0x100022790, symSize: 0x90 }
  - { offsetInCU: 0x4DBFE, offset: 0x4DBFE, size: 0x8, addend: 0x0, symName: __ZNSt3__16vectorIN7doctest16SubcaseSignatureENS_9allocatorIS2_EEE16__destroy_vectorC2ERS5_, symObjAddr: 0x1E0E0, symBinAddr: 0x100022820, symSize: 0x20 }
  - { offsetInCU: 0x4DC37, offset: 0x4DC37, size: 0x8, addend: 0x0, symName: __ZNKSt3__16vectorIN7doctest16SubcaseSignatureENS_9allocatorIS2_EEE17__annotate_deleteB7v160006Ev, symObjAddr: 0x1E100, symBinAddr: 0x100022840, symSize: 0xB0 }
  - { offsetInCU: 0x4DC5D, offset: 0x4DC5D, size: 0x8, addend: 0x0, symName: __ZNSt3__16vectorIN7doctest16SubcaseSignatureENS_9allocatorIS2_EEE7__clearB7v160006Ev, symObjAddr: 0x1E1C0, symBinAddr: 0x100022900, symSize: 0x20 }
  - { offsetInCU: 0x4DC83, offset: 0x4DC83, size: 0x8, addend: 0x0, symName: __ZNSt3__116allocator_traitsINS_9allocatorIN7doctest16SubcaseSignatureEEEE10deallocateB7v160006ERS4_PS3_m, symObjAddr: 0x1E1E0, symBinAddr: 0x100022920, symSize: 0x30 }
  - { offsetInCU: 0x4DCC5, offset: 0x4DCC5, size: 0x8, addend: 0x0, symName: __ZNSt3__16vectorIN7doctest16SubcaseSignatureENS_9allocatorIS2_EEE7__allocB7v160006Ev, symObjAddr: 0x1E210, symBinAddr: 0x100022950, symSize: 0x20 }
  - { offsetInCU: 0x4DCEB, offset: 0x4DCEB, size: 0x8, addend: 0x0, symName: __ZNKSt3__16vectorIN7doctest16SubcaseSignatureENS_9allocatorIS2_EEE8capacityB7v160006Ev, symObjAddr: 0x1E230, symBinAddr: 0x100022970, symSize: 0x40 }
  - { offsetInCU: 0x4DD11, offset: 0x4DD11, size: 0x8, addend: 0x0, symName: __ZNKSt3__16vectorIN7doctest16SubcaseSignatureENS_9allocatorIS2_EEE31__annotate_contiguous_containerB7v160006EPKvS7_S7_S7_, symObjAddr: 0x1E270, symBinAddr: 0x1000229B0, symSize: 0x20 }
  - { offsetInCU: 0x4DD63, offset: 0x4DD63, size: 0x8, addend: 0x0, symName: __ZNKSt3__16vectorIN7doctest16SubcaseSignatureENS_9allocatorIS2_EEE4dataB7v160006Ev, symObjAddr: 0x1E290, symBinAddr: 0x1000229D0, symSize: 0x20 }
  - { offsetInCU: 0x4DD89, offset: 0x4DD89, size: 0x8, addend: 0x0, symName: __ZNSt3__16vectorIN7doctest16SubcaseSignatureENS_9allocatorIS2_EEE22__base_destruct_at_endB7v160006EPS2_, symObjAddr: 0x1E2C0, symBinAddr: 0x100022A00, symSize: 0x80 }
  - { offsetInCU: 0x4DDCD, offset: 0x4DDCD, size: 0x8, addend: 0x0, symName: __ZNSt3__116allocator_traitsINS_9allocatorIN7doctest16SubcaseSignatureEEEE7destroyB7v160006IS3_vEEvRS4_PT_, symObjAddr: 0x1E340, symBinAddr: 0x100022A80, symSize: 0x30 }
  - { offsetInCU: 0x4DE0A, offset: 0x4DE0A, size: 0x8, addend: 0x0, symName: __ZNSt3__19allocatorIN7doctest16SubcaseSignatureEE7destroyB7v160006EPS2_, symObjAddr: 0x1E370, symBinAddr: 0x100022AB0, symSize: 0x20 }
  - { offsetInCU: 0x4DE3F, offset: 0x4DE3F, size: 0x8, addend: 0x0, symName: __ZNSt3__19allocatorIN7doctest16SubcaseSignatureEE10deallocateB7v160006EPS2_m, symObjAddr: 0x1E390, symBinAddr: 0x100022AD0, symSize: 0x50 }
  - { offsetInCU: 0x4DE83, offset: 0x4DE83, size: 0x8, addend: 0x0, symName: __ZNSt3__117__compressed_pairIPN7doctest16SubcaseSignatureENS_9allocatorIS2_EEE6secondB7v160006Ev, symObjAddr: 0x1E3E0, symBinAddr: 0x100022B20, symSize: 0x20 }
  - { offsetInCU: 0x4DEA9, offset: 0x4DEA9, size: 0x8, addend: 0x0, symName: __ZNSt3__122__compressed_pair_elemINS_9allocatorIN7doctest16SubcaseSignatureEEELi1ELb1EE5__getB7v160006Ev, symObjAddr: 0x1E400, symBinAddr: 0x100022B40, symSize: 0x10 }
  - { offsetInCU: 0x4DECF, offset: 0x4DECF, size: 0x8, addend: 0x0, symName: __ZNKSt3__16vectorIN7doctest16SubcaseSignatureENS_9allocatorIS2_EEE9__end_capB7v160006Ev, symObjAddr: 0x1E410, symBinAddr: 0x100022B50, symSize: 0x20 }
  - { offsetInCU: 0x4DEF5, offset: 0x4DEF5, size: 0x8, addend: 0x0, symName: __ZNKSt3__117__compressed_pairIPN7doctest16SubcaseSignatureENS_9allocatorIS2_EEE5firstB7v160006Ev, symObjAddr: 0x1E430, symBinAddr: 0x100022B70, symSize: 0x20 }
  - { offsetInCU: 0x4DF1B, offset: 0x4DF1B, size: 0x8, addend: 0x0, symName: __ZNKSt3__122__compressed_pair_elemIPN7doctest16SubcaseSignatureELi0ELb0EE5__getB7v160006Ev, symObjAddr: 0x1E450, symBinAddr: 0x100022B90, symSize: 0x10 }
  - { offsetInCU: 0x4DF41, offset: 0x4DF41, size: 0x8, addend: 0x0, symName: __ZNSt3__16vectorIPN7doctest9IReporterENS_9allocatorIS3_EEED2B7v160006Ev, symObjAddr: 0x1E460, symBinAddr: 0x100022BA0, symSize: 0x40 }
  - { offsetInCU: 0x4DF6B, offset: 0x4DF6B, size: 0x8, addend: 0x0, symName: __ZNSt3__16vectorIPN7doctest9IReporterENS_9allocatorIS3_EEE16__destroy_vectorC1ERS6_, symObjAddr: 0x1E4A0, symBinAddr: 0x100022BE0, symSize: 0x30 }
  - { offsetInCU: 0x4DFA4, offset: 0x4DFA4, size: 0x8, addend: 0x0, symName: __ZNSt3__16vectorIPN7doctest9IReporterENS_9allocatorIS3_EEE16__destroy_vectorclB7v160006Ev, symObjAddr: 0x1E4D0, symBinAddr: 0x100022C10, symSize: 0x90 }
  - { offsetInCU: 0x4DFCA, offset: 0x4DFCA, size: 0x8, addend: 0x0, symName: __ZNSt3__16vectorIPN7doctest9IReporterENS_9allocatorIS3_EEE16__destroy_vectorC2ERS6_, symObjAddr: 0x1E560, symBinAddr: 0x100022CA0, symSize: 0x20 }
  - { offsetInCU: 0x4E003, offset: 0x4E003, size: 0x8, addend: 0x0, symName: __ZNKSt3__16vectorIPN7doctest9IReporterENS_9allocatorIS3_EEE17__annotate_deleteB7v160006Ev, symObjAddr: 0x1E580, symBinAddr: 0x100022CC0, symSize: 0xB0 }
  - { offsetInCU: 0x4E029, offset: 0x4E029, size: 0x8, addend: 0x0, symName: __ZNSt3__16vectorIPN7doctest9IReporterENS_9allocatorIS3_EEE7__clearB7v160006Ev, symObjAddr: 0x1E640, symBinAddr: 0x100022D80, symSize: 0x20 }
  - { offsetInCU: 0x4E04F, offset: 0x4E04F, size: 0x8, addend: 0x0, symName: __ZNSt3__116allocator_traitsINS_9allocatorIPN7doctest9IReporterEEEE10deallocateB7v160006ERS5_PS4_m, symObjAddr: 0x1E660, symBinAddr: 0x100022DA0, symSize: 0x30 }
  - { offsetInCU: 0x4E091, offset: 0x4E091, size: 0x8, addend: 0x0, symName: __ZNSt3__16vectorIPN7doctest9IReporterENS_9allocatorIS3_EEE7__allocB7v160006Ev, symObjAddr: 0x1E690, symBinAddr: 0x100022DD0, symSize: 0x20 }
  - { offsetInCU: 0x4E0B7, offset: 0x4E0B7, size: 0x8, addend: 0x0, symName: __ZNKSt3__16vectorIPN7doctest9IReporterENS_9allocatorIS3_EEE8capacityB7v160006Ev, symObjAddr: 0x1E6B0, symBinAddr: 0x100022DF0, symSize: 0x30 }
  - { offsetInCU: 0x4E0DD, offset: 0x4E0DD, size: 0x8, addend: 0x0, symName: __ZNKSt3__16vectorIPN7doctest9IReporterENS_9allocatorIS3_EEE31__annotate_contiguous_containerB7v160006EPKvS8_S8_S8_, symObjAddr: 0x1E6E0, symBinAddr: 0x100022E20, symSize: 0x20 }
  - { offsetInCU: 0x4E12F, offset: 0x4E12F, size: 0x8, addend: 0x0, symName: __ZNKSt3__16vectorIPN7doctest9IReporterENS_9allocatorIS3_EEE4dataB7v160006Ev, symObjAddr: 0x1E700, symBinAddr: 0x100022E40, symSize: 0x20 }
  - { offsetInCU: 0x4E155, offset: 0x4E155, size: 0x8, addend: 0x0, symName: __ZNKSt3__16vectorIPN7doctest9IReporterENS_9allocatorIS3_EEE4sizeB7v160006Ev, symObjAddr: 0x1E720, symBinAddr: 0x100022E60, symSize: 0x20 }
  - { offsetInCU: 0x4E17B, offset: 0x4E17B, size: 0x8, addend: 0x0, symName: __ZNSt3__16vectorIPN7doctest9IReporterENS_9allocatorIS3_EEE22__base_destruct_at_endB7v160006EPS3_, symObjAddr: 0x1E750, symBinAddr: 0x100022E90, symSize: 0x80 }
  - { offsetInCU: 0x4E1BF, offset: 0x4E1BF, size: 0x8, addend: 0x0, symName: __ZNSt3__116allocator_traitsINS_9allocatorIPN7doctest9IReporterEEEE7destroyB7v160006IS4_vEEvRS5_PT_, symObjAddr: 0x1E7D0, symBinAddr: 0x100022F10, symSize: 0x30 }
  - { offsetInCU: 0x4E1FC, offset: 0x4E1FC, size: 0x8, addend: 0x0, symName: __ZNSt3__19allocatorIPN7doctest9IReporterEE7destroyB7v160006EPS3_, symObjAddr: 0x1E800, symBinAddr: 0x100022F40, symSize: 0x10 }
  - { offsetInCU: 0x4E231, offset: 0x4E231, size: 0x8, addend: 0x0, symName: __ZNSt3__19allocatorIPN7doctest9IReporterEE10deallocateB7v160006EPS3_m, symObjAddr: 0x1E810, symBinAddr: 0x100022F50, symSize: 0x40 }
  - { offsetInCU: 0x4E275, offset: 0x4E275, size: 0x8, addend: 0x0, symName: __ZNSt3__117__compressed_pairIPPN7doctest9IReporterENS_9allocatorIS3_EEE6secondB7v160006Ev, symObjAddr: 0x1E850, symBinAddr: 0x100022F90, symSize: 0x20 }
  - { offsetInCU: 0x4E29B, offset: 0x4E29B, size: 0x8, addend: 0x0, symName: __ZNSt3__122__compressed_pair_elemINS_9allocatorIPN7doctest9IReporterEEELi1ELb1EE5__getB7v160006Ev, symObjAddr: 0x1E870, symBinAddr: 0x100022FB0, symSize: 0x10 }
  - { offsetInCU: 0x4E2C1, offset: 0x4E2C1, size: 0x8, addend: 0x0, symName: __ZNKSt3__16vectorIPN7doctest9IReporterENS_9allocatorIS3_EEE9__end_capB7v160006Ev, symObjAddr: 0x1E880, symBinAddr: 0x100022FC0, symSize: 0x20 }
  - { offsetInCU: 0x4E2E7, offset: 0x4E2E7, size: 0x8, addend: 0x0, symName: __ZNKSt3__117__compressed_pairIPPN7doctest9IReporterENS_9allocatorIS3_EEE5firstB7v160006Ev, symObjAddr: 0x1E8A0, symBinAddr: 0x100022FE0, symSize: 0x20 }
  - { offsetInCU: 0x4E30D, offset: 0x4E30D, size: 0x8, addend: 0x0, symName: __ZNKSt3__122__compressed_pair_elemIPPN7doctest9IReporterELi0ELb0EE5__getB7v160006Ev, symObjAddr: 0x1E8C0, symBinAddr: 0x100023000, symSize: 0x10 }
  - { offsetInCU: 0x4E333, offset: 0x4E333, size: 0x8, addend: 0x0, symName: __ZNSt3__16vectorINS0_IN7doctest6StringENS_9allocatorIS2_EEEENS3_IS5_EEED2B7v160006Ev, symObjAddr: 0x1E8D0, symBinAddr: 0x100023010, symSize: 0x40 }
  - { offsetInCU: 0x4E368, offset: 0x4E368, size: 0x8, addend: 0x0, symName: '__ZZN7doctest12_GLOBAL__N_117parseCommaSepArgsEiPKPKcS2_RNSt3__16vectorINS_6StringENS5_9allocatorIS7_EEEEENK3$_2clEv', symObjAddr: 0x1E910, symBinAddr: 0x100023050, symSize: 0x150 }
  - { offsetInCU: 0x4E3A1, offset: 0x4E3A1, size: 0x8, addend: 0x0, symName: __ZNKSt3__112basic_stringIcNS_11char_traitsIcEENS_9allocatorIcEEE4sizeB7v160006Ev, symObjAddr: 0x1EA60, symBinAddr: 0x1000231A0, symSize: 0x50 }
  - { offsetInCU: 0x4E3C7, offset: 0x4E3C7, size: 0x8, addend: 0x0, symName: __ZNSt3__119basic_ostringstreamIcNS_11char_traitsIcEENS_9allocatorIcEEE3strB7v160006ERKNS_12basic_stringIcS2_S4_EE, symObjAddr: 0x1EAB0, symBinAddr: 0x1000231F0, symSize: 0x30 }
  - { offsetInCU: 0x4E402, offset: 0x4E402, size: 0x8, addend: 0x0, symName: __ZNSt3__112basic_stringIcNS_11char_traitsIcEENS_9allocatorIcEEEC1B7v160006IDnEEPKc, symObjAddr: 0x1EAE0, symBinAddr: 0x100023220, symSize: 0x30 }
  - { offsetInCU: 0x4E440, offset: 0x4E440, size: 0x8, addend: 0x0, symName: __ZNKSt3__112basic_stringIcNS_11char_traitsIcEENS_9allocatorIcEEE9__is_longB7v160006Ev, symObjAddr: 0x1EB10, symBinAddr: 0x100023250, symSize: 0x30 }
  - { offsetInCU: 0x4E466, offset: 0x4E466, size: 0x8, addend: 0x0, symName: __ZNKSt3__112basic_stringIcNS_11char_traitsIcEENS_9allocatorIcEEE15__get_long_sizeB7v160006Ev, symObjAddr: 0x1EB40, symBinAddr: 0x100023280, symSize: 0x20 }
  - { offsetInCU: 0x4E48C, offset: 0x4E48C, size: 0x8, addend: 0x0, symName: __ZNKSt3__112basic_stringIcNS_11char_traitsIcEENS_9allocatorIcEEE16__get_short_sizeB7v160006Ev, symObjAddr: 0x1EB60, symBinAddr: 0x1000232A0, symSize: 0x30 }
  - { offsetInCU: 0x4E4B2, offset: 0x4E4B2, size: 0x8, addend: 0x0, symName: __ZNKSt3__117__compressed_pairINS_12basic_stringIcNS_11char_traitsIcEENS_9allocatorIcEEE5__repES5_E5firstB7v160006Ev, symObjAddr: 0x1EB90, symBinAddr: 0x1000232D0, symSize: 0x20 }
  - { offsetInCU: 0x4E4D8, offset: 0x4E4D8, size: 0x8, addend: 0x0, symName: __ZNKSt3__122__compressed_pair_elemINS_12basic_stringIcNS_11char_traitsIcEENS_9allocatorIcEEE5__repELi0ELb0EE5__getB7v160006Ev, symObjAddr: 0x1EBB0, symBinAddr: 0x1000232F0, symSize: 0x10 }
  - { offsetInCU: 0x4E4FE, offset: 0x4E4FE, size: 0x8, addend: 0x0, symName: __ZNSt3__112basic_stringIcNS_11char_traitsIcEENS_9allocatorIcEEEC2B7v160006IDnEEPKc, symObjAddr: 0x1EBC0, symBinAddr: 0x100023300, symSize: 0x60 }
  - { offsetInCU: 0x4E53C, offset: 0x4E53C, size: 0x8, addend: 0x0, symName: __ZNSt3__111char_traitsIcE6lengthEPKc, symObjAddr: 0x1EC20, symBinAddr: 0x100023360, symSize: 0x30 }
  - { offsetInCU: 0x4E560, offset: 0x4E560, size: 0x8, addend: 0x0, symName: __ZNKSt3__111__wrap_iterIPNS_6vectorIN7doctest6StringENS_9allocatorIS3_EEEEE4baseB7v160006Ev, symObjAddr: 0x1EE80, symBinAddr: 0x1000235C0, symSize: 0x20 }
  - { offsetInCU: 0x4E586, offset: 0x4E586, size: 0x8, addend: 0x0, symName: __ZNSt3__113basic_ostreamIcNS_11char_traitsIcEEEC2B7v160006EPNS_15basic_streambufIcS2_EE, symObjAddr: 0x1EEA0, symBinAddr: 0x1000235E0, symSize: 0x50 }
  - { offsetInCU: 0x4E5CC, offset: 0x4E5CC, size: 0x8, addend: 0x0, symName: __ZN7doctest14DiscardOStreamUt_C1Ev, symObjAddr: 0x1EEF0, symBinAddr: 0x100023630, symSize: 0x20 }
  - { offsetInCU: 0x4E5F9, offset: 0x4E5F9, size: 0x8, addend: 0x0, symName: __ZN7doctest14DiscardOStreamD0Ev, symObjAddr: 0x1EF10, symBinAddr: 0x100023650, symSize: 0x30 }
  - { offsetInCU: 0x4E626, offset: 0x4E626, size: 0x8, addend: 0x0, symName: __ZTv0_n24_N7doctest14DiscardOStreamD1Ev, symObjAddr: 0x1EF40, symBinAddr: 0x100023680, symSize: 0x20 }
  - { offsetInCU: 0x4E63D, offset: 0x4E63D, size: 0x8, addend: 0x0, symName: __ZTv0_n24_N7doctest14DiscardOStreamD0Ev, symObjAddr: 0x1EF60, symBinAddr: 0x1000236A0, symSize: 0x20 }
  - { offsetInCU: 0x4E654, offset: 0x4E654, size: 0x8, addend: 0x0, symName: __ZN7doctest14DiscardOStreamUt_C2Ev, symObjAddr: 0x1EF80, symBinAddr: 0x1000236C0, symSize: 0x40 }
  - { offsetInCU: 0x4E681, offset: 0x4E681, size: 0x8, addend: 0x0, symName: __ZN7doctest14DiscardOStreamUt_D1Ev, symObjAddr: 0x1EFC0, symBinAddr: 0x100023700, symSize: 0x20 }
  - { offsetInCU: 0x4E6AE, offset: 0x4E6AE, size: 0x8, addend: 0x0, symName: __ZN7doctest14DiscardOStreamUt_D0Ev, symObjAddr: 0x1EFE0, symBinAddr: 0x100023720, symSize: 0x30 }
  - { offsetInCU: 0x4E6DB, offset: 0x4E6DB, size: 0x8, addend: 0x0, symName: __ZN7doctest14DiscardOStreamUt_6xsputnEPKcl, symObjAddr: 0x1F010, symBinAddr: 0x100023750, symSize: 0x20 }
  - { offsetInCU: 0x4E71B, offset: 0x4E71B, size: 0x8, addend: 0x0, symName: __ZN7doctest14DiscardOStreamUt_8overflowEi, symObjAddr: 0x1F030, symBinAddr: 0x100023770, symSize: 0x50 }
  - { offsetInCU: 0x4E750, offset: 0x4E750, size: 0x8, addend: 0x0, symName: __ZN7doctest14DiscardOStreamUt_D2Ev, symObjAddr: 0x1F080, symBinAddr: 0x1000237C0, symSize: 0x20 }
  - { offsetInCU: 0x4E77D, offset: 0x4E77D, size: 0x8, addend: 0x0, symName: __ZNSt3__115basic_streambufIcNS_11char_traitsIcEEE4setpB7v160006EPcS4_, symObjAddr: 0x1F0A0, symBinAddr: 0x1000237E0, symSize: 0x30 }
  - { offsetInCU: 0x4E7C1, offset: 0x4E7C1, size: 0x8, addend: 0x0, symName: __ZNSt3__111char_traitsIcE7not_eofEi, symObjAddr: 0x1F100, symBinAddr: 0x100023840, symSize: 0x50 }
  - { offsetInCU: 0x4E7E5, offset: 0x4E7E5, size: 0x8, addend: 0x0, symName: __ZNSt3__111char_traitsIcE11eq_int_typeEii, symObjAddr: 0x1F150, symBinAddr: 0x100023890, symSize: 0x20 }
  - { offsetInCU: 0x4E818, offset: 0x4E818, size: 0x8, addend: 0x0, symName: __ZN7doctest14DiscardOStreamD2Ev, symObjAddr: 0x1F170, symBinAddr: 0x1000238B0, symSize: 0x60 }
  - { offsetInCU: 0x4E852, offset: 0x4E852, size: 0x8, addend: 0x0, symName: __ZNSt3__13mapINS_4pairIiN7doctest6StringEEEPFPNS2_9IReporterERKNS2_14ContextOptionsEENS_4lessIS4_EENS_9allocatorINS1_IKS4_SB_EEEEEC1B7v160006Ev, symObjAddr: 0x1F1D0, symBinAddr: 0x100023910, symSize: 0x20 }
  - { offsetInCU: 0x4E87C, offset: 0x4E87C, size: 0x8, addend: 0x0, symName: __ZNSt3__13mapINS_4pairIiN7doctest6StringEEEPFPNS2_9IReporterERKNS2_14ContextOptionsEENS_4lessIS4_EENS_9allocatorINS1_IKS4_SB_EEEEED1B7v160006Ev, symObjAddr: 0x1F1F0, symBinAddr: 0x100023930, symSize: 0x20 }
  - { offsetInCU: 0x4E8A6, offset: 0x4E8A6, size: 0x8, addend: 0x0, symName: __ZNSt3__13mapINS_4pairIiN7doctest6StringEEEPFPNS2_9IReporterERKNS2_14ContextOptionsEENS_4lessIS4_EENS_9allocatorINS1_IKS4_SB_EEEEEC2B7v160006Ev, symObjAddr: 0x1F210, symBinAddr: 0x100023950, symSize: 0x30 }
  - { offsetInCU: 0x4E8D0, offset: 0x4E8D0, size: 0x8, addend: 0x0, symName: __ZNSt3__119__map_value_compareINS_4pairIiN7doctest6StringEEENS_12__value_typeIS4_PFPNS2_9IReporterERKNS2_14ContextOptionsEEEENS_4lessIS4_EELb1EEC1B7v160006ESF_, symObjAddr: 0x1F240, symBinAddr: 0x100023980, symSize: 0x20 }
  - { offsetInCU: 0x4E909, offset: 0x4E909, size: 0x8, addend: 0x0, symName: __ZNSt3__16__treeINS_12__value_typeINS_4pairIiN7doctest6StringEEEPFPNS3_9IReporterERKNS3_14ContextOptionsEEEENS_19__map_value_compareIS5_SD_NS_4lessIS5_EELb1EEENS_9allocatorISD_EEEC1ERKSH_, symObjAddr: 0x1F260, symBinAddr: 0x1000239A0, symSize: 0x30 }
  - { offsetInCU: 0x4E944, offset: 0x4E944, size: 0x8, addend: 0x0, symName: __ZNSt3__119__map_value_compareINS_4pairIiN7doctest6StringEEENS_12__value_typeIS4_PFPNS2_9IReporterERKNS2_14ContextOptionsEEEENS_4lessIS4_EELb1EEC2B7v160006ESF_, symObjAddr: 0x1F290, symBinAddr: 0x1000239D0, symSize: 0x10 }
  - { offsetInCU: 0x4E97D, offset: 0x4E97D, size: 0x8, addend: 0x0, symName: __ZNSt3__16__treeINS_12__value_typeINS_4pairIiN7doctest6StringEEEPFPNS3_9IReporterERKNS3_14ContextOptionsEEEENS_19__map_value_compareIS5_SD_NS_4lessIS5_EELb1EEENS_9allocatorISD_EEEC2ERKSH_, symObjAddr: 0x1F2A0, symBinAddr: 0x1000239E0, symSize: 0x80 }
  - { offsetInCU: 0x4E9B8, offset: 0x4E9B8, size: 0x8, addend: 0x0, symName: __ZNSt3__117__compressed_pairINS_15__tree_end_nodeIPNS_16__tree_node_baseIPvEEEENS_9allocatorINS_11__tree_nodeINS_12__value_typeINS_4pairIiN7doctest6StringEEEPFPNSB_9IReporterERKNSB_14ContextOptionsEEEES3_EEEEEC1B7v160006ILb1EvEEv, symObjAddr: 0x1F320, symBinAddr: 0x100023A60, symSize: 0x20 }
  - { offsetInCU: 0x4E9ED, offset: 0x4E9ED, size: 0x8, addend: 0x0, symName: __ZNSt3__117__compressed_pairImNS_19__map_value_compareINS_4pairIiN7doctest6StringEEENS_12__value_typeIS5_PFPNS3_9IReporterERKNS3_14ContextOptionsEEEENS_4lessIS5_EELb1EEEEC1B7v160006IiRKSH_EEOT_OT0_, symObjAddr: 0x1F340, symBinAddr: 0x100023A80, symSize: 0x30 }
  - { offsetInCU: 0x4EA47, offset: 0x4EA47, size: 0x8, addend: 0x0, symName: __ZNSt3__16__treeINS_12__value_typeINS_4pairIiN7doctest6StringEEEPFPNS3_9IReporterERKNS3_14ContextOptionsEEEENS_19__map_value_compareIS5_SD_NS_4lessIS5_EELb1EEENS_9allocatorISD_EEE10__end_nodeB7v160006Ev, symObjAddr: 0x1F370, symBinAddr: 0x100023AB0, symSize: 0x30 }
  - { offsetInCU: 0x4EA6D, offset: 0x4EA6D, size: 0x8, addend: 0x0, symName: __ZNSt3__16__treeINS_12__value_typeINS_4pairIiN7doctest6StringEEEPFPNS3_9IReporterERKNS3_14ContextOptionsEEEENS_19__map_value_compareIS5_SD_NS_4lessIS5_EELb1EEENS_9allocatorISD_EEE12__begin_nodeB7v160006Ev, symObjAddr: 0x1F3A0, symBinAddr: 0x100023AE0, symSize: 0x10 }
  - { offsetInCU: 0x4EA93, offset: 0x4EA93, size: 0x8, addend: 0x0, symName: __ZNSt3__117__compressed_pairINS_15__tree_end_nodeIPNS_16__tree_node_baseIPvEEEENS_9allocatorINS_11__tree_nodeINS_12__value_typeINS_4pairIiN7doctest6StringEEEPFPNSB_9IReporterERKNSB_14ContextOptionsEEEES3_EEEEEC2B7v160006ILb1EvEEv, symObjAddr: 0x1F3B0, symBinAddr: 0x100023AF0, symSize: 0x30 }
  - { offsetInCU: 0x4EAC8, offset: 0x4EAC8, size: 0x8, addend: 0x0, symName: __ZNSt3__122__compressed_pair_elemINS_15__tree_end_nodeIPNS_16__tree_node_baseIPvEEEELi0ELb0EEC2B7v160006ENS_16__value_init_tagE, symObjAddr: 0x1F3E0, symBinAddr: 0x100023B20, symSize: 0x20 }
  - { offsetInCU: 0x4EAFD, offset: 0x4EAFD, size: 0x8, addend: 0x0, symName: __ZNSt3__122__compressed_pair_elemINS_9allocatorINS_11__tree_nodeINS_12__value_typeINS_4pairIiN7doctest6StringEEEPFPNS5_9IReporterERKNS5_14ContextOptionsEEEEPvEEEELi1ELb1EEC2B7v160006ENS_16__value_init_tagE, symObjAddr: 0x1F400, symBinAddr: 0x100023B40, symSize: 0x20 }
  - { offsetInCU: 0x4EB32, offset: 0x4EB32, size: 0x8, addend: 0x0, symName: __ZNSt3__115__tree_end_nodeIPNS_16__tree_node_baseIPvEEEC1B7v160006Ev, symObjAddr: 0x1F420, symBinAddr: 0x100023B60, symSize: 0x20 }
  - { offsetInCU: 0x4EB5C, offset: 0x4EB5C, size: 0x8, addend: 0x0, symName: __ZNSt3__115__tree_end_nodeIPNS_16__tree_node_baseIPvEEEC2B7v160006Ev, symObjAddr: 0x1F440, symBinAddr: 0x100023B80, symSize: 0x20 }
  - { offsetInCU: 0x4EB86, offset: 0x4EB86, size: 0x8, addend: 0x0, symName: __ZNSt3__19allocatorINS_11__tree_nodeINS_12__value_typeINS_4pairIiN7doctest6StringEEEPFPNS4_9IReporterERKNS4_14ContextOptionsEEEEPvEEEC2B7v160006Ev, symObjAddr: 0x1F460, symBinAddr: 0x100023BA0, symSize: 0x20 }
  - { offsetInCU: 0x4EBB0, offset: 0x4EBB0, size: 0x8, addend: 0x0, symName: __ZNSt3__116__non_trivial_ifILb1ENS_9allocatorINS_11__tree_nodeINS_12__value_typeINS_4pairIiN7doctest6StringEEEPFPNS5_9IReporterERKNS5_14ContextOptionsEEEEPvEEEEEC2B7v160006Ev, symObjAddr: 0x1F480, symBinAddr: 0x100023BC0, symSize: 0x10 }
  - { offsetInCU: 0x4EBDA, offset: 0x4EBDA, size: 0x8, addend: 0x0, symName: __ZNSt3__117__compressed_pairImNS_19__map_value_compareINS_4pairIiN7doctest6StringEEENS_12__value_typeIS5_PFPNS3_9IReporterERKNS3_14ContextOptionsEEEENS_4lessIS5_EELb1EEEEC2B7v160006IiRKSH_EEOT_OT0_, symObjAddr: 0x1F490, symBinAddr: 0x100023BD0, symSize: 0x40 }
  - { offsetInCU: 0x4EC34, offset: 0x4EC34, size: 0x8, addend: 0x0, symName: __ZNSt3__122__compressed_pair_elemINS_19__map_value_compareINS_4pairIiN7doctest6StringEEENS_12__value_typeIS5_PFPNS3_9IReporterERKNS3_14ContextOptionsEEEENS_4lessIS5_EELb1EEELi1ELb1EEC2B7v160006IRKSH_vEEOT_, symObjAddr: 0x1F4D0, symBinAddr: 0x100023C10, symSize: 0x10 }
  - { offsetInCU: 0x4EC77, offset: 0x4EC77, size: 0x8, addend: 0x0, symName: __ZNSt3__114pointer_traitsIPNS_15__tree_end_nodeIPNS_16__tree_node_baseIPvEEEEE10pointer_toB7v160006ERS6_, symObjAddr: 0x1F4E0, symBinAddr: 0x100023C20, symSize: 0x10 }
  - { offsetInCU: 0x4EC9B, offset: 0x4EC9B, size: 0x8, addend: 0x0, symName: __ZNSt3__117__compressed_pairINS_15__tree_end_nodeIPNS_16__tree_node_baseIPvEEEENS_9allocatorINS_11__tree_nodeINS_12__value_typeINS_4pairIiN7doctest6StringEEEPFPNSB_9IReporterERKNSB_14ContextOptionsEEEES3_EEEEE5firstB7v160006Ev, symObjAddr: 0x1F4F0, symBinAddr: 0x100023C30, symSize: 0x20 }
  - { offsetInCU: 0x4ECC1, offset: 0x4ECC1, size: 0x8, addend: 0x0, symName: __ZNSt3__122__compressed_pair_elemINS_15__tree_end_nodeIPNS_16__tree_node_baseIPvEEEELi0ELb0EE5__getB7v160006Ev, symObjAddr: 0x1F510, symBinAddr: 0x100023C50, symSize: 0x10 }
  - { offsetInCU: 0x4ECE7, offset: 0x4ECE7, size: 0x8, addend: 0x0, symName: __ZNSt3__13mapINS_4pairIiN7doctest6StringEEEPFPNS2_9IReporterERKNS2_14ContextOptionsEENS_4lessIS4_EENS_9allocatorINS1_IKS4_SB_EEEEED2B7v160006Ev, symObjAddr: 0x1F520, symBinAddr: 0x100023C60, symSize: 0x20 }
  - { offsetInCU: 0x4ED11, offset: 0x4ED11, size: 0x8, addend: 0x0, symName: __ZNSt3__16__treeINS_12__value_typeINS_4pairIiN7doctest6StringEEEPFPNS3_9IReporterERKNS3_14ContextOptionsEEEENS_19__map_value_compareIS5_SD_NS_4lessIS5_EELb1EEENS_9allocatorISD_EEED1Ev, symObjAddr: 0x1F540, symBinAddr: 0x100023C80, symSize: 0x20 }
  - { offsetInCU: 0x4ED3D, offset: 0x4ED3D, size: 0x8, addend: 0x0, symName: __ZNSt3__16__treeINS_12__value_typeINS_4pairIiN7doctest6StringEEEPFPNS3_9IReporterERKNS3_14ContextOptionsEEEENS_19__map_value_compareIS5_SD_NS_4lessIS5_EELb1EEENS_9allocatorISD_EEED2Ev, symObjAddr: 0x1F560, symBinAddr: 0x100023CA0, symSize: 0x30 }
  - { offsetInCU: 0x4ED69, offset: 0x4ED69, size: 0x8, addend: 0x0, symName: __ZNSt3__16__treeINS_12__value_typeINS_4pairIiN7doctest6StringEEEPFPNS3_9IReporterERKNS3_14ContextOptionsEEEENS_19__map_value_compareIS5_SD_NS_4lessIS5_EELb1EEENS_9allocatorISD_EEE7destroyEPNS_11__tree_nodeISD_PvEE, symObjAddr: 0x1F590, symBinAddr: 0x100023CD0, symSize: 0xB0 }
  - { offsetInCU: 0x4EDB5, offset: 0x4EDB5, size: 0x8, addend: 0x0, symName: __ZNKSt3__16__treeINS_12__value_typeINS_4pairIiN7doctest6StringEEEPFPNS3_9IReporterERKNS3_14ContextOptionsEEEENS_19__map_value_compareIS5_SD_NS_4lessIS5_EELb1EEENS_9allocatorISD_EEE6__rootB7v160006Ev, symObjAddr: 0x1F640, symBinAddr: 0x100023D80, symSize: 0x20 }
  - { offsetInCU: 0x4EDDB, offset: 0x4EDDB, size: 0x8, addend: 0x0, symName: __ZNSt3__16__treeINS_12__value_typeINS_4pairIiN7doctest6StringEEEPFPNS3_9IReporterERKNS3_14ContextOptionsEEEENS_19__map_value_compareIS5_SD_NS_4lessIS5_EELb1EEENS_9allocatorISD_EEE12__node_allocB7v160006Ev, symObjAddr: 0x1F660, symBinAddr: 0x100023DA0, symSize: 0x20 }
  - { offsetInCU: 0x4EE01, offset: 0x4EE01, size: 0x8, addend: 0x0, symName: __ZNSt3__116allocator_traitsINS_9allocatorINS_11__tree_nodeINS_12__value_typeINS_4pairIiN7doctest6StringEEEPFPNS5_9IReporterERKNS5_14ContextOptionsEEEEPvEEEEE7destroyB7v160006INS4_IKS7_SE_EEvvEEvRSI_PT_, symObjAddr: 0x1F680, symBinAddr: 0x100023DC0, symSize: 0x20 }
  - { offsetInCU: 0x4EE3B, offset: 0x4EE3B, size: 0x8, addend: 0x0, symName: __ZNSt3__122__tree_key_value_typesINS_12__value_typeINS_4pairIiN7doctest6StringEEEPFPNS3_9IReporterERKNS3_14ContextOptionsEEEEE9__get_ptrB7v160006ERSD_, symObjAddr: 0x1F6A0, symBinAddr: 0x100023DE0, symSize: 0x20 }
  - { offsetInCU: 0x4EE5F, offset: 0x4EE5F, size: 0x8, addend: 0x0, symName: __ZNSt3__116allocator_traitsINS_9allocatorINS_11__tree_nodeINS_12__value_typeINS_4pairIiN7doctest6StringEEEPFPNS5_9IReporterERKNS5_14ContextOptionsEEEEPvEEEEE10deallocateB7v160006ERSI_PSH_m, symObjAddr: 0x1F6C0, symBinAddr: 0x100023E00, symSize: 0x30 }
  - { offsetInCU: 0x4EEA1, offset: 0x4EEA1, size: 0x8, addend: 0x0, symName: __ZNSt3__117__compressed_pairINS_15__tree_end_nodeIPNS_16__tree_node_baseIPvEEEENS_9allocatorINS_11__tree_nodeINS_12__value_typeINS_4pairIiN7doctest6StringEEEPFPNSB_9IReporterERKNSB_14ContextOptionsEEEES3_EEEEE6secondB7v160006Ev, symObjAddr: 0x1F6F0, symBinAddr: 0x100023E30, symSize: 0x20 }
  - { offsetInCU: 0x4EEC7, offset: 0x4EEC7, size: 0x8, addend: 0x0, symName: __ZNSt3__122__compressed_pair_elemINS_9allocatorINS_11__tree_nodeINS_12__value_typeINS_4pairIiN7doctest6StringEEEPFPNS5_9IReporterERKNS5_14ContextOptionsEEEEPvEEEELi1ELb1EE5__getB7v160006Ev, symObjAddr: 0x1F710, symBinAddr: 0x100023E50, symSize: 0x10 }
  - { offsetInCU: 0x4EEED, offset: 0x4EEED, size: 0x8, addend: 0x0, symName: __ZNSt3__112__value_typeINS_4pairIiN7doctest6StringEEEPFPNS2_9IReporterERKNS2_14ContextOptionsEEE11__get_valueB7v160006Ev, symObjAddr: 0x1F720, symBinAddr: 0x100023E60, symSize: 0x20 }
  - { offsetInCU: 0x4EF13, offset: 0x4EF13, size: 0x8, addend: 0x0, symName: __ZNSt3__19allocatorINS_11__tree_nodeINS_12__value_typeINS_4pairIiN7doctest6StringEEEPFPNS4_9IReporterERKNS4_14ContextOptionsEEEEPvEEE10deallocateB7v160006EPSG_m, symObjAddr: 0x1F770, symBinAddr: 0x100023EB0, symSize: 0x50 }
  - { offsetInCU: 0x4EF57, offset: 0x4EF57, size: 0x8, addend: 0x0, symName: __ZNKSt3__16__treeINS_12__value_typeINS_4pairIiN7doctest6StringEEEPFPNS3_9IReporterERKNS3_14ContextOptionsEEEENS_19__map_value_compareIS5_SD_NS_4lessIS5_EELb1EEENS_9allocatorISD_EEE10__end_nodeB7v160006Ev, symObjAddr: 0x1F7C0, symBinAddr: 0x100023F00, symSize: 0x30 }
  - { offsetInCU: 0x4EF7D, offset: 0x4EF7D, size: 0x8, addend: 0x0, symName: __ZNKSt3__117__compressed_pairINS_15__tree_end_nodeIPNS_16__tree_node_baseIPvEEEENS_9allocatorINS_11__tree_nodeINS_12__value_typeINS_4pairIiN7doctest6StringEEEPFPNSB_9IReporterERKNSB_14ContextOptionsEEEES3_EEEEE5firstB7v160006Ev, symObjAddr: 0x1F7F0, symBinAddr: 0x100023F30, symSize: 0x20 }
  - { offsetInCU: 0x4EFA3, offset: 0x4EFA3, size: 0x8, addend: 0x0, symName: __ZNKSt3__122__compressed_pair_elemINS_15__tree_end_nodeIPNS_16__tree_node_baseIPvEEEELi0ELb0EE5__getB7v160006Ev, symObjAddr: 0x1F810, symBinAddr: 0x100023F50, symSize: 0x10 }
  - { offsetInCU: 0x4EFC9, offset: 0x4EFC9, size: 0x8, addend: 0x0, symName: __ZNSt3__111__wrap_iterIPKPN7doctest9IReporterEEC2B7v160006IPS3_EERKNS0_IT_EEPNS_9enable_ifIXsr14is_convertibleIS9_S5_EE5valueEvE4typeE, symObjAddr: 0x1F820, symBinAddr: 0x100023F60, symSize: 0x40 }
  - { offsetInCU: 0x4F016, offset: 0x4F016, size: 0x8, addend: 0x0, symName: __ZN7doctest9QueryDataC2Ev, symObjAddr: 0x1F860, symBinAddr: 0x100023FA0, symSize: 0x30 }
  - { offsetInCU: 0x4F043, offset: 0x4F043, size: 0x8, addend: 0x0, symName: __ZN7doctest12_GLOBAL__N_121FatalConditionHandler15freeAltStackMemEv, symObjAddr: 0x1F890, symBinAddr: 0x100023FD0, symSize: 0x30 }
  - { offsetInCU: 0x4F057, offset: 0x4F057, size: 0x8, addend: 0x0, symName: __ZNKSt3__113basic_fstreamIcNS_11char_traitsIcEEE7is_openEv, symObjAddr: 0x1F8C0, symBinAddr: 0x100024000, symSize: 0x30 }
  - { offsetInCU: 0x4F07F, offset: 0x4F07F, size: 0x8, addend: 0x0, symName: __ZNSt3__113basic_fstreamIcNS_11char_traitsIcEEE5closeEv, symObjAddr: 0x1F8F0, symBinAddr: 0x100024030, symSize: 0x50 }
  - { offsetInCU: 0x4F0A7, offset: 0x4F0A7, size: 0x8, addend: 0x0, symName: __ZNSt3__16vectorIPN7doctest9IReporterENS_9allocatorIS3_EEE5clearB7v160006Ev, symObjAddr: 0x1F940, symBinAddr: 0x100024080, symSize: 0x50 }
  - { offsetInCU: 0x4F0DC, offset: 0x4F0DC, size: 0x8, addend: 0x0, symName: __ZNKSt3__113basic_filebufIcNS_11char_traitsIcEEE7is_openEv, symObjAddr: 0x1F990, symBinAddr: 0x1000240D0, symSize: 0x20 }
  - { offsetInCU: 0x4F104, offset: 0x4F104, size: 0x8, addend: 0x0, symName: __ZNSt3__19basic_iosIcNS_11char_traitsIcEEE8setstateB7v160006Ej, symObjAddr: 0x1F9B0, symBinAddr: 0x1000240F0, symSize: 0x30 }
  - { offsetInCU: 0x4F139, offset: 0x4F139, size: 0x8, addend: 0x0, symName: __ZNSt3__18ios_base8setstateB7v160006Ej, symObjAddr: 0x1F9E0, symBinAddr: 0x100024120, symSize: 0x30 }
  - { offsetInCU: 0x4F170, offset: 0x4F170, size: 0x8, addend: 0x0, symName: __ZNKSt3__16vectorIPN7doctest9IReporterENS_9allocatorIS3_EEE17__annotate_shrinkB7v160006Em, symObjAddr: 0x1FA10, symBinAddr: 0x100024150, symSize: 0xA0 }
  - { offsetInCU: 0x4F1A5, offset: 0x4F1A5, size: 0x8, addend: 0x0, symName: __ZNKSt3__111__wrap_iterIPPKN7doctest6detail8TestCaseEE4baseB7v160006Ev, symObjAddr: 0x1FB00, symBinAddr: 0x100024240, symSize: 0x20 }
  - { offsetInCU: 0x4F1CB, offset: 0x4F1CB, size: 0x8, addend: 0x0, symName: __ZN7doctest12_GLOBAL__N_121FatalConditionHandlerC2Ev, symObjAddr: 0x1FB20, symBinAddr: 0x100024260, symSize: 0xC0 }
  - { offsetInCU: 0x4F23E, offset: 0x4F23E, size: 0x8, addend: 0x0, symName: __ZN7doctest12_GLOBAL__N_121FatalConditionHandler12handleSignalEi, symObjAddr: 0x1FBE0, symBinAddr: 0x100024320, symSize: 0xD0 }
  - { offsetInCU: 0x4F2AB, offset: 0x4F2AB, size: 0x8, addend: 0x0, symName: __ZNSt3__16vectorIN7doctest16SubcaseSignatureENS_9allocatorIS2_EEE8pop_backEv, symObjAddr: 0x1FFD0, symBinAddr: 0x100024710, symSize: 0x30 }
  - { offsetInCU: 0x4F2D3, offset: 0x4F2D3, size: 0x8, addend: 0x0, symName: __ZNSt3__16vectorIN7doctest16SubcaseSignatureENS_9allocatorIS2_EEE17__destruct_at_endB7v160006EPS2_, symObjAddr: 0x20000, symBinAddr: 0x100024740, symSize: 0x60 }
  - { offsetInCU: 0x4F317, offset: 0x4F317, size: 0x8, addend: 0x0, symName: __ZNSt3__16vectorIN7doctest16SubcaseSignatureENS_9allocatorIS2_EEE27__invalidate_iterators_pastB7v160006EPS2_, symObjAddr: 0x20060, symBinAddr: 0x1000247A0, symSize: 0x10 }
  - { offsetInCU: 0x4F34E, offset: 0x4F34E, size: 0x8, addend: 0x0, symName: __ZNKSt3__16vectorIN7doctest16SubcaseSignatureENS_9allocatorIS2_EEE17__annotate_shrinkB7v160006Em, symObjAddr: 0x20070, symBinAddr: 0x1000247B0, symSize: 0xA0 }
  - { offsetInCU: 0x4F383, offset: 0x4F383, size: 0x8, addend: 0x0, symName: __ZN7doctest12_GLOBAL__N_121FatalConditionHandlerD2Ev, symObjAddr: 0x20110, symBinAddr: 0x100024850, symSize: 0x30 }
  - { offsetInCU: 0x4F3AD, offset: 0x4F3AD, size: 0x8, addend: 0x0, symName: __ZNK7doctest6detail5Timer17getElapsedSecondsEv, symObjAddr: 0x20140, symBinAddr: 0x100024880, symSize: 0x60 }
  - { offsetInCU: 0x4F3D3, offset: 0x4F3D3, size: 0x8, addend: 0x0, symName: __ZNSt3__113basic_fstreamIcNS_11char_traitsIcEEED2Ev, symObjAddr: 0x20200, symBinAddr: 0x100024940, symSize: 0x60 }
  - { offsetInCU: 0x4F40C, offset: 0x4F40C, size: 0x8, addend: 0x0, symName: __ZThn16_NSt3__113basic_fstreamIcNS_11char_traitsIcEEED1Ev, symObjAddr: 0x20260, symBinAddr: 0x1000249A0, symSize: 0x20 }
  - { offsetInCU: 0x4F422, offset: 0x4F422, size: 0x8, addend: 0x0, symName: __ZTv0_n24_NSt3__113basic_fstreamIcNS_11char_traitsIcEEED1Ev, symObjAddr: 0x20280, symBinAddr: 0x1000249C0, symSize: 0x20 }
  - { offsetInCU: 0x4F438, offset: 0x4F438, size: 0x8, addend: 0x0, symName: __ZNSt3__113basic_fstreamIcNS_11char_traitsIcEEED0Ev, symObjAddr: 0x202A0, symBinAddr: 0x1000249E0, symSize: 0x30 }
  - { offsetInCU: 0x4F464, offset: 0x4F464, size: 0x8, addend: 0x0, symName: __ZThn16_NSt3__113basic_fstreamIcNS_11char_traitsIcEEED0Ev, symObjAddr: 0x202D0, symBinAddr: 0x100024A10, symSize: 0x20 }
  - { offsetInCU: 0x4F47A, offset: 0x4F47A, size: 0x8, addend: 0x0, symName: __ZTv0_n24_NSt3__113basic_fstreamIcNS_11char_traitsIcEEED0Ev, symObjAddr: 0x202F0, symBinAddr: 0x100024A30, symSize: 0x20 }
  - { offsetInCU: 0x4F490, offset: 0x4F490, size: 0x8, addend: 0x0, symName: __ZNSt3__14pairIiN7doctest6StringEEC2B7v160006IRiRPKcLPv0EEEOT_OT0_, symObjAddr: 0x20310, symBinAddr: 0x100024A50, symSize: 0x40 }
  - { offsetInCU: 0x4F4F0, offset: 0x4F4F0, size: 0x8, addend: 0x0, symName: __ZNSt3__14pairIKNS0_IiN7doctest6StringEEEPFPNS1_9IReporterERKNS1_14ContextOptionsEEEC2B7v160006IS3_RSB_LPv0EEEOT_OT0_, symObjAddr: 0x20350, symBinAddr: 0x100024A90, symSize: 0x40 }
  - { offsetInCU: 0x4F550, offset: 0x4F550, size: 0x8, addend: 0x0, symName: __ZNSt3__14pairIiN7doctest6StringEEC1EOS3_, symObjAddr: 0x20390, symBinAddr: 0x100024AD0, symSize: 0x30 }
  - { offsetInCU: 0x4F585, offset: 0x4F585, size: 0x8, addend: 0x0, symName: __ZNSt3__14pairIiN7doctest6StringEEC2EOS3_, symObjAddr: 0x203C0, symBinAddr: 0x100024B00, symSize: 0x40 }
  - { offsetInCU: 0x4F5BA, offset: 0x4F5BA, size: 0x8, addend: 0x0, symName: __ZNSt3__14pairIKNS0_IiN7doctest6StringEEEPFPNS1_9IReporterERKNS1_14ContextOptionsEEED2Ev, symObjAddr: 0x20400, symBinAddr: 0x100024B40, symSize: 0x20 }
  - { offsetInCU: 0x4F5E6, offset: 0x4F5E6, size: 0x8, addend: 0x0, symName: __ZNSt3__14pairIiN7doctest6StringEED2Ev, symObjAddr: 0x20420, symBinAddr: 0x100024B60, symSize: 0x20 }
  - { offsetInCU: 0x4F612, offset: 0x4F612, size: 0x8, addend: 0x0, symName: __ZN7doctest6detail8TestCaseD2Ev, symObjAddr: 0x20440, symBinAddr: 0x100024B80, symSize: 0x40 }
  - { offsetInCU: 0x4F64D, offset: 0x4F64D, size: 0x8, addend: 0x0, symName: __ZN7doctest6detail20ExpressionDecomposerlsIRdEENS0_14Expression_lhsIT_EEOS5_, symObjAddr: 0x20480, symBinAddr: 0x100024BC0, symSize: 0x30 }
  - { offsetInCU: 0x4F691, offset: 0x4F691, size: 0x8, addend: 0x0, symName: __ZN7doctest6detail14Expression_lhsIRdEeqINS_6ApproxEEEDTcmcvveqclL_ZNS0_7declvalIS2_EEOT_vEEclsr7doctest6detailE7declvalIS7_EEtlNS0_6ResultEEES8_, symObjAddr: 0x204B0, symBinAddr: 0x100024BF0, symSize: 0x1B0 }
  - { offsetInCU: 0x4F6E1, offset: 0x4F6E1, size: 0x8, addend: 0x0, symName: __ZN7doctest6detail6ResultD1Ev, symObjAddr: 0x20660, symBinAddr: 0x100024DA0, symSize: 0x20 }
  - { offsetInCU: 0x4F71F, offset: 0x4F71F, size: 0x8, addend: 0x0, symName: __ZN7doctest6detail20ExpressionDecomposerlsIRiEENS0_14Expression_lhsIT_EEOS5_, symObjAddr: 0x20680, symBinAddr: 0x100024DC0, symSize: 0x30 }
  - { offsetInCU: 0x4F75D, offset: 0x4F75D, size: 0x8, addend: 0x0, symName: __ZN7doctest6detail14Expression_lhsIRiEeqIiEEDTcmcvveqclL_ZNS0_7declvalIS2_EEOT_vEEclsr7doctest6detailE7declvalIS6_EEtlNS0_6ResultEEES7_, symObjAddr: 0x206B0, symBinAddr: 0x100024DF0, symSize: 0x1B0 }
  - { offsetInCU: 0x4F7AD, offset: 0x4F7AD, size: 0x8, addend: 0x0, symName: __ZN7doctest6detail14Expression_lhsIRiEltIiEEDTcmcvvltclL_ZNS0_7declvalIS2_EEOT_vEEclsr7doctest6detailE7declvalIS6_EEtlNS0_6ResultEEES7_, symObjAddr: 0x20860, symBinAddr: 0x100024FA0, symSize: 0x1B0 }
  - { offsetInCU: 0x4F7FD, offset: 0x4F7FD, size: 0x8, addend: 0x0, symName: __ZN7doctest6detail14Expression_lhsIRdEC1ES2_NS_10assertType4EnumE, symObjAddr: 0x20A10, symBinAddr: 0x100025150, symSize: 0x30 }
  - { offsetInCU: 0x4F845, offset: 0x4F845, size: 0x8, addend: 0x0, symName: __ZN7doctest6detail14Expression_lhsIRdEC2ES2_NS_10assertType4EnumE, symObjAddr: 0x20A40, symBinAddr: 0x100025180, symSize: 0x30 }
  - { offsetInCU: 0x4F88D, offset: 0x4F88D, size: 0x8, addend: 0x0, symName: __ZN7doctest6detail6ResultD2Ev, symObjAddr: 0x20C10, symBinAddr: 0x100025350, symSize: 0x20 }
  - { offsetInCU: 0x4F8BA, offset: 0x4F8BA, size: 0x8, addend: 0x0, symName: __ZN7doctest6detail14Expression_lhsIRiEC1ES2_NS_10assertType4EnumE, symObjAddr: 0x20C30, symBinAddr: 0x100025370, symSize: 0x30 }
  - { offsetInCU: 0x4F902, offset: 0x4F902, size: 0x8, addend: 0x0, symName: __ZN7doctest6detail14Expression_lhsIRiEC2ES2_NS_10assertType4EnumE, symObjAddr: 0x20C60, symBinAddr: 0x1000253A0, symSize: 0x30 }
  - { offsetInCU: 0x4F950, offset: 0x4F950, size: 0x8, addend: 0x0, symName: __ZN7doctest6detail14Expression_lhsIRiEeqIRKiEEDTcmcvveqclL_ZNS0_7declvalIS2_EEOT_vEEclsr7doctest6detailE7declvalIS8_EEtlNS0_6ResultEEES9_, symObjAddr: 0x20E30, symBinAddr: 0x100025570, symSize: 0x1B0 }
  - { offsetInCU: 0x4F9A0, offset: 0x4F9A0, size: 0x8, addend: 0x0, symName: __ZNKSt3__112basic_stringIcNS_11char_traitsIcEENS_9allocatorIcEEE4dataB7v160006Ev, symObjAddr: 0x20FF0, symBinAddr: 0x100025730, symSize: 0x30 }
  - { offsetInCU: 0x4F9C6, offset: 0x4F9C6, size: 0x8, addend: 0x0, symName: __ZNKSt3__112basic_stringIcNS_11char_traitsIcEENS_9allocatorIcEEE13__get_pointerB7v160006Ev, symObjAddr: 0x21030, symBinAddr: 0x100025770, symSize: 0x50 }
  - { offsetInCU: 0x4F9EC, offset: 0x4F9EC, size: 0x8, addend: 0x0, symName: __ZNKSt3__112basic_stringIcNS_11char_traitsIcEENS_9allocatorIcEEE18__get_long_pointerB7v160006Ev, symObjAddr: 0x21080, symBinAddr: 0x1000257C0, symSize: 0x20 }
  - { offsetInCU: 0x4FA12, offset: 0x4FA12, size: 0x8, addend: 0x0, symName: __ZNKSt3__112basic_stringIcNS_11char_traitsIcEENS_9allocatorIcEEE19__get_short_pointerB7v160006Ev, symObjAddr: 0x210A0, symBinAddr: 0x1000257E0, symSize: 0x30 }
  - { offsetInCU: 0x4FA38, offset: 0x4FA38, size: 0x8, addend: 0x0, symName: __ZNSt3__114pointer_traitsIPKcE10pointer_toB7v160006ERS1_, symObjAddr: 0x210D0, symBinAddr: 0x100025810, symSize: 0x10 }
  - { offsetInCU: 0x4FA5C, offset: 0x4FA5C, size: 0x8, addend: 0x0, symName: __ZNK7doctest6detail15MultiLaneAtomicIiE4loadENSt3__112memory_orderE, symObjAddr: 0x210E0, symBinAddr: 0x100025820, symSize: 0x80 }
  - { offsetInCU: 0x4FAEF, offset: 0x4FAEF, size: 0x8, addend: 0x0, symName: __ZNKSt3__113__atomic_baseIiLb0EE4loadB7v160006ENS_12memory_orderE, symObjAddr: 0x21160, symBinAddr: 0x1000258A0, symSize: 0x30 }
  - { offsetInCU: 0x4FB41, offset: 0x4FB41, size: 0x8, addend: 0x0, symName: __ZNKSt3__113basic_ostreamIcNS_11char_traitsIcEEE6sentrycvbB7v160006Ev, symObjAddr: 0x213F0, symBinAddr: 0x100025B30, symSize: 0x20 }
  - { offsetInCU: 0x4FB67, offset: 0x4FB67, size: 0x8, addend: 0x0, symName: __ZNSt3__119ostreambuf_iteratorIcNS_11char_traitsIcEEEC1B7v160006ERNS_13basic_ostreamIcS2_EE, symObjAddr: 0x21630, symBinAddr: 0x100025D70, symSize: 0x30 }
  - { offsetInCU: 0x4FBA0, offset: 0x4FBA0, size: 0x8, addend: 0x0, symName: __ZNKSt3__18ios_base5flagsB7v160006Ev, symObjAddr: 0x21660, symBinAddr: 0x100025DA0, symSize: 0x20 }
  - { offsetInCU: 0x4FBC8, offset: 0x4FBC8, size: 0x8, addend: 0x0, symName: __ZNKSt3__19basic_iosIcNS_11char_traitsIcEEE4fillB7v160006Ev, symObjAddr: 0x21680, symBinAddr: 0x100025DC0, symSize: 0x70 }
  - { offsetInCU: 0x4FBF0, offset: 0x4FBF0, size: 0x8, addend: 0x0, symName: __ZNKSt3__119ostreambuf_iteratorIcNS_11char_traitsIcEEE6failedB7v160006Ev, symObjAddr: 0x216F0, symBinAddr: 0x100025E30, symSize: 0x20 }
  - { offsetInCU: 0x4FC16, offset: 0x4FC16, size: 0x8, addend: 0x0, symName: __ZNKSt3__18ios_base5widthB7v160006Ev, symObjAddr: 0x21710, symBinAddr: 0x100025E50, symSize: 0x20 }
  - { offsetInCU: 0x4FC3E, offset: 0x4FC3E, size: 0x8, addend: 0x0, symName: __ZNSt3__115basic_streambufIcNS_11char_traitsIcEEE5sputnB7v160006EPKcl, symObjAddr: 0x21730, symBinAddr: 0x100025E70, symSize: 0x30 }
  - { offsetInCU: 0x4FC82, offset: 0x4FC82, size: 0x8, addend: 0x0, symName: __ZNSt3__112basic_stringIcNS_11char_traitsIcEENS_9allocatorIcEEEC1B7v160006Emc, symObjAddr: 0x21760, symBinAddr: 0x100025EA0, symSize: 0x30 }
  - { offsetInCU: 0x4FCCA, offset: 0x4FCCA, size: 0x8, addend: 0x0, symName: __ZNSt3__112basic_stringIcNS_11char_traitsIcEENS_9allocatorIcEEE4dataB7v160006Ev, symObjAddr: 0x21790, symBinAddr: 0x100025ED0, symSize: 0x30 }
  - { offsetInCU: 0x4FCF0, offset: 0x4FCF0, size: 0x8, addend: 0x0, symName: __ZNSt3__18ios_base5widthB7v160006El, symObjAddr: 0x217C0, symBinAddr: 0x100025F00, symSize: 0x30 }
  - { offsetInCU: 0x4FD36, offset: 0x4FD36, size: 0x8, addend: 0x0, symName: __ZNSt3__112basic_stringIcNS_11char_traitsIcEENS_9allocatorIcEEEC2B7v160006Emc, symObjAddr: 0x217F0, symBinAddr: 0x100025F30, symSize: 0x50 }
  - { offsetInCU: 0x4FD7E, offset: 0x4FD7E, size: 0x8, addend: 0x0, symName: __ZNSt3__112basic_stringIcNS_11char_traitsIcEENS_9allocatorIcEEE13__get_pointerB7v160006Ev, symObjAddr: 0x21850, symBinAddr: 0x100025F90, symSize: 0x50 }
  - { offsetInCU: 0x4FDA4, offset: 0x4FDA4, size: 0x8, addend: 0x0, symName: __ZNSt3__112basic_stringIcNS_11char_traitsIcEENS_9allocatorIcEEE18__get_long_pointerB7v160006Ev, symObjAddr: 0x218A0, symBinAddr: 0x100025FE0, symSize: 0x20 }
  - { offsetInCU: 0x4FDCA, offset: 0x4FDCA, size: 0x8, addend: 0x0, symName: __ZNSt3__112basic_stringIcNS_11char_traitsIcEENS_9allocatorIcEEE19__get_short_pointerB7v160006Ev, symObjAddr: 0x218C0, symBinAddr: 0x100026000, symSize: 0x30 }
  - { offsetInCU: 0x4FDF0, offset: 0x4FDF0, size: 0x8, addend: 0x0, symName: __ZNSt3__114pointer_traitsIPcE10pointer_toB7v160006ERc, symObjAddr: 0x218F0, symBinAddr: 0x100026030, symSize: 0x10 }
  - { offsetInCU: 0x4FE14, offset: 0x4FE14, size: 0x8, addend: 0x0, symName: __ZNSt3__119ostreambuf_iteratorIcNS_11char_traitsIcEEEC2B7v160006ERNS_13basic_ostreamIcS2_EE, symObjAddr: 0x21900, symBinAddr: 0x100026040, symSize: 0x50 }
  - { offsetInCU: 0x4FE4D, offset: 0x4FE4D, size: 0x8, addend: 0x0, symName: __ZNKSt3__19basic_iosIcNS_11char_traitsIcEEE5widenB7v160006Ec, symObjAddr: 0x21950, symBinAddr: 0x100026090, symSize: 0x80 }
  - { offsetInCU: 0x4FEC2, offset: 0x4FEC2, size: 0x8, addend: 0x0, symName: __ZNKSt3__15ctypeIcE5widenB7v160006Ec, symObjAddr: 0x21A00, symBinAddr: 0x100026140, symSize: 0x30 }
  - { offsetInCU: 0x4FEF7, offset: 0x4FEF7, size: 0x8, addend: 0x0, symName: __ZNSt3__113__atomic_baseIbLb0EE5storeB7v160006EbNS_12memory_orderE, symObjAddr: 0x21A30, symBinAddr: 0x100026170, symSize: 0x40 }
  - { offsetInCU: 0x4FF3B, offset: 0x4FF3B, size: 0x8, addend: 0x0, symName: __ZNSt3__16vectorIN7doctest16SubcaseSignatureENS_9allocatorIS2_EEE9__end_capB7v160006Ev, symObjAddr: 0x21AE0, symBinAddr: 0x100026220, symSize: 0x20 }
  - { offsetInCU: 0x4FF61, offset: 0x4FF61, size: 0x8, addend: 0x0, symName: __ZNSt3__16vectorIN7doctest16SubcaseSignatureENS_9allocatorIS2_EEE22__construct_one_at_endB7v160006IJRKS2_EEEvDpOT_, symObjAddr: 0x21B00, symBinAddr: 0x100026240, symSize: 0x90 }
  - { offsetInCU: 0x4FFB0, offset: 0x4FFB0, size: 0x8, addend: 0x0, symName: __ZNSt3__16vectorIN7doctest16SubcaseSignatureENS_9allocatorIS2_EEE21__push_back_slow_pathIRKS2_EEvOT_, symObjAddr: 0x21B90, symBinAddr: 0x1000262D0, symSize: 0xD0 }
  - { offsetInCU: 0x5000E, offset: 0x5000E, size: 0x8, addend: 0x0, symName: __ZNSt3__117__compressed_pairIPN7doctest16SubcaseSignatureENS_9allocatorIS2_EEE5firstB7v160006Ev, symObjAddr: 0x21C60, symBinAddr: 0x1000263A0, symSize: 0x20 }
  - { offsetInCU: 0x50034, offset: 0x50034, size: 0x8, addend: 0x0, symName: __ZNSt3__122__compressed_pair_elemIPN7doctest16SubcaseSignatureELi0ELb0EE5__getB7v160006Ev, symObjAddr: 0x21C80, symBinAddr: 0x1000263C0, symSize: 0x10 }
  - { offsetInCU: 0x50076, offset: 0x50076, size: 0x8, addend: 0x0, symName: __ZNSt3__16vectorIN7doctest16SubcaseSignatureENS_9allocatorIS2_EEE21_ConstructTransactionC1B7v160006ERS5_m, symObjAddr: 0x21C90, symBinAddr: 0x1000263D0, symSize: 0x30 }
  - { offsetInCU: 0x500BE, offset: 0x500BE, size: 0x8, addend: 0x0, symName: __ZNSt3__116allocator_traitsINS_9allocatorIN7doctest16SubcaseSignatureEEEE9constructB7v160006IS3_JRKS3_EvEEvRS4_PT_DpOT0_, symObjAddr: 0x21CC0, symBinAddr: 0x100026400, symSize: 0x30 }
  - { offsetInCU: 0x50115, offset: 0x50115, size: 0x8, addend: 0x0, symName: __ZNSt3__16vectorIN7doctest16SubcaseSignatureENS_9allocatorIS2_EEE21_ConstructTransactionD1B7v160006Ev, symObjAddr: 0x21CF0, symBinAddr: 0x100026430, symSize: 0x20 }
  - { offsetInCU: 0x5013F, offset: 0x5013F, size: 0x8, addend: 0x0, symName: __ZNSt3__16vectorIN7doctest16SubcaseSignatureENS_9allocatorIS2_EEE21_ConstructTransactionC2B7v160006ERS5_m, symObjAddr: 0x21D10, symBinAddr: 0x100026450, symSize: 0x40 }
  - { offsetInCU: 0x50187, offset: 0x50187, size: 0x8, addend: 0x0, symName: __ZNSt3__19allocatorIN7doctest16SubcaseSignatureEE9constructB7v160006IS2_JRKS2_EEEvPT_DpOT0_, symObjAddr: 0x21D50, symBinAddr: 0x100026490, symSize: 0x30 }
  - { offsetInCU: 0x501DF, offset: 0x501DF, size: 0x8, addend: 0x0, symName: __ZN7doctest16SubcaseSignatureC1ERKS0_, symObjAddr: 0x21D80, symBinAddr: 0x1000264C0, symSize: 0x30 }
  - { offsetInCU: 0x50215, offset: 0x50215, size: 0x8, addend: 0x0, symName: __ZN7doctest16SubcaseSignatureC2ERKS0_, symObjAddr: 0x21DB0, symBinAddr: 0x1000264F0, symSize: 0x40 }
  - { offsetInCU: 0x5024B, offset: 0x5024B, size: 0x8, addend: 0x0, symName: __ZNSt3__16vectorIN7doctest16SubcaseSignatureENS_9allocatorIS2_EEE21_ConstructTransactionD2B7v160006Ev, symObjAddr: 0x21DF0, symBinAddr: 0x100026530, symSize: 0x20 }
  - { offsetInCU: 0x50275, offset: 0x50275, size: 0x8, addend: 0x0, symName: __ZNKSt3__16vectorIN7doctest16SubcaseSignatureENS_9allocatorIS2_EEE11__recommendB7v160006Em, symObjAddr: 0x21E10, symBinAddr: 0x100026550, symSize: 0xA0 }
  - { offsetInCU: 0x502CA, offset: 0x502CA, size: 0x8, addend: 0x0, symName: __ZNSt3__114__split_bufferIN7doctest16SubcaseSignatureERNS_9allocatorIS2_EEEC1EmmS5_, symObjAddr: 0x21EB0, symBinAddr: 0x1000265F0, symSize: 0x40 }
  - { offsetInCU: 0x50323, offset: 0x50323, size: 0x8, addend: 0x0, symName: __ZNSt3__114__split_bufferIN7doctest16SubcaseSignatureERNS_9allocatorIS2_EEED1Ev, symObjAddr: 0x22020, symBinAddr: 0x100026760, symSize: 0x20 }
  - { offsetInCU: 0x5034F, offset: 0x5034F, size: 0x8, addend: 0x0, symName: __ZNKSt3__16vectorIN7doctest16SubcaseSignatureENS_9allocatorIS2_EEE8max_sizeEv, symObjAddr: 0x22040, symBinAddr: 0x100026780, symSize: 0x60 }
  - { offsetInCU: 0x50377, offset: 0x50377, size: 0x8, addend: 0x0, symName: __ZNKSt3__16vectorIN7doctest16SubcaseSignatureENS_9allocatorIS2_EEE20__throw_length_errorB7v160006Ev, symObjAddr: 0x220A0, symBinAddr: 0x1000267E0, symSize: 0x20 }
  - { offsetInCU: 0x503A8, offset: 0x503A8, size: 0x8, addend: 0x0, symName: __ZNSt3__116allocator_traitsINS_9allocatorIN7doctest16SubcaseSignatureEEEE8max_sizeB7v160006IS4_vEEmRKS4_, symObjAddr: 0x220C0, symBinAddr: 0x100026800, symSize: 0x20 }
  - { offsetInCU: 0x503D6, offset: 0x503D6, size: 0x8, addend: 0x0, symName: __ZNKSt3__16vectorIN7doctest16SubcaseSignatureENS_9allocatorIS2_EEE7__allocB7v160006Ev, symObjAddr: 0x220E0, symBinAddr: 0x100026820, symSize: 0x20 }
  - { offsetInCU: 0x503FC, offset: 0x503FC, size: 0x8, addend: 0x0, symName: __ZNKSt3__19allocatorIN7doctest16SubcaseSignatureEE8max_sizeB7v160006Ev, symObjAddr: 0x22100, symBinAddr: 0x100026840, symSize: 0x20 }
  - { offsetInCU: 0x50422, offset: 0x50422, size: 0x8, addend: 0x0, symName: __ZNKSt3__117__compressed_pairIPN7doctest16SubcaseSignatureENS_9allocatorIS2_EEE6secondB7v160006Ev, symObjAddr: 0x22120, symBinAddr: 0x100026860, symSize: 0x20 }
  - { offsetInCU: 0x50448, offset: 0x50448, size: 0x8, addend: 0x0, symName: __ZNKSt3__122__compressed_pair_elemINS_9allocatorIN7doctest16SubcaseSignatureEEELi1ELb1EE5__getB7v160006Ev, symObjAddr: 0x22140, symBinAddr: 0x100026880, symSize: 0x10 }
  - { offsetInCU: 0x5046E, offset: 0x5046E, size: 0x8, addend: 0x0, symName: __ZNSt3__114__split_bufferIN7doctest16SubcaseSignatureERNS_9allocatorIS2_EEEC2EmmS5_, symObjAddr: 0x22150, symBinAddr: 0x100026890, symSize: 0xC0 }
  - { offsetInCU: 0x504E4, offset: 0x504E4, size: 0x8, addend: 0x0, symName: __ZNSt3__117__compressed_pairIPN7doctest16SubcaseSignatureERNS_9allocatorIS2_EEEC1B7v160006IDnS6_EEOT_OT0_, symObjAddr: 0x22210, symBinAddr: 0x100026950, symSize: 0x30 }
  - { offsetInCU: 0x5053E, offset: 0x5053E, size: 0x8, addend: 0x0, symName: __ZNSt3__114__split_bufferIN7doctest16SubcaseSignatureERNS_9allocatorIS2_EEE7__allocB7v160006Ev, symObjAddr: 0x22280, symBinAddr: 0x1000269C0, symSize: 0x20 }
  - { offsetInCU: 0x50564, offset: 0x50564, size: 0x8, addend: 0x0, symName: __ZNSt3__114__split_bufferIN7doctest16SubcaseSignatureERNS_9allocatorIS2_EEE9__end_capB7v160006Ev, symObjAddr: 0x222A0, symBinAddr: 0x1000269E0, symSize: 0x20 }
  - { offsetInCU: 0x5058A, offset: 0x5058A, size: 0x8, addend: 0x0, symName: __ZNSt3__117__compressed_pairIPN7doctest16SubcaseSignatureERNS_9allocatorIS2_EEEC2B7v160006IDnS6_EEOT_OT0_, symObjAddr: 0x222C0, symBinAddr: 0x100026A00, symSize: 0x40 }
  - { offsetInCU: 0x505E4, offset: 0x505E4, size: 0x8, addend: 0x0, symName: __ZNSt3__122__compressed_pair_elemIRNS_9allocatorIN7doctest16SubcaseSignatureEEELi1ELb0EEC2B7v160006IS5_vEEOT_, symObjAddr: 0x22300, symBinAddr: 0x100026A40, symSize: 0x20 }
  - { offsetInCU: 0x50627, offset: 0x50627, size: 0x8, addend: 0x0, symName: __ZNSt3__19allocatorIN7doctest16SubcaseSignatureEE8allocateB7v160006Em, symObjAddr: 0x22320, symBinAddr: 0x100026A60, symSize: 0x50 }
  - { offsetInCU: 0x5065C, offset: 0x5065C, size: 0x8, addend: 0x0, symName: __ZNSt3__117__compressed_pairIPN7doctest16SubcaseSignatureERNS_9allocatorIS2_EEE6secondB7v160006Ev, symObjAddr: 0x22370, symBinAddr: 0x100026AB0, symSize: 0x20 }
  - { offsetInCU: 0x50682, offset: 0x50682, size: 0x8, addend: 0x0, symName: __ZNSt3__122__compressed_pair_elemIRNS_9allocatorIN7doctest16SubcaseSignatureEEELi1ELb0EE5__getB7v160006Ev, symObjAddr: 0x22390, symBinAddr: 0x100026AD0, symSize: 0x20 }
  - { offsetInCU: 0x506A8, offset: 0x506A8, size: 0x8, addend: 0x0, symName: __ZNSt3__117__compressed_pairIPN7doctest16SubcaseSignatureERNS_9allocatorIS2_EEE5firstB7v160006Ev, symObjAddr: 0x223B0, symBinAddr: 0x100026AF0, symSize: 0x20 }
  - { offsetInCU: 0x506CE, offset: 0x506CE, size: 0x8, addend: 0x0, symName: __ZNSt3__116reverse_iteratorIPN7doctest16SubcaseSignatureEEC1B7v160006ES3_, symObjAddr: 0x22550, symBinAddr: 0x100026C90, symSize: 0x30 }
  - { offsetInCU: 0x50707, offset: 0x50707, size: 0x8, addend: 0x0, symName: __ZNKSt3__116reverse_iteratorIPN7doctest16SubcaseSignatureEE4baseB7v160006Ev, symObjAddr: 0x22580, symBinAddr: 0x100026CC0, symSize: 0x20 }
  - { offsetInCU: 0x5072D, offset: 0x5072D, size: 0x8, addend: 0x0, symName: __ZNKSt3__16vectorIN7doctest16SubcaseSignatureENS_9allocatorIS2_EEE14__annotate_newB7v160006Em, symObjAddr: 0x225E0, symBinAddr: 0x100026D20, symSize: 0xA0 }
  - { offsetInCU: 0x50762, offset: 0x50762, size: 0x8, addend: 0x0, symName: __ZNSt3__129_AllocatorDestroyRangeReverseINS_9allocatorIN7doctest16SubcaseSignatureEEENS_16reverse_iteratorIPS3_EEEC1B7v160006ERS4_RS7_SA_, symObjAddr: 0x226F0, symBinAddr: 0x100026E30, symSize: 0x40 }
  - { offsetInCU: 0x507BF, offset: 0x507BF, size: 0x8, addend: 0x0, symName: __ZNSt3__116allocator_traitsINS_9allocatorIN7doctest16SubcaseSignatureEEEE9constructB7v160006IS3_JS3_EvEEvRS4_PT_DpOT0_, symObjAddr: 0x22770, symBinAddr: 0x100026EB0, symSize: 0x30 }
  - { offsetInCU: 0x50816, offset: 0x50816, size: 0x8, addend: 0x0, symName: __ZNKSt3__116reverse_iteratorIPN7doctest16SubcaseSignatureEEdeB7v160006Ev, symObjAddr: 0x227C0, symBinAddr: 0x100026F00, symSize: 0x30 }
  - { offsetInCU: 0x5084B, offset: 0x5084B, size: 0x8, addend: 0x0, symName: __ZNSt3__116reverse_iteratorIPN7doctest16SubcaseSignatureEEppB7v160006Ev, symObjAddr: 0x227F0, symBinAddr: 0x100026F30, symSize: 0x20 }
  - { offsetInCU: 0x50871, offset: 0x50871, size: 0x8, addend: 0x0, symName: __ZNSt3__128__exception_guard_exceptionsINS_29_AllocatorDestroyRangeReverseINS_9allocatorIN7doctest16SubcaseSignatureEEENS_16reverse_iteratorIPS4_EEEEE10__completeB7v160006Ev, symObjAddr: 0x22810, symBinAddr: 0x100026F50, symSize: 0x20 }
  - { offsetInCU: 0x50897, offset: 0x50897, size: 0x8, addend: 0x0, symName: __ZNSt3__128__exception_guard_exceptionsINS_29_AllocatorDestroyRangeReverseINS_9allocatorIN7doctest16SubcaseSignatureEEENS_16reverse_iteratorIPS4_EEEEED1B7v160006Ev, symObjAddr: 0x22830, symBinAddr: 0x100026F70, symSize: 0x20 }
  - { offsetInCU: 0x508C1, offset: 0x508C1, size: 0x8, addend: 0x0, symName: __ZNSt3__128__exception_guard_exceptionsINS_29_AllocatorDestroyRangeReverseINS_9allocatorIN7doctest16SubcaseSignatureEEENS_16reverse_iteratorIPS4_EEEEEC1B7v160006ES9_, symObjAddr: 0x22850, symBinAddr: 0x100026F90, symSize: 0x40 }
  - { offsetInCU: 0x508FA, offset: 0x508FA, size: 0x8, addend: 0x0, symName: __ZNSt3__128__exception_guard_exceptionsINS_29_AllocatorDestroyRangeReverseINS_9allocatorIN7doctest16SubcaseSignatureEEENS_16reverse_iteratorIPS4_EEEEEC2B7v160006ES9_, symObjAddr: 0x22890, symBinAddr: 0x100026FD0, symSize: 0x30 }
  - { offsetInCU: 0x50933, offset: 0x50933, size: 0x8, addend: 0x0, symName: __ZNSt3__129_AllocatorDestroyRangeReverseINS_9allocatorIN7doctest16SubcaseSignatureEEENS_16reverse_iteratorIPS3_EEEC2B7v160006ERS4_RS7_SA_, symObjAddr: 0x228C0, symBinAddr: 0x100027000, symSize: 0x40 }
  - { offsetInCU: 0x5098A, offset: 0x5098A, size: 0x8, addend: 0x0, symName: __ZNSt3__19allocatorIN7doctest16SubcaseSignatureEE9constructB7v160006IS2_JS2_EEEvPT_DpOT0_, symObjAddr: 0x22900, symBinAddr: 0x100027040, symSize: 0x30 }
  - { offsetInCU: 0x509E2, offset: 0x509E2, size: 0x8, addend: 0x0, symName: __ZN7doctest16SubcaseSignatureC1EOS0_, symObjAddr: 0x22930, symBinAddr: 0x100027070, symSize: 0x30 }
  - { offsetInCU: 0x50A18, offset: 0x50A18, size: 0x8, addend: 0x0, symName: __ZN7doctest16SubcaseSignatureC2EOS0_, symObjAddr: 0x22960, symBinAddr: 0x1000270A0, symSize: 0x40 }
  - { offsetInCU: 0x50A54, offset: 0x50A54, size: 0x8, addend: 0x0, symName: __ZNSt3__119__to_address_helperINS_16reverse_iteratorIPN7doctest16SubcaseSignatureEEEvE6__callB7v160006ERKS5_, symObjAddr: 0x229A0, symBinAddr: 0x1000270E0, symSize: 0x40 }
  - { offsetInCU: 0x50A78, offset: 0x50A78, size: 0x8, addend: 0x0, symName: __ZNKSt3__116reverse_iteratorIPN7doctest16SubcaseSignatureEEptB7v160006Ev, symObjAddr: 0x229E0, symBinAddr: 0x100027120, symSize: 0x20 }
  - { offsetInCU: 0x50A9E, offset: 0x50A9E, size: 0x8, addend: 0x0, symName: __ZNSt3__128__exception_guard_exceptionsINS_29_AllocatorDestroyRangeReverseINS_9allocatorIN7doctest16SubcaseSignatureEEENS_16reverse_iteratorIPS4_EEEEED2B7v160006Ev, symObjAddr: 0x22A00, symBinAddr: 0x100027140, symSize: 0x40 }
  - { offsetInCU: 0x50AC8, offset: 0x50AC8, size: 0x8, addend: 0x0, symName: __ZNKSt3__129_AllocatorDestroyRangeReverseINS_9allocatorIN7doctest16SubcaseSignatureEEENS_16reverse_iteratorIPS3_EEEclB7v160006Ev, symObjAddr: 0x22A40, symBinAddr: 0x100027180, symSize: 0xF0 }
  - { offsetInCU: 0x50AEF, offset: 0x50AEF, size: 0x8, addend: 0x0, symName: __ZNSt3__116reverse_iteratorINS0_IPN7doctest16SubcaseSignatureEEEEC1B7v160006ES4_, symObjAddr: 0x22BA0, symBinAddr: 0x1000272E0, symSize: 0x30 }
  - { offsetInCU: 0x50B28, offset: 0x50B28, size: 0x8, addend: 0x0, symName: __ZNSt3__116reverse_iteratorINS0_IPN7doctest16SubcaseSignatureEEEEppB7v160006Ev, symObjAddr: 0x22C40, symBinAddr: 0x100027380, symSize: 0x30 }
  - { offsetInCU: 0x50B4E, offset: 0x50B4E, size: 0x8, addend: 0x0, symName: __ZNKSt3__116reverse_iteratorINS0_IPN7doctest16SubcaseSignatureEEEE4baseB7v160006Ev, symObjAddr: 0x22C70, symBinAddr: 0x1000273B0, symSize: 0x20 }
  - { offsetInCU: 0x50B7A, offset: 0x50B7A, size: 0x8, addend: 0x0, symName: __ZNSt3__119__to_address_helperINS_16reverse_iteratorINS1_IPN7doctest16SubcaseSignatureEEEEEvE6__callB7v160006ERKS6_, symObjAddr: 0x22C90, symBinAddr: 0x1000273D0, symSize: 0x40 }
  - { offsetInCU: 0x50B9E, offset: 0x50B9E, size: 0x8, addend: 0x0, symName: __ZNKSt3__116reverse_iteratorINS0_IPN7doctest16SubcaseSignatureEEEEptB7v160006Ev, symObjAddr: 0x22CD0, symBinAddr: 0x100027410, symSize: 0x20 }
  - { offsetInCU: 0x50BC4, offset: 0x50BC4, size: 0x8, addend: 0x0, symName: __ZNKSt3__116reverse_iteratorINS0_IPN7doctest16SubcaseSignatureEEEEdeB7v160006Ev, symObjAddr: 0x22CF0, symBinAddr: 0x100027430, symSize: 0x40 }
  - { offsetInCU: 0x50BF9, offset: 0x50BF9, size: 0x8, addend: 0x0, symName: __ZNSt3__116reverse_iteratorIPN7doctest16SubcaseSignatureEEmmB7v160006Ev, symObjAddr: 0x22D30, symBinAddr: 0x100027470, symSize: 0x20 }
  - { offsetInCU: 0x50C1F, offset: 0x50C1F, size: 0x8, addend: 0x0, symName: __ZNSt3__116reverse_iteratorINS0_IPN7doctest16SubcaseSignatureEEEEC2B7v160006ES4_, symObjAddr: 0x22D50, symBinAddr: 0x100027490, symSize: 0x40 }
  - { offsetInCU: 0x50C58, offset: 0x50C58, size: 0x8, addend: 0x0, symName: __ZNSt3__116reverse_iteratorIPN7doctest16SubcaseSignatureEEC2B7v160006ES3_, symObjAddr: 0x22D90, symBinAddr: 0x1000274D0, symSize: 0x30 }
  - { offsetInCU: 0x50C91, offset: 0x50C91, size: 0x8, addend: 0x0, symName: __ZNSt3__114__split_bufferIN7doctest16SubcaseSignatureERNS_9allocatorIS2_EEED2Ev, symObjAddr: 0x22DC0, symBinAddr: 0x100027500, symSize: 0x70 }
  - { offsetInCU: 0x50CBD, offset: 0x50CBD, size: 0x8, addend: 0x0, symName: __ZNSt3__114__split_bufferIN7doctest16SubcaseSignatureERNS_9allocatorIS2_EEE5clearB7v160006Ev, symObjAddr: 0x22E30, symBinAddr: 0x100027570, symSize: 0x20 }
  - { offsetInCU: 0x50CE3, offset: 0x50CE3, size: 0x8, addend: 0x0, symName: __ZNKSt3__114__split_bufferIN7doctest16SubcaseSignatureERNS_9allocatorIS2_EEE8capacityB7v160006Ev, symObjAddr: 0x22E50, symBinAddr: 0x100027590, symSize: 0x40 }
  - { offsetInCU: 0x50D09, offset: 0x50D09, size: 0x8, addend: 0x0, symName: __ZNSt3__114__split_bufferIN7doctest16SubcaseSignatureERNS_9allocatorIS2_EEE17__destruct_at_endB7v160006EPS2_, symObjAddr: 0x22E90, symBinAddr: 0x1000275D0, symSize: 0x30 }
  - { offsetInCU: 0x50D3E, offset: 0x50D3E, size: 0x8, addend: 0x0, symName: __ZNSt3__114__split_bufferIN7doctest16SubcaseSignatureERNS_9allocatorIS2_EEE17__destruct_at_endB7v160006EPS2_NS_17integral_constantIbLb0EEE, symObjAddr: 0x22EC0, symBinAddr: 0x100027600, symSize: 0x80 }
  - { offsetInCU: 0x50D80, offset: 0x50D80, size: 0x8, addend: 0x0, symName: __ZNKSt3__114__split_bufferIN7doctest16SubcaseSignatureERNS_9allocatorIS2_EEE9__end_capB7v160006Ev, symObjAddr: 0x22F40, symBinAddr: 0x100027680, symSize: 0x20 }
  - { offsetInCU: 0x50DA6, offset: 0x50DA6, size: 0x8, addend: 0x0, symName: __ZNKSt3__117__compressed_pairIPN7doctest16SubcaseSignatureERNS_9allocatorIS2_EEE5firstB7v160006Ev, symObjAddr: 0x22F60, symBinAddr: 0x1000276A0, symSize: 0x20 }
  - { offsetInCU: 0x50DCC, offset: 0x50DCC, size: 0x8, addend: 0x0, symName: __ZNSt3__16vectorIPN7doctest9IReporterENS_9allocatorIS3_EEE11__make_iterB7v160006EPS3_, symObjAddr: 0x22F80, symBinAddr: 0x1000276C0, symSize: 0x30 }
  - { offsetInCU: 0x50E01, offset: 0x50E01, size: 0x8, addend: 0x0, symName: __ZNSt3__111__wrap_iterIPPN7doctest9IReporterEEC1B7v160006EPKvS4_, symObjAddr: 0x22FB0, symBinAddr: 0x1000276F0, symSize: 0x30 }
  - { offsetInCU: 0x50E49, offset: 0x50E49, size: 0x8, addend: 0x0, symName: __ZNSt3__111__wrap_iterIPPN7doctest9IReporterEEC2B7v160006EPKvS4_, symObjAddr: 0x22FE0, symBinAddr: 0x100027720, symSize: 0x20 }
  - { offsetInCU: 0x50E91, offset: 0x50E91, size: 0x8, addend: 0x0, symName: __ZNSt3__112__hash_tableIyNS_4hashIyEENS_8equal_toIyEENS_9allocatorIyEEE4findIyEENS_15__hash_iteratorIPNS_11__hash_nodeIyPvEEEERKT_, symObjAddr: 0x23000, symBinAddr: 0x100027740, symSize: 0x180 }
  - { offsetInCU: 0x50F1B, offset: 0x50F1B, size: 0x8, addend: 0x0, symName: __ZNSt3__121__hash_const_iteratorIPNS_11__hash_nodeIyPvEEEC1B7v160006ERKNS_15__hash_iteratorIS4_EE, symObjAddr: 0x23180, symBinAddr: 0x1000278C0, symSize: 0x30 }
  - { offsetInCU: 0x50F54, offset: 0x50F54, size: 0x8, addend: 0x0, symName: __ZNSt3__112__hash_tableIyNS_4hashIyEENS_8equal_toIyEENS_9allocatorIyEEE13hash_functionB7v160006Ev, symObjAddr: 0x231B0, symBinAddr: 0x1000278F0, symSize: 0x20 }
  - { offsetInCU: 0x50F7A, offset: 0x50F7A, size: 0x8, addend: 0x0, symName: __ZNKSt3__113__scalar_hashIyLm1EEclB7v160006Ey, symObjAddr: 0x231D0, symBinAddr: 0x100027910, symSize: 0x20 }
  - { offsetInCU: 0x50FE0, offset: 0x50FE0, size: 0x8, addend: 0x0, symName: __ZNKSt3__112__hash_tableIyNS_4hashIyEENS_8equal_toIyEENS_9allocatorIyEEE12bucket_countB7v160006Ev, symObjAddr: 0x231F0, symBinAddr: 0x100027930, symSize: 0x30 }
  - { offsetInCU: 0x51006, offset: 0x51006, size: 0x8, addend: 0x0, symName: __ZNKSt3__110unique_ptrIA_PNS_16__hash_node_baseIPNS_11__hash_nodeIyPvEEEENS_25__bucket_list_deallocatorINS_9allocatorIS7_EEEEEixB7v160006Em, symObjAddr: 0x232A0, symBinAddr: 0x1000279E0, symSize: 0x30 }
  - { offsetInCU: 0x5103B, offset: 0x5103B, size: 0x8, addend: 0x0, symName: __ZNKSt3__116__hash_node_baseIPNS_11__hash_nodeIyPvEEE6__hashB7v160006Ev, symObjAddr: 0x232D0, symBinAddr: 0x100027A10, symSize: 0x20 }
  - { offsetInCU: 0x51061, offset: 0x51061, size: 0x8, addend: 0x0, symName: __ZNSt3__112__hash_tableIyNS_4hashIyEENS_8equal_toIyEENS_9allocatorIyEEE6key_eqB7v160006Ev, symObjAddr: 0x232F0, symBinAddr: 0x100027A30, symSize: 0x20 }
  - { offsetInCU: 0x51087, offset: 0x51087, size: 0x8, addend: 0x0, symName: __ZNKSt3__18equal_toIyEclB7v160006ERKyS3_, symObjAddr: 0x23310, symBinAddr: 0x100027A50, symSize: 0x30 }
  - { offsetInCU: 0x510CB, offset: 0x510CB, size: 0x8, addend: 0x0, symName: __ZNSt3__115__hash_iteratorIPNS_11__hash_nodeIyPvEEEC1B7v160006EPNS_16__hash_node_baseIS4_EEPKv, symObjAddr: 0x23340, symBinAddr: 0x100027A80, symSize: 0x30 }
  - { offsetInCU: 0x51113, offset: 0x51113, size: 0x8, addend: 0x0, symName: __ZNSt3__112__hash_tableIyNS_4hashIyEENS_8equal_toIyEENS_9allocatorIyEEE3endEv, symObjAddr: 0x23370, symBinAddr: 0x100027AB0, symSize: 0x30 }
  - { offsetInCU: 0x5113B, offset: 0x5113B, size: 0x8, addend: 0x0, symName: __ZNSt3__117__compressed_pairImNS_4hashIyEEE6secondB7v160006Ev, symObjAddr: 0x233A0, symBinAddr: 0x100027AE0, symSize: 0x20 }
  - { offsetInCU: 0x51161, offset: 0x51161, size: 0x8, addend: 0x0, symName: __ZNSt3__122__compressed_pair_elemINS_4hashIyEELi1ELb1EE5__getB7v160006Ev, symObjAddr: 0x233C0, symBinAddr: 0x100027B00, symSize: 0x10 }
  - { offsetInCU: 0x51187, offset: 0x51187, size: 0x8, addend: 0x0, symName: __ZNKSt3__110unique_ptrIA_PNS_16__hash_node_baseIPNS_11__hash_nodeIyPvEEEENS_25__bucket_list_deallocatorINS_9allocatorIS7_EEEEE11get_deleterB7v160006Ev, symObjAddr: 0x233D0, symBinAddr: 0x100027B10, symSize: 0x20 }
  - { offsetInCU: 0x511AD, offset: 0x511AD, size: 0x8, addend: 0x0, symName: __ZNKSt3__125__bucket_list_deallocatorINS_9allocatorIPNS_16__hash_node_baseIPNS_11__hash_nodeIyPvEEEEEEE4sizeB7v160006Ev, symObjAddr: 0x233F0, symBinAddr: 0x100027B30, symSize: 0x20 }
  - { offsetInCU: 0x511D3, offset: 0x511D3, size: 0x8, addend: 0x0, symName: __ZNKSt3__117__compressed_pairIPPNS_16__hash_node_baseIPNS_11__hash_nodeIyPvEEEENS_25__bucket_list_deallocatorINS_9allocatorIS7_EEEEE6secondB7v160006Ev, symObjAddr: 0x23410, symBinAddr: 0x100027B50, symSize: 0x20 }
  - { offsetInCU: 0x511F9, offset: 0x511F9, size: 0x8, addend: 0x0, symName: __ZNKSt3__122__compressed_pair_elemINS_25__bucket_list_deallocatorINS_9allocatorIPNS_16__hash_node_baseIPNS_11__hash_nodeIyPvEEEEEEEELi1ELb0EE5__getB7v160006Ev, symObjAddr: 0x23430, symBinAddr: 0x100027B70, symSize: 0x10 }
  - { offsetInCU: 0x5121F, offset: 0x5121F, size: 0x8, addend: 0x0, symName: __ZNKSt3__117__compressed_pairImNS_9allocatorIPNS_16__hash_node_baseIPNS_11__hash_nodeIyPvEEEEEEE5firstB7v160006Ev, symObjAddr: 0x23440, symBinAddr: 0x100027B80, symSize: 0x20 }
  - { offsetInCU: 0x51245, offset: 0x51245, size: 0x8, addend: 0x0, symName: __ZNKSt3__122__compressed_pair_elemImLi0ELb0EE5__getB7v160006Ev, symObjAddr: 0x23460, symBinAddr: 0x100027BA0, symSize: 0x10 }
  - { offsetInCU: 0x5126B, offset: 0x5126B, size: 0x8, addend: 0x0, symName: __ZNKSt3__117__compressed_pairIPPNS_16__hash_node_baseIPNS_11__hash_nodeIyPvEEEENS_25__bucket_list_deallocatorINS_9allocatorIS7_EEEEE5firstB7v160006Ev, symObjAddr: 0x23470, symBinAddr: 0x100027BB0, symSize: 0x20 }
  - { offsetInCU: 0x51291, offset: 0x51291, size: 0x8, addend: 0x0, symName: __ZNKSt3__122__compressed_pair_elemIPPNS_16__hash_node_baseIPNS_11__hash_nodeIyPvEEEELi0ELb0EE5__getB7v160006Ev, symObjAddr: 0x23490, symBinAddr: 0x100027BD0, symSize: 0x10 }
  - { offsetInCU: 0x512B7, offset: 0x512B7, size: 0x8, addend: 0x0, symName: __ZNSt3__117__compressed_pairIfNS_8equal_toIyEEE6secondB7v160006Ev, symObjAddr: 0x234A0, symBinAddr: 0x100027BE0, symSize: 0x20 }
  - { offsetInCU: 0x512DD, offset: 0x512DD, size: 0x8, addend: 0x0, symName: __ZNSt3__122__compressed_pair_elemINS_8equal_toIyEELi1ELb1EE5__getB7v160006Ev, symObjAddr: 0x234C0, symBinAddr: 0x100027C00, symSize: 0x10 }
  - { offsetInCU: 0x51303, offset: 0x51303, size: 0x8, addend: 0x0, symName: __ZNSt3__115__hash_iteratorIPNS_11__hash_nodeIyPvEEEC2B7v160006EPNS_16__hash_node_baseIS4_EEPKv, symObjAddr: 0x234D0, symBinAddr: 0x100027C10, symSize: 0x20 }
  - { offsetInCU: 0x5134B, offset: 0x5134B, size: 0x8, addend: 0x0, symName: __ZNSt3__121__hash_const_iteratorIPNS_11__hash_nodeIyPvEEEC2B7v160006ERKNS_15__hash_iteratorIS4_EE, symObjAddr: 0x234F0, symBinAddr: 0x100027C30, symSize: 0x20 }
  - { offsetInCU: 0x51384, offset: 0x51384, size: 0x8, addend: 0x0, symName: __ZNSt3__16vectorIN7doctest16SubcaseSignatureENS_9allocatorIS2_EEE11__make_iterB7v160006EPS2_, symObjAddr: 0x23510, symBinAddr: 0x100027C50, symSize: 0x30 }
  - { offsetInCU: 0x513B9, offset: 0x513B9, size: 0x8, addend: 0x0, symName: __ZNSt3__111__wrap_iterIPN7doctest16SubcaseSignatureEEC1B7v160006EPKvS3_, symObjAddr: 0x23540, symBinAddr: 0x100027C80, symSize: 0x30 }
  - { offsetInCU: 0x51401, offset: 0x51401, size: 0x8, addend: 0x0, symName: __ZNSt3__111__wrap_iterIPN7doctest16SubcaseSignatureEEC2B7v160006EPKvS3_, symObjAddr: 0x23570, symBinAddr: 0x100027CB0, symSize: 0x20 }
  - { offsetInCU: 0x51449, offset: 0x51449, size: 0x8, addend: 0x0, symName: __ZNSt3__16vectorIN7doctest16SubcaseSignatureENS_9allocatorIS2_EEE18__construct_at_endINS_11__wrap_iterIPS2_EELi0EEEvT_SA_m, symObjAddr: 0x23660, symBinAddr: 0x100027DA0, symSize: 0xA0 }
  - { offsetInCU: 0x514BD, offset: 0x514BD, size: 0x8, addend: 0x0, symName: __ZNSt3__16vectorIN7doctest16SubcaseSignatureENS_9allocatorIS2_EEE12__move_rangeEPS2_S6_S6_, symObjAddr: 0x23700, symBinAddr: 0x100027E40, symSize: 0x130 }
  - { offsetInCU: 0x5157B, offset: 0x5157B, size: 0x8, addend: 0x0, symName: __ZNSt3__114__split_bufferIN7doctest16SubcaseSignatureERNS_9allocatorIS2_EEE18__construct_at_endINS_11__wrap_iterIPS2_EEEENS_9enable_ifIXsr27__is_cpp17_forward_iteratorIT_EE5valueEvE4typeESC_SC_, symObjAddr: 0x23880, symBinAddr: 0x100027FC0, symSize: 0xF0 }
  - { offsetInCU: 0x515D9, offset: 0x515D9, size: 0x8, addend: 0x0, symName: __ZNSt3__129_AllocatorDestroyRangeReverseINS_9allocatorIN7doctest16SubcaseSignatureEEEPS3_EC1B7v160006ERS4_RS5_S8_, symObjAddr: 0x23D10, symBinAddr: 0x100028450, symSize: 0x40 }
  - { offsetInCU: 0x51630, offset: 0x51630, size: 0x8, addend: 0x0, symName: __ZNSt3__116allocator_traitsINS_9allocatorIN7doctest16SubcaseSignatureEEEE9constructB7v160006IS3_JRS3_EvEEvRS4_PT_DpOT0_, symObjAddr: 0x23D80, symBinAddr: 0x1000284C0, symSize: 0x30 }
  - { offsetInCU: 0x51687, offset: 0x51687, size: 0x8, addend: 0x0, symName: __ZNKSt3__111__wrap_iterIPN7doctest16SubcaseSignatureEEdeB7v160006Ev, symObjAddr: 0x23DB0, symBinAddr: 0x1000284F0, symSize: 0x20 }
  - { offsetInCU: 0x516AD, offset: 0x516AD, size: 0x8, addend: 0x0, symName: __ZNSt3__111__wrap_iterIPN7doctest16SubcaseSignatureEEppB7v160006Ev, symObjAddr: 0x23DD0, symBinAddr: 0x100028510, symSize: 0x20 }
  - { offsetInCU: 0x516D3, offset: 0x516D3, size: 0x8, addend: 0x0, symName: __ZNSt3__128__exception_guard_exceptionsINS_29_AllocatorDestroyRangeReverseINS_9allocatorIN7doctest16SubcaseSignatureEEEPS4_EEE10__completeB7v160006Ev, symObjAddr: 0x23DF0, symBinAddr: 0x100028530, symSize: 0x20 }
  - { offsetInCU: 0x516F9, offset: 0x516F9, size: 0x8, addend: 0x0, symName: __ZNSt3__128__exception_guard_exceptionsINS_29_AllocatorDestroyRangeReverseINS_9allocatorIN7doctest16SubcaseSignatureEEEPS4_EEED1B7v160006Ev, symObjAddr: 0x23E10, symBinAddr: 0x100028550, symSize: 0x20 }
  - { offsetInCU: 0x51723, offset: 0x51723, size: 0x8, addend: 0x0, symName: __ZNSt3__128__exception_guard_exceptionsINS_29_AllocatorDestroyRangeReverseINS_9allocatorIN7doctest16SubcaseSignatureEEEPS4_EEEC1B7v160006ES7_, symObjAddr: 0x23E30, symBinAddr: 0x100028570, symSize: 0x40 }
  - { offsetInCU: 0x5175C, offset: 0x5175C, size: 0x8, addend: 0x0, symName: __ZNSt3__128__exception_guard_exceptionsINS_29_AllocatorDestroyRangeReverseINS_9allocatorIN7doctest16SubcaseSignatureEEEPS4_EEEC2B7v160006ES7_, symObjAddr: 0x23E70, symBinAddr: 0x1000285B0, symSize: 0x30 }
  - { offsetInCU: 0x51795, offset: 0x51795, size: 0x8, addend: 0x0, symName: __ZNSt3__129_AllocatorDestroyRangeReverseINS_9allocatorIN7doctest16SubcaseSignatureEEEPS3_EC2B7v160006ERS4_RS5_S8_, symObjAddr: 0x23EA0, symBinAddr: 0x1000285E0, symSize: 0x40 }
  - { offsetInCU: 0x517EC, offset: 0x517EC, size: 0x8, addend: 0x0, symName: __ZNSt3__19allocatorIN7doctest16SubcaseSignatureEE9constructB7v160006IS2_JRS2_EEEvPT_DpOT0_, symObjAddr: 0x23F20, symBinAddr: 0x100028660, symSize: 0x30 }
  - { offsetInCU: 0x51844, offset: 0x51844, size: 0x8, addend: 0x0, symName: __ZNSt3__128__exception_guard_exceptionsINS_29_AllocatorDestroyRangeReverseINS_9allocatorIN7doctest16SubcaseSignatureEEEPS4_EEED2B7v160006Ev, symObjAddr: 0x23F50, symBinAddr: 0x100028690, symSize: 0x40 }
  - { offsetInCU: 0x5186E, offset: 0x5186E, size: 0x8, addend: 0x0, symName: __ZNKSt3__129_AllocatorDestroyRangeReverseINS_9allocatorIN7doctest16SubcaseSignatureEEEPS3_EclB7v160006Ev, symObjAddr: 0x23F90, symBinAddr: 0x1000286D0, symSize: 0x60 }
  - { offsetInCU: 0x518BC, offset: 0x518BC, size: 0x8, addend: 0x0, symName: __ZNKSt3__120__move_backward_loopINS_17_ClassicAlgPolicyEEclB7v160006IPN7doctest16SubcaseSignatureES6_S6_EENS_4pairIT_T1_EES8_T0_S9_, symObjAddr: 0x24220, symBinAddr: 0x100028960, symSize: 0x90 }
  - { offsetInCU: 0x51948, offset: 0x51948, size: 0x8, addend: 0x0, symName: __ZNSt3__18_IterOpsINS_17_ClassicAlgPolicyEE4nextB7v160006IPN7doctest16SubcaseSignatureEEET_S7_S7_, symObjAddr: 0x24370, symBinAddr: 0x100028AB0, symSize: 0x20 }
  - { offsetInCU: 0x51980, offset: 0x51980, size: 0x8, addend: 0x0, symName: __ZNSt3__18_IterOpsINS_17_ClassicAlgPolicyEE11__iter_moveB7v160006IRPN7doctest16SubcaseSignatureEEENS_9enable_ifIXsr12is_referenceIDTdeclsr3stdE7declvalIRT_EEEEE5valueEDTclsr3stdE4movedeclsr3stdE7declvalISA_EEEEE4typeEOS9_, symObjAddr: 0x24390, symBinAddr: 0x100028AD0, symSize: 0x20 }
  - { offsetInCU: 0x519AD, offset: 0x519AD, size: 0x8, addend: 0x0, symName: __ZN7doctest16SubcaseSignatureaSEOS0_, symObjAddr: 0x243B0, symBinAddr: 0x100028AF0, symSize: 0x40 }
  - { offsetInCU: 0x519DF, offset: 0x519DF, size: 0x8, addend: 0x0, symName: __ZNSt3__18_IterOpsINS_17_ClassicAlgPolicyEE25__validate_iter_referenceB7v160006IRPN7doctest16SubcaseSignatureEEEvv, symObjAddr: 0x243F0, symBinAddr: 0x100028B30, symSize: 0x10 }
  - { offsetInCU: 0x519FD, offset: 0x519FD, size: 0x8, addend: 0x0, symName: __ZNSt3__118__unwrap_iter_implIPN7doctest16SubcaseSignatureELb1EE8__unwrapB7v160006ES3_, symObjAddr: 0x24400, symBinAddr: 0x100028B40, symSize: 0x20 }
  - { offsetInCU: 0x51A27, offset: 0x51A27, size: 0x8, addend: 0x0, symName: __ZNSt3__14pairIPN7doctest16SubcaseSignatureES3_EC1B7v160006IS3_S3_LPv0EEEOT_OT0_, symObjAddr: 0x24420, symBinAddr: 0x100028B60, symSize: 0x30 }
  - { offsetInCU: 0x51A87, offset: 0x51A87, size: 0x8, addend: 0x0, symName: __ZNSt3__14pairIPN7doctest16SubcaseSignatureES3_EC2B7v160006IS3_S3_LPv0EEEOT_OT0_, symObjAddr: 0x24450, symBinAddr: 0x100028B90, symSize: 0x30 }
  - { offsetInCU: 0x51AE7, offset: 0x51AE7, size: 0x8, addend: 0x0, symName: __ZNSt3__118__unwrap_iter_implIPN7doctest16SubcaseSignatureELb1EE8__rewrapB7v160006ES3_S3_, symObjAddr: 0x24480, symBinAddr: 0x100028BC0, symSize: 0x60 }
  - { offsetInCU: 0x51B25, offset: 0x51B25, size: 0x8, addend: 0x0, symName: __ZNKSt3__111__copy_loopINS_17_ClassicAlgPolicyEEclB7v160006IPN7doctest16SubcaseSignatureES6_S6_EENS_4pairIT_T1_EES8_T0_S9_, symObjAddr: 0x246B0, symBinAddr: 0x100028DF0, symSize: 0x80 }
  - { offsetInCU: 0x51B93, offset: 0x51B93, size: 0x8, addend: 0x0, symName: __ZNSt3__118__unwrap_iter_implINS_11__wrap_iterIPN7doctest16SubcaseSignatureEEELb1EE8__unwrapB7v160006ES5_, symObjAddr: 0x247D0, symBinAddr: 0x100028F10, symSize: 0x20 }
  - { offsetInCU: 0x51BBD, offset: 0x51BBD, size: 0x8, addend: 0x0, symName: __ZNSt3__119__to_address_helperINS_11__wrap_iterIPN7doctest16SubcaseSignatureEEEvE6__callB7v160006ERKS5_, symObjAddr: 0x24810, symBinAddr: 0x100028F50, symSize: 0x30 }
  - { offsetInCU: 0x51BE1, offset: 0x51BE1, size: 0x8, addend: 0x0, symName: __ZNSt3__114pointer_traitsINS_11__wrap_iterIPN7doctest16SubcaseSignatureEEEE10to_addressB7v160006ES5_, symObjAddr: 0x24840, symBinAddr: 0x100028F80, symSize: 0x30 }
  - { offsetInCU: 0x51C05, offset: 0x51C05, size: 0x8, addend: 0x0, symName: __ZN7doctest16SubcaseSignatureaSERKS0_, symObjAddr: 0x24870, symBinAddr: 0x100028FB0, symSize: 0x40 }
  - { offsetInCU: 0x51C5A, offset: 0x51C5A, size: 0x8, addend: 0x0, symName: __ZNSt3__14pairINS_11__wrap_iterIPN7doctest16SubcaseSignatureEEES4_EC1B7v160006IS5_S4_LPv0EEEOT_OT0_, symObjAddr: 0x248B0, symBinAddr: 0x100028FF0, symSize: 0x30 }
  - { offsetInCU: 0x51CBA, offset: 0x51CBA, size: 0x8, addend: 0x0, symName: __ZNSt3__14pairINS_11__wrap_iterIPN7doctest16SubcaseSignatureEEES4_EC2B7v160006IS5_S4_LPv0EEEOT_OT0_, symObjAddr: 0x248E0, symBinAddr: 0x100029020, symSize: 0x30 }
  - { offsetInCU: 0x51D1A, offset: 0x51D1A, size: 0x8, addend: 0x0, symName: __ZNSt3__118__unwrap_iter_implINS_11__wrap_iterIPN7doctest16SubcaseSignatureEEELb1EE8__rewrapB7v160006ES5_S4_, symObjAddr: 0x24960, symBinAddr: 0x1000290A0, symSize: 0x50 }
  - { offsetInCU: 0x51D59, offset: 0x51D59, size: 0x8, addend: 0x0, symName: __ZNSt3__114__split_bufferIN7doctest16SubcaseSignatureERNS_9allocatorIS2_EEE21_ConstructTransactionC1B7v160006EPPS2_m, symObjAddr: 0x249B0, symBinAddr: 0x1000290F0, symSize: 0x30 }
  - { offsetInCU: 0x51DA1, offset: 0x51DA1, size: 0x8, addend: 0x0, symName: __ZNSt3__114__split_bufferIN7doctest16SubcaseSignatureERNS_9allocatorIS2_EEE21_ConstructTransactionD1B7v160006Ev, symObjAddr: 0x249E0, symBinAddr: 0x100029120, symSize: 0x20 }
  - { offsetInCU: 0x51DCB, offset: 0x51DCB, size: 0x8, addend: 0x0, symName: __ZNSt3__114__split_bufferIN7doctest16SubcaseSignatureERNS_9allocatorIS2_EEE21_ConstructTransactionC2B7v160006EPPS2_m, symObjAddr: 0x24A00, symBinAddr: 0x100029140, symSize: 0x40 }
  - { offsetInCU: 0x51E13, offset: 0x51E13, size: 0x8, addend: 0x0, symName: __ZNSt3__114__split_bufferIN7doctest16SubcaseSignatureERNS_9allocatorIS2_EEE21_ConstructTransactionD2B7v160006Ev, symObjAddr: 0x24A40, symBinAddr: 0x100029180, symSize: 0x20 }
  - { offsetInCU: 0x51E3D, offset: 0x51E3D, size: 0x8, addend: 0x0, symName: __ZNSt3__112__hash_tableIyNS_4hashIyEENS_8equal_toIyEENS_9allocatorIyEEE15__insert_uniqueB7v160006EOy, symObjAddr: 0x24B60, symBinAddr: 0x1000292A0, symSize: 0x50 }
  - { offsetInCU: 0x51E72, offset: 0x51E72, size: 0x8, addend: 0x0, symName: __ZNSt3__14pairINS_21__hash_const_iteratorIPNS_11__hash_nodeIyPvEEEEbEC1B7v160006INS_15__hash_iteratorIS5_EEbLS3_0EEEONS0_IT_T0_EE, symObjAddr: 0x24BB0, symBinAddr: 0x1000292F0, symSize: 0x30 }
  - { offsetInCU: 0x51EC9, offset: 0x51EC9, size: 0x8, addend: 0x0, symName: __ZNSt3__112__hash_tableIyNS_4hashIyEENS_8equal_toIyEENS_9allocatorIyEEE25__emplace_unique_key_argsIyJyEEENS_4pairINS_15__hash_iteratorIPNS_11__hash_nodeIyPvEEEEbEERKT_DpOT0_, symObjAddr: 0x24BE0, symBinAddr: 0x100029320, symSize: 0x5B0 }
  - { offsetInCU: 0x51FA7, offset: 0x51FA7, size: 0x8, addend: 0x0, symName: __ZNSt3__122__hash_key_value_typesIyE9__get_keyB7v160006ERKy, symObjAddr: 0x25190, symBinAddr: 0x1000298D0, symSize: 0x10 }
  - { offsetInCU: 0x51FCB, offset: 0x51FCB, size: 0x8, addend: 0x0, symName: __ZNSt3__112__hash_tableIyNS_4hashIyEENS_8equal_toIyEENS_9allocatorIyEEE21__construct_node_hashIyJEEENS_10unique_ptrINS_11__hash_nodeIyPvEENS_22__hash_node_destructorINS5_ISC_EEEEEEmOT_DpOT0_, symObjAddr: 0x251A0, symBinAddr: 0x1000298E0, symSize: 0x130 }
  - { offsetInCU: 0x5203F, offset: 0x5203F, size: 0x8, addend: 0x0, symName: __ZNSt3__112__hash_tableIyNS_4hashIyEENS_8equal_toIyEENS_9allocatorIyEEE4sizeB7v160006Ev, symObjAddr: 0x252D0, symBinAddr: 0x100029A10, symSize: 0x20 }
  - { offsetInCU: 0x52065, offset: 0x52065, size: 0x8, addend: 0x0, symName: __ZNSt3__112__hash_tableIyNS_4hashIyEENS_8equal_toIyEENS_9allocatorIyEEE15max_load_factorB7v160006Ev, symObjAddr: 0x252F0, symBinAddr: 0x100029A30, symSize: 0x20 }
  - { offsetInCU: 0x5208B, offset: 0x5208B, size: 0x8, addend: 0x0, symName: __ZNSt3__112__hash_tableIyNS_4hashIyEENS_8equal_toIyEENS_9allocatorIyEEE15__rehash_uniqueB7v160006Em, symObjAddr: 0x25310, symBinAddr: 0x100029A50, symSize: 0x30 }
  - { offsetInCU: 0x520BF, offset: 0x520BF, size: 0x8, addend: 0x0, symName: __Z4ceilB7v160006f, symObjAddr: 0x25380, symBinAddr: 0x100029AC0, symSize: 0x20 }
  - { offsetInCU: 0x520EE, offset: 0x520EE, size: 0x8, addend: 0x0, symName: __ZNSt3__116__hash_node_baseIPNS_11__hash_nodeIyPvEEE5__ptrB7v160006Ev, symObjAddr: 0x253A0, symBinAddr: 0x100029AE0, symSize: 0x20 }
  - { offsetInCU: 0x52114, offset: 0x52114, size: 0x8, addend: 0x0, symName: __ZNKSt3__110unique_ptrINS_11__hash_nodeIyPvEENS_22__hash_node_destructorINS_9allocatorIS3_EEEEEptB7v160006Ev, symObjAddr: 0x253C0, symBinAddr: 0x100029B00, symSize: 0x20 }
  - { offsetInCU: 0x5213A, offset: 0x5213A, size: 0x8, addend: 0x0, symName: __ZNKSt3__110unique_ptrINS_11__hash_nodeIyPvEENS_22__hash_node_destructorINS_9allocatorIS3_EEEEE3getB7v160006Ev, symObjAddr: 0x253E0, symBinAddr: 0x100029B20, symSize: 0x20 }
  - { offsetInCU: 0x52160, offset: 0x52160, size: 0x8, addend: 0x0, symName: __ZNSt3__110unique_ptrINS_11__hash_nodeIyPvEENS_22__hash_node_destructorINS_9allocatorIS3_EEEEE7releaseB7v160006Ev, symObjAddr: 0x25400, symBinAddr: 0x100029B40, symSize: 0x40 }
  - { offsetInCU: 0x52195, offset: 0x52195, size: 0x8, addend: 0x0, symName: __ZNSt3__110unique_ptrINS_11__hash_nodeIyPvEENS_22__hash_node_destructorINS_9allocatorIS3_EEEEED1B7v160006Ev, symObjAddr: 0x25440, symBinAddr: 0x100029B80, symSize: 0x20 }
  - { offsetInCU: 0x521C5, offset: 0x521C5, size: 0x8, addend: 0x0, symName: __ZNSt3__14pairINS_15__hash_iteratorIPNS_11__hash_nodeIyPvEEEEbEC1B7v160006IS6_RbLS3_0EEEOT_OT0_, symObjAddr: 0x25460, symBinAddr: 0x100029BA0, symSize: 0x30 }
  - { offsetInCU: 0x52225, offset: 0x52225, size: 0x8, addend: 0x0, symName: __ZNSt3__116allocator_traitsINS_9allocatorINS_11__hash_nodeIyPvEEEEE8allocateB7v160006ERS5_m, symObjAddr: 0x25490, symBinAddr: 0x100029BD0, symSize: 0x30 }
  - { offsetInCU: 0x52258, offset: 0x52258, size: 0x8, addend: 0x0, symName: __ZNSt3__122__hash_node_destructorINS_9allocatorINS_11__hash_nodeIyPvEEEEEC1B7v160006ERS5_b, symObjAddr: 0x254C0, symBinAddr: 0x100029C00, symSize: 0x40 }
  - { offsetInCU: 0x522A6, offset: 0x522A6, size: 0x8, addend: 0x0, symName: __ZNSt3__110unique_ptrINS_11__hash_nodeIyPvEENS_22__hash_node_destructorINS_9allocatorIS3_EEEEEC1B7v160006ILb1EvEEPS3_NS_16__dependent_typeINS_27__unique_ptr_deleter_sfinaeIS7_EEXT_EE20__good_rval_ref_typeE, symObjAddr: 0x25500, symBinAddr: 0x100029C40, symSize: 0x30 }
  - { offsetInCU: 0x522F9, offset: 0x522F9, size: 0x8, addend: 0x0, symName: __ZNSt3__116allocator_traitsINS_9allocatorINS_11__hash_nodeIyPvEEEEE9constructB7v160006IyJyEvEEvRS5_PT_DpOT0_, symObjAddr: 0x25530, symBinAddr: 0x100029C70, symSize: 0x30 }
  - { offsetInCU: 0x52350, offset: 0x52350, size: 0x8, addend: 0x0, symName: __ZNSt3__110unique_ptrINS_11__hash_nodeIyPvEENS_22__hash_node_destructorINS_9allocatorIS3_EEEEE11get_deleterB7v160006Ev, symObjAddr: 0x25560, symBinAddr: 0x100029CA0, symSize: 0x20 }
  - { offsetInCU: 0x52376, offset: 0x52376, size: 0x8, addend: 0x0, symName: __ZNSt3__19allocatorINS_11__hash_nodeIyPvEEE8allocateB7v160006Em, symObjAddr: 0x25580, symBinAddr: 0x100029CC0, symSize: 0x50 }
  - { offsetInCU: 0x523B6, offset: 0x523B6, size: 0x8, addend: 0x0, symName: __ZNSt3__116allocator_traitsINS_9allocatorINS_11__hash_nodeIyPvEEEEE8max_sizeB7v160006IS5_vEEmRKS5_, symObjAddr: 0x255D0, symBinAddr: 0x100029D10, symSize: 0x20 }
  - { offsetInCU: 0x523E4, offset: 0x523E4, size: 0x8, addend: 0x0, symName: __ZNKSt3__19allocatorINS_11__hash_nodeIyPvEEE8max_sizeB7v160006Ev, symObjAddr: 0x255F0, symBinAddr: 0x100029D30, symSize: 0x20 }
  - { offsetInCU: 0x5240A, offset: 0x5240A, size: 0x8, addend: 0x0, symName: __ZNSt3__122__hash_node_destructorINS_9allocatorINS_11__hash_nodeIyPvEEEEEC2B7v160006ERS5_b, symObjAddr: 0x25610, symBinAddr: 0x100029D50, symSize: 0x30 }
  - { offsetInCU: 0x52452, offset: 0x52452, size: 0x8, addend: 0x0, symName: __ZNSt3__110unique_ptrINS_11__hash_nodeIyPvEENS_22__hash_node_destructorINS_9allocatorIS3_EEEEEC2B7v160006ILb1EvEEPS3_NS_16__dependent_typeINS_27__unique_ptr_deleter_sfinaeIS7_EEXT_EE20__good_rval_ref_typeE, symObjAddr: 0x25640, symBinAddr: 0x100029D80, symSize: 0x40 }
  - { offsetInCU: 0x524A5, offset: 0x524A5, size: 0x8, addend: 0x0, symName: __ZNSt3__117__compressed_pairIPNS_11__hash_nodeIyPvEENS_22__hash_node_destructorINS_9allocatorIS3_EEEEEC1B7v160006IRS4_S8_EEOT_OT0_, symObjAddr: 0x25680, symBinAddr: 0x100029DC0, symSize: 0x30 }
  - { offsetInCU: 0x524FF, offset: 0x524FF, size: 0x8, addend: 0x0, symName: __ZNSt3__117__compressed_pairIPNS_11__hash_nodeIyPvEENS_22__hash_node_destructorINS_9allocatorIS3_EEEEEC2B7v160006IRS4_S8_EEOT_OT0_, symObjAddr: 0x256B0, symBinAddr: 0x100029DF0, symSize: 0x40 }
  - { offsetInCU: 0x52559, offset: 0x52559, size: 0x8, addend: 0x0, symName: __ZNSt3__122__compressed_pair_elemIPNS_11__hash_nodeIyPvEELi0ELb0EEC2B7v160006IRS4_vEEOT_, symObjAddr: 0x256F0, symBinAddr: 0x100029E30, symSize: 0x20 }
  - { offsetInCU: 0x5259C, offset: 0x5259C, size: 0x8, addend: 0x0, symName: __ZNSt3__122__compressed_pair_elemINS_22__hash_node_destructorINS_9allocatorINS_11__hash_nodeIyPvEEEEEELi1ELb0EEC2B7v160006IS7_vEEOT_, symObjAddr: 0x25710, symBinAddr: 0x100029E50, symSize: 0x30 }
  - { offsetInCU: 0x525DF, offset: 0x525DF, size: 0x8, addend: 0x0, symName: __ZNSt3__19allocatorINS_11__hash_nodeIyPvEEE9constructB7v160006IyJyEEEvPT_DpOT0_, symObjAddr: 0x25740, symBinAddr: 0x100029E80, symSize: 0x20 }
  - { offsetInCU: 0x52637, offset: 0x52637, size: 0x8, addend: 0x0, symName: __ZNSt3__117__compressed_pairIPNS_11__hash_nodeIyPvEENS_22__hash_node_destructorINS_9allocatorIS3_EEEEE6secondB7v160006Ev, symObjAddr: 0x25760, symBinAddr: 0x100029EA0, symSize: 0x20 }
  - { offsetInCU: 0x5265D, offset: 0x5265D, size: 0x8, addend: 0x0, symName: __ZNSt3__122__compressed_pair_elemINS_22__hash_node_destructorINS_9allocatorINS_11__hash_nodeIyPvEEEEEELi1ELb0EE5__getB7v160006Ev, symObjAddr: 0x25780, symBinAddr: 0x100029EC0, symSize: 0x10 }
  - { offsetInCU: 0x52683, offset: 0x52683, size: 0x8, addend: 0x0, symName: __ZNSt3__117__compressed_pairImNS_4hashIyEEE5firstB7v160006Ev, symObjAddr: 0x25790, symBinAddr: 0x100029ED0, symSize: 0x20 }
  - { offsetInCU: 0x526A9, offset: 0x526A9, size: 0x8, addend: 0x0, symName: __ZNSt3__117__compressed_pairIfNS_8equal_toIyEEE5firstB7v160006Ev, symObjAddr: 0x257B0, symBinAddr: 0x100029EF0, symSize: 0x20 }
  - { offsetInCU: 0x526CF, offset: 0x526CF, size: 0x8, addend: 0x0, symName: __ZNSt3__122__compressed_pair_elemIfLi0ELb0EE5__getB7v160006Ev, symObjAddr: 0x257D0, symBinAddr: 0x100029F10, symSize: 0x10 }
  - { offsetInCU: 0x526F5, offset: 0x526F5, size: 0x8, addend: 0x0, symName: __ZNSt3__112__hash_tableIyNS_4hashIyEENS_8equal_toIyEENS_9allocatorIyEEE8__rehashILb1EEEvm, symObjAddr: 0x257E0, symBinAddr: 0x100029F20, symSize: 0x230 }
  - { offsetInCU: 0x52745, offset: 0x52745, size: 0x8, addend: 0x0, symName: __ZNSt3__112__hash_tableIyNS_4hashIyEENS_8equal_toIyEENS_9allocatorIyEEE11__do_rehashILb1EEEvm, symObjAddr: 0x25A10, symBinAddr: 0x10002A150, symSize: 0x260 }
  - { offsetInCU: 0x52828, offset: 0x52828, size: 0x8, addend: 0x0, symName: __ZNSt3__110unique_ptrIA_PNS_16__hash_node_baseIPNS_11__hash_nodeIyPvEEEENS_25__bucket_list_deallocatorINS_9allocatorIS7_EEEEE11get_deleterB7v160006Ev, symObjAddr: 0x25CE0, symBinAddr: 0x10002A420, symSize: 0x20 }
  - { offsetInCU: 0x5284E, offset: 0x5284E, size: 0x8, addend: 0x0, symName: __ZNSt3__110unique_ptrIA_PNS_16__hash_node_baseIPNS_11__hash_nodeIyPvEEEENS_25__bucket_list_deallocatorINS_9allocatorIS7_EEEEE5resetB7v160006IPS7_EENS_9enable_ifIXsr28_CheckArrayPointerConversionIT_EE5valueEvE4typeESH_, symObjAddr: 0x25D00, symBinAddr: 0x10002A440, symSize: 0x70 }
  - { offsetInCU: 0x5289B, offset: 0x5289B, size: 0x8, addend: 0x0, symName: __ZNSt3__116allocator_traitsINS_9allocatorIPNS_16__hash_node_baseIPNS_11__hash_nodeIyPvEEEEEEE8allocateB7v160006ERS9_m, symObjAddr: 0x25D70, symBinAddr: 0x10002A4B0, symSize: 0x30 }
  - { offsetInCU: 0x528CE, offset: 0x528CE, size: 0x8, addend: 0x0, symName: __ZNSt3__19allocatorIPNS_16__hash_node_baseIPNS_11__hash_nodeIyPvEEEEE8allocateB7v160006Em, symObjAddr: 0x25DA0, symBinAddr: 0x10002A4E0, symSize: 0x50 }
  - { offsetInCU: 0x5290E, offset: 0x5290E, size: 0x8, addend: 0x0, symName: __ZNSt3__116allocator_traitsINS_9allocatorIPNS_16__hash_node_baseIPNS_11__hash_nodeIyPvEEEEEEE8max_sizeB7v160006IS9_vEEmRKS9_, symObjAddr: 0x25DF0, symBinAddr: 0x10002A530, symSize: 0x20 }
  - { offsetInCU: 0x5293C, offset: 0x5293C, size: 0x8, addend: 0x0, symName: __ZNKSt3__19allocatorIPNS_16__hash_node_baseIPNS_11__hash_nodeIyPvEEEEE8max_sizeB7v160006Ev, symObjAddr: 0x25E10, symBinAddr: 0x10002A550, symSize: 0x20 }
  - { offsetInCU: 0x52962, offset: 0x52962, size: 0x8, addend: 0x0, symName: __ZNKSt3__117__compressed_pairIPNS_11__hash_nodeIyPvEENS_22__hash_node_destructorINS_9allocatorIS3_EEEEE5firstB7v160006Ev, symObjAddr: 0x25E50, symBinAddr: 0x10002A590, symSize: 0x20 }
  - { offsetInCU: 0x52988, offset: 0x52988, size: 0x8, addend: 0x0, symName: __ZNKSt3__122__compressed_pair_elemIPNS_11__hash_nodeIyPvEELi0ELb0EE5__getB7v160006Ev, symObjAddr: 0x25E70, symBinAddr: 0x10002A5B0, symSize: 0x10 }
  - { offsetInCU: 0x529AE, offset: 0x529AE, size: 0x8, addend: 0x0, symName: __ZNSt3__117__compressed_pairIPNS_11__hash_nodeIyPvEENS_22__hash_node_destructorINS_9allocatorIS3_EEEEE5firstB7v160006Ev, symObjAddr: 0x25E80, symBinAddr: 0x10002A5C0, symSize: 0x20 }
  - { offsetInCU: 0x529D4, offset: 0x529D4, size: 0x8, addend: 0x0, symName: __ZNSt3__122__compressed_pair_elemIPNS_11__hash_nodeIyPvEELi0ELb0EE5__getB7v160006Ev, symObjAddr: 0x25EA0, symBinAddr: 0x10002A5E0, symSize: 0x10 }
  - { offsetInCU: 0x529FA, offset: 0x529FA, size: 0x8, addend: 0x0, symName: __ZNSt3__110unique_ptrINS_11__hash_nodeIyPvEENS_22__hash_node_destructorINS_9allocatorIS3_EEEEED2B7v160006Ev, symObjAddr: 0x25EB0, symBinAddr: 0x10002A5F0, symSize: 0x20 }
  - { offsetInCU: 0x52A24, offset: 0x52A24, size: 0x8, addend: 0x0, symName: __ZNSt3__110unique_ptrINS_11__hash_nodeIyPvEENS_22__hash_node_destructorINS_9allocatorIS3_EEEEE5resetB7v160006EPS3_, symObjAddr: 0x25ED0, symBinAddr: 0x10002A610, symSize: 0x70 }
  - { offsetInCU: 0x52A68, offset: 0x52A68, size: 0x8, addend: 0x0, symName: __ZNSt3__122__hash_node_destructorINS_9allocatorINS_11__hash_nodeIyPvEEEEEclB7v160006EPS4_, symObjAddr: 0x25F40, symBinAddr: 0x10002A680, symSize: 0x70 }
  - { offsetInCU: 0x52A9D, offset: 0x52A9D, size: 0x8, addend: 0x0, symName: __ZNSt3__14pairINS_15__hash_iteratorIPNS_11__hash_nodeIyPvEEEEbEC2B7v160006IS6_RbLS3_0EEEOT_OT0_, symObjAddr: 0x25FB0, symBinAddr: 0x10002A6F0, symSize: 0x30 }
  - { offsetInCU: 0x52AFD, offset: 0x52AFD, size: 0x8, addend: 0x0, symName: __ZNSt3__14pairINS_21__hash_const_iteratorIPNS_11__hash_nodeIyPvEEEEbEC2B7v160006INS_15__hash_iteratorIS5_EEbLS3_0EEEONS0_IT_T0_EE, symObjAddr: 0x25FE0, symBinAddr: 0x10002A720, symSize: 0x40 }
  - { offsetInCU: 0x52B4E, offset: 0x52B4E, size: 0x8, addend: 0x0, symName: __ZNKSt3__113__atomic_baseIbLb0EE4loadB7v160006ENS_12memory_orderE, symObjAddr: 0x26020, symBinAddr: 0x10002A760, symSize: 0x30 }
  - { offsetInCU: 0x52B83, offset: 0x52B83, size: 0x8, addend: 0x0, symName: __ZNSt3__13setIN7doctest6detail8TestCaseENS_4lessIS3_EENS_9allocatorIS3_EEEC2B7v160006Ev, symObjAddr: 0x260C0, symBinAddr: 0x10002A800, symSize: 0x20 }
  - { offsetInCU: 0x52BAD, offset: 0x52BAD, size: 0x8, addend: 0x0, symName: __ZNSt3__16__treeIN7doctest6detail8TestCaseENS_4lessIS3_EENS_9allocatorIS3_EEEC1ERKS5_, symObjAddr: 0x260E0, symBinAddr: 0x10002A820, symSize: 0x30 }
  - { offsetInCU: 0x52BE8, offset: 0x52BE8, size: 0x8, addend: 0x0, symName: __ZNSt3__16__treeIN7doctest6detail8TestCaseENS_4lessIS3_EENS_9allocatorIS3_EEEC2ERKS5_, symObjAddr: 0x26110, symBinAddr: 0x10002A850, symSize: 0x80 }
  - { offsetInCU: 0x52C23, offset: 0x52C23, size: 0x8, addend: 0x0, symName: __ZNSt3__117__compressed_pairINS_15__tree_end_nodeIPNS_16__tree_node_baseIPvEEEENS_9allocatorINS_11__tree_nodeIN7doctest6detail8TestCaseES3_EEEEEC1B7v160006ILb1EvEEv, symObjAddr: 0x26190, symBinAddr: 0x10002A8D0, symSize: 0x20 }
  - { offsetInCU: 0x52C58, offset: 0x52C58, size: 0x8, addend: 0x0, symName: __ZNSt3__117__compressed_pairImNS_4lessIN7doctest6detail8TestCaseEEEEC1B7v160006IiRKS5_EEOT_OT0_, symObjAddr: 0x261B0, symBinAddr: 0x10002A8F0, symSize: 0x30 }
  - { offsetInCU: 0x52CB2, offset: 0x52CB2, size: 0x8, addend: 0x0, symName: __ZNSt3__16__treeIN7doctest6detail8TestCaseENS_4lessIS3_EENS_9allocatorIS3_EEE10__end_nodeB7v160006Ev, symObjAddr: 0x261E0, symBinAddr: 0x10002A920, symSize: 0x30 }
  - { offsetInCU: 0x52CD8, offset: 0x52CD8, size: 0x8, addend: 0x0, symName: __ZNSt3__16__treeIN7doctest6detail8TestCaseENS_4lessIS3_EENS_9allocatorIS3_EEE12__begin_nodeB7v160006Ev, symObjAddr: 0x26210, symBinAddr: 0x10002A950, symSize: 0x10 }
  - { offsetInCU: 0x52CFE, offset: 0x52CFE, size: 0x8, addend: 0x0, symName: __ZNSt3__117__compressed_pairINS_15__tree_end_nodeIPNS_16__tree_node_baseIPvEEEENS_9allocatorINS_11__tree_nodeIN7doctest6detail8TestCaseES3_EEEEEC2B7v160006ILb1EvEEv, symObjAddr: 0x26220, symBinAddr: 0x10002A960, symSize: 0x30 }
  - { offsetInCU: 0x52D33, offset: 0x52D33, size: 0x8, addend: 0x0, symName: __ZNSt3__122__compressed_pair_elemINS_9allocatorINS_11__tree_nodeIN7doctest6detail8TestCaseEPvEEEELi1ELb1EEC2B7v160006ENS_16__value_init_tagE, symObjAddr: 0x26250, symBinAddr: 0x10002A990, symSize: 0x20 }
  - { offsetInCU: 0x52D68, offset: 0x52D68, size: 0x8, addend: 0x0, symName: __ZNSt3__19allocatorINS_11__tree_nodeIN7doctest6detail8TestCaseEPvEEEC2B7v160006Ev, symObjAddr: 0x26270, symBinAddr: 0x10002A9B0, symSize: 0x20 }
  - { offsetInCU: 0x52D92, offset: 0x52D92, size: 0x8, addend: 0x0, symName: __ZNSt3__116__non_trivial_ifILb1ENS_9allocatorINS_11__tree_nodeIN7doctest6detail8TestCaseEPvEEEEEC2B7v160006Ev, symObjAddr: 0x26290, symBinAddr: 0x10002A9D0, symSize: 0x10 }
  - { offsetInCU: 0x52DBC, offset: 0x52DBC, size: 0x8, addend: 0x0, symName: __ZNSt3__117__compressed_pairImNS_4lessIN7doctest6detail8TestCaseEEEEC2B7v160006IiRKS5_EEOT_OT0_, symObjAddr: 0x262A0, symBinAddr: 0x10002A9E0, symSize: 0x40 }
  - { offsetInCU: 0x52E16, offset: 0x52E16, size: 0x8, addend: 0x0, symName: __ZNSt3__122__compressed_pair_elemINS_4lessIN7doctest6detail8TestCaseEEELi1ELb1EEC2B7v160006IRKS5_vEEOT_, symObjAddr: 0x262E0, symBinAddr: 0x10002AA20, symSize: 0x10 }
  - { offsetInCU: 0x52E59, offset: 0x52E59, size: 0x8, addend: 0x0, symName: __ZNSt3__117__compressed_pairINS_15__tree_end_nodeIPNS_16__tree_node_baseIPvEEEENS_9allocatorINS_11__tree_nodeIN7doctest6detail8TestCaseES3_EEEEE5firstB7v160006Ev, symObjAddr: 0x262F0, symBinAddr: 0x10002AA30, symSize: 0x20 }
  - { offsetInCU: 0x52E7F, offset: 0x52E7F, size: 0x8, addend: 0x0, symName: __ZNSt3__13setIN7doctest6detail8TestCaseENS_4lessIS3_EENS_9allocatorIS3_EEED2B7v160006Ev, symObjAddr: 0x26310, symBinAddr: 0x10002AA50, symSize: 0x20 }
  - { offsetInCU: 0x52EA9, offset: 0x52EA9, size: 0x8, addend: 0x0, symName: __ZNSt3__16__treeIN7doctest6detail8TestCaseENS_4lessIS3_EENS_9allocatorIS3_EEED1Ev, symObjAddr: 0x26330, symBinAddr: 0x10002AA70, symSize: 0x20 }
  - { offsetInCU: 0x52ED5, offset: 0x52ED5, size: 0x8, addend: 0x0, symName: __ZNSt3__16__treeIN7doctest6detail8TestCaseENS_4lessIS3_EENS_9allocatorIS3_EEED2Ev, symObjAddr: 0x26350, symBinAddr: 0x10002AA90, symSize: 0x30 }
  - { offsetInCU: 0x52F01, offset: 0x52F01, size: 0x8, addend: 0x0, symName: __ZNSt3__16__treeIN7doctest6detail8TestCaseENS_4lessIS3_EENS_9allocatorIS3_EEE7destroyEPNS_11__tree_nodeIS3_PvEE, symObjAddr: 0x26380, symBinAddr: 0x10002AAC0, symSize: 0xB0 }
  - { offsetInCU: 0x52F4D, offset: 0x52F4D, size: 0x8, addend: 0x0, symName: __ZNKSt3__16__treeIN7doctest6detail8TestCaseENS_4lessIS3_EENS_9allocatorIS3_EEE6__rootB7v160006Ev, symObjAddr: 0x26430, symBinAddr: 0x10002AB70, symSize: 0x20 }
  - { offsetInCU: 0x52F73, offset: 0x52F73, size: 0x8, addend: 0x0, symName: __ZNSt3__16__treeIN7doctest6detail8TestCaseENS_4lessIS3_EENS_9allocatorIS3_EEE12__node_allocB7v160006Ev, symObjAddr: 0x26450, symBinAddr: 0x10002AB90, symSize: 0x20 }
  - { offsetInCU: 0x52F99, offset: 0x52F99, size: 0x8, addend: 0x0, symName: __ZNSt3__116allocator_traitsINS_9allocatorINS_11__tree_nodeIN7doctest6detail8TestCaseEPvEEEEE7destroyB7v160006IS5_vvEEvRS8_PT_, symObjAddr: 0x26470, symBinAddr: 0x10002ABB0, symSize: 0x20 }
  - { offsetInCU: 0x52FD3, offset: 0x52FD3, size: 0x8, addend: 0x0, symName: __ZNSt3__122__tree_key_value_typesIN7doctest6detail8TestCaseEE9__get_ptrB7v160006ERS3_, symObjAddr: 0x26490, symBinAddr: 0x10002ABD0, symSize: 0x10 }
  - { offsetInCU: 0x52FF7, offset: 0x52FF7, size: 0x8, addend: 0x0, symName: __ZNSt3__116allocator_traitsINS_9allocatorINS_11__tree_nodeIN7doctest6detail8TestCaseEPvEEEEE10deallocateB7v160006ERS8_PS7_m, symObjAddr: 0x264A0, symBinAddr: 0x10002ABE0, symSize: 0x30 }
  - { offsetInCU: 0x53039, offset: 0x53039, size: 0x8, addend: 0x0, symName: __ZNSt3__117__compressed_pairINS_15__tree_end_nodeIPNS_16__tree_node_baseIPvEEEENS_9allocatorINS_11__tree_nodeIN7doctest6detail8TestCaseES3_EEEEE6secondB7v160006Ev, symObjAddr: 0x264D0, symBinAddr: 0x10002AC10, symSize: 0x20 }
  - { offsetInCU: 0x5305F, offset: 0x5305F, size: 0x8, addend: 0x0, symName: __ZNSt3__122__compressed_pair_elemINS_9allocatorINS_11__tree_nodeIN7doctest6detail8TestCaseEPvEEEELi1ELb1EE5__getB7v160006Ev, symObjAddr: 0x264F0, symBinAddr: 0x10002AC30, symSize: 0x10 }
  - { offsetInCU: 0x53085, offset: 0x53085, size: 0x8, addend: 0x0, symName: __ZNSt3__19allocatorINS_11__tree_nodeIN7doctest6detail8TestCaseEPvEEE10deallocateB7v160006EPS6_m, symObjAddr: 0x26500, symBinAddr: 0x10002AC40, symSize: 0x40 }
  - { offsetInCU: 0x530C9, offset: 0x530C9, size: 0x8, addend: 0x0, symName: __ZNKSt3__16__treeIN7doctest6detail8TestCaseENS_4lessIS3_EENS_9allocatorIS3_EEE10__end_nodeB7v160006Ev, symObjAddr: 0x26540, symBinAddr: 0x10002AC80, symSize: 0x30 }
  - { offsetInCU: 0x530EF, offset: 0x530EF, size: 0x8, addend: 0x0, symName: __ZNKSt3__117__compressed_pairINS_15__tree_end_nodeIPNS_16__tree_node_baseIPvEEEENS_9allocatorINS_11__tree_nodeIN7doctest6detail8TestCaseES3_EEEEE5firstB7v160006Ev, symObjAddr: 0x26570, symBinAddr: 0x10002ACB0, symSize: 0x20 }
  - { offsetInCU: 0x53115, offset: 0x53115, size: 0x8, addend: 0x0, symName: __ZNSt3__16vectorIPKN7doctest6detail20IExceptionTranslatorENS_9allocatorIS5_EEE11__make_iterB7v160006EPS5_, symObjAddr: 0x26590, symBinAddr: 0x10002ACD0, symSize: 0x30 }
  - { offsetInCU: 0x5314A, offset: 0x5314A, size: 0x8, addend: 0x0, symName: __ZNSt3__111__wrap_iterIPPKN7doctest6detail20IExceptionTranslatorEEC1B7v160006EPKvS6_, symObjAddr: 0x265C0, symBinAddr: 0x10002AD00, symSize: 0x30 }
  - { offsetInCU: 0x53192, offset: 0x53192, size: 0x8, addend: 0x0, symName: __ZNSt3__111__wrap_iterIPPKN7doctest6detail20IExceptionTranslatorEEC2B7v160006EPKvS6_, symObjAddr: 0x265F0, symBinAddr: 0x10002AD30, symSize: 0x20 }
  - { offsetInCU: 0x531DA, offset: 0x531DA, size: 0x8, addend: 0x0, symName: __ZNSt3__16__treeIN7doctest6detail8TestCaseENS_4lessIS3_EENS_9allocatorIS3_EEE15__insert_uniqueB7v160006ERKS3_, symObjAddr: 0x26610, symBinAddr: 0x10002AD50, symSize: 0x50 }
  - { offsetInCU: 0x5320F, offset: 0x5320F, size: 0x8, addend: 0x0, symName: __ZNSt3__14pairINS_21__tree_const_iteratorIN7doctest6detail8TestCaseEPNS_11__tree_nodeIS4_PvEElEEbEC1B7v160006INS_15__tree_iteratorIS4_S8_lEEbLS6_0EEEONS0_IT_T0_EE, symObjAddr: 0x26660, symBinAddr: 0x10002ADA0, symSize: 0x30 }
  - { offsetInCU: 0x53260, offset: 0x53260, size: 0x8, addend: 0x0, symName: __ZNSt3__16__treeIN7doctest6detail8TestCaseENS_4lessIS3_EENS_9allocatorIS3_EEE25__emplace_unique_key_argsIS3_JRKS3_EEENS_4pairINS_15__tree_iteratorIS3_PNS_11__tree_nodeIS3_PvEElEEbEERKT_DpOT0_, symObjAddr: 0x26690, symBinAddr: 0x10002ADD0, symSize: 0xE0 }
  - { offsetInCU: 0x53315, offset: 0x53315, size: 0x8, addend: 0x0, symName: __ZNSt3__122__tree_key_value_typesIN7doctest6detail8TestCaseEE9__get_keyB7v160006ERKS3_, symObjAddr: 0x26770, symBinAddr: 0x10002AEB0, symSize: 0x10 }
  - { offsetInCU: 0x53339, offset: 0x53339, size: 0x8, addend: 0x0, symName: __ZNSt3__16__treeIN7doctest6detail8TestCaseENS_4lessIS3_EENS_9allocatorIS3_EEE12__find_equalIS3_EERPNS_16__tree_node_baseIPvEERPNS_15__tree_end_nodeISD_EERKT_, symObjAddr: 0x26780, symBinAddr: 0x10002AEC0, symSize: 0x180 }
  - { offsetInCU: 0x533A6, offset: 0x533A6, size: 0x8, addend: 0x0, symName: __ZNSt3__16__treeIN7doctest6detail8TestCaseENS_4lessIS3_EENS_9allocatorIS3_EEE16__construct_nodeIJRKS3_EEENS_10unique_ptrINS_11__tree_nodeIS3_PvEENS_22__tree_node_destructorINS6_ISF_EEEEEEDpOT_, symObjAddr: 0x26900, symBinAddr: 0x10002B040, symSize: 0xF0 }
  - { offsetInCU: 0x53407, offset: 0x53407, size: 0x8, addend: 0x0, symName: __ZNSt3__16__treeIN7doctest6detail8TestCaseENS_4lessIS3_EENS_9allocatorIS3_EEE16__insert_node_atEPNS_15__tree_end_nodeIPNS_16__tree_node_baseIPvEEEERSD_SD_, symObjAddr: 0x269F0, symBinAddr: 0x10002B130, symSize: 0xC0 }
  - { offsetInCU: 0x5345C, offset: 0x5345C, size: 0x8, addend: 0x0, symName: __ZNKSt3__110unique_ptrINS_11__tree_nodeIN7doctest6detail8TestCaseEPvEENS_22__tree_node_destructorINS_9allocatorIS6_EEEEE3getB7v160006Ev, symObjAddr: 0x26AB0, symBinAddr: 0x10002B1F0, symSize: 0x20 }
  - { offsetInCU: 0x53482, offset: 0x53482, size: 0x8, addend: 0x0, symName: __ZNSt3__110unique_ptrINS_11__tree_nodeIN7doctest6detail8TestCaseEPvEENS_22__tree_node_destructorINS_9allocatorIS6_EEEEE7releaseB7v160006Ev, symObjAddr: 0x26AD0, symBinAddr: 0x10002B210, symSize: 0x40 }
  - { offsetInCU: 0x534B7, offset: 0x534B7, size: 0x8, addend: 0x0, symName: __ZNSt3__110unique_ptrINS_11__tree_nodeIN7doctest6detail8TestCaseEPvEENS_22__tree_node_destructorINS_9allocatorIS6_EEEEED1B7v160006Ev, symObjAddr: 0x26B10, symBinAddr: 0x10002B250, symSize: 0x20 }
  - { offsetInCU: 0x534E1, offset: 0x534E1, size: 0x8, addend: 0x0, symName: __ZNSt3__115__tree_iteratorIN7doctest6detail8TestCaseEPNS_11__tree_nodeIS3_PvEElEC1B7v160006ES7_, symObjAddr: 0x26B30, symBinAddr: 0x10002B270, symSize: 0x30 }
  - { offsetInCU: 0x53520, offset: 0x53520, size: 0x8, addend: 0x0, symName: __ZNSt3__14pairINS_15__tree_iteratorIN7doctest6detail8TestCaseEPNS_11__tree_nodeIS4_PvEElEEbEC1B7v160006IS9_RbLS6_0EEEOT_OT0_, symObjAddr: 0x26B60, symBinAddr: 0x10002B2A0, symSize: 0x30 }
  - { offsetInCU: 0x53580, offset: 0x53580, size: 0x8, addend: 0x0, symName: __ZNKSt3__16__treeIN7doctest6detail8TestCaseENS_4lessIS3_EENS_9allocatorIS3_EEE10__root_ptrEv, symObjAddr: 0x26B90, symBinAddr: 0x10002B2D0, symSize: 0x20 }
  - { offsetInCU: 0x535A6, offset: 0x535A6, size: 0x8, addend: 0x0, symName: __ZNSt3__16__treeIN7doctest6detail8TestCaseENS_4lessIS3_EENS_9allocatorIS3_EEE10value_compB7v160006Ev, symObjAddr: 0x26BB0, symBinAddr: 0x10002B2F0, symSize: 0x20 }
  - { offsetInCU: 0x535CC, offset: 0x535CC, size: 0x8, addend: 0x0, symName: __ZNKSt3__14lessIN7doctest6detail8TestCaseEEclB7v160006ERKS3_S6_, symObjAddr: 0x26BD0, symBinAddr: 0x10002B310, symSize: 0x30 }
  - { offsetInCU: 0x53610, offset: 0x53610, size: 0x8, addend: 0x0, symName: __ZNSt3__117__compressed_pairImNS_4lessIN7doctest6detail8TestCaseEEEE6secondB7v160006Ev, symObjAddr: 0x26C00, symBinAddr: 0x10002B340, symSize: 0x20 }
  - { offsetInCU: 0x53636, offset: 0x53636, size: 0x8, addend: 0x0, symName: __ZNSt3__122__compressed_pair_elemINS_4lessIN7doctest6detail8TestCaseEEELi1ELb1EE5__getB7v160006Ev, symObjAddr: 0x26C20, symBinAddr: 0x10002B360, symSize: 0x10 }
  - { offsetInCU: 0x5365C, offset: 0x5365C, size: 0x8, addend: 0x0, symName: __ZNSt3__116allocator_traitsINS_9allocatorINS_11__tree_nodeIN7doctest6detail8TestCaseEPvEEEEE8allocateB7v160006ERS8_m, symObjAddr: 0x26C30, symBinAddr: 0x10002B370, symSize: 0x30 }
  - { offsetInCU: 0x5368F, offset: 0x5368F, size: 0x8, addend: 0x0, symName: __ZNSt3__122__tree_node_destructorINS_9allocatorINS_11__tree_nodeIN7doctest6detail8TestCaseEPvEEEEEC1B7v160006ERS8_b, symObjAddr: 0x26C60, symBinAddr: 0x10002B3A0, symSize: 0x40 }
  - { offsetInCU: 0x536DD, offset: 0x536DD, size: 0x8, addend: 0x0, symName: __ZNSt3__110unique_ptrINS_11__tree_nodeIN7doctest6detail8TestCaseEPvEENS_22__tree_node_destructorINS_9allocatorIS6_EEEEEC1B7v160006ILb1EvEEPS6_NS_16__dependent_typeINS_27__unique_ptr_deleter_sfinaeISA_EEXT_EE20__good_rval_ref_typeE, symObjAddr: 0x26CA0, symBinAddr: 0x10002B3E0, symSize: 0x30 }
  - { offsetInCU: 0x53730, offset: 0x53730, size: 0x8, addend: 0x0, symName: __ZNSt3__116allocator_traitsINS_9allocatorINS_11__tree_nodeIN7doctest6detail8TestCaseEPvEEEEE9constructB7v160006IS5_JRKS5_EvEEvRS8_PT_DpOT0_, symObjAddr: 0x26CD0, symBinAddr: 0x10002B410, symSize: 0x30 }
  - { offsetInCU: 0x53787, offset: 0x53787, size: 0x8, addend: 0x0, symName: __ZNKSt3__110unique_ptrINS_11__tree_nodeIN7doctest6detail8TestCaseEPvEENS_22__tree_node_destructorINS_9allocatorIS6_EEEEEptB7v160006Ev, symObjAddr: 0x26D00, symBinAddr: 0x10002B440, symSize: 0x20 }
  - { offsetInCU: 0x537AD, offset: 0x537AD, size: 0x8, addend: 0x0, symName: __ZNSt3__110unique_ptrINS_11__tree_nodeIN7doctest6detail8TestCaseEPvEENS_22__tree_node_destructorINS_9allocatorIS6_EEEEE11get_deleterB7v160006Ev, symObjAddr: 0x26D20, symBinAddr: 0x10002B460, symSize: 0x20 }
  - { offsetInCU: 0x537D3, offset: 0x537D3, size: 0x8, addend: 0x0, symName: __ZNSt3__19allocatorINS_11__tree_nodeIN7doctest6detail8TestCaseEPvEEE8allocateB7v160006Em, symObjAddr: 0x26D40, symBinAddr: 0x10002B480, symSize: 0x50 }
  - { offsetInCU: 0x53813, offset: 0x53813, size: 0x8, addend: 0x0, symName: __ZNSt3__116allocator_traitsINS_9allocatorINS_11__tree_nodeIN7doctest6detail8TestCaseEPvEEEEE8max_sizeB7v160006IS8_vEEmRKS8_, symObjAddr: 0x26D90, symBinAddr: 0x10002B4D0, symSize: 0x20 }
  - { offsetInCU: 0x53841, offset: 0x53841, size: 0x8, addend: 0x0, symName: __ZNKSt3__19allocatorINS_11__tree_nodeIN7doctest6detail8TestCaseEPvEEE8max_sizeB7v160006Ev, symObjAddr: 0x26DB0, symBinAddr: 0x10002B4F0, symSize: 0x20 }
  - { offsetInCU: 0x53867, offset: 0x53867, size: 0x8, addend: 0x0, symName: __ZNSt3__122__tree_node_destructorINS_9allocatorINS_11__tree_nodeIN7doctest6detail8TestCaseEPvEEEEEC2B7v160006ERS8_b, symObjAddr: 0x26DD0, symBinAddr: 0x10002B510, symSize: 0x30 }
  - { offsetInCU: 0x538AF, offset: 0x538AF, size: 0x8, addend: 0x0, symName: __ZNSt3__110unique_ptrINS_11__tree_nodeIN7doctest6detail8TestCaseEPvEENS_22__tree_node_destructorINS_9allocatorIS6_EEEEEC2B7v160006ILb1EvEEPS6_NS_16__dependent_typeINS_27__unique_ptr_deleter_sfinaeISA_EEXT_EE20__good_rval_ref_typeE, symObjAddr: 0x26E00, symBinAddr: 0x10002B540, symSize: 0x40 }
  - { offsetInCU: 0x53902, offset: 0x53902, size: 0x8, addend: 0x0, symName: __ZNSt3__117__compressed_pairIPNS_11__tree_nodeIN7doctest6detail8TestCaseEPvEENS_22__tree_node_destructorINS_9allocatorIS6_EEEEEC1B7v160006IRS7_SB_EEOT_OT0_, symObjAddr: 0x26E40, symBinAddr: 0x10002B580, symSize: 0x30 }
  - { offsetInCU: 0x5395C, offset: 0x5395C, size: 0x8, addend: 0x0, symName: __ZNSt3__117__compressed_pairIPNS_11__tree_nodeIN7doctest6detail8TestCaseEPvEENS_22__tree_node_destructorINS_9allocatorIS6_EEEEEC2B7v160006IRS7_SB_EEOT_OT0_, symObjAddr: 0x26E70, symBinAddr: 0x10002B5B0, symSize: 0x40 }
  - { offsetInCU: 0x539B6, offset: 0x539B6, size: 0x8, addend: 0x0, symName: __ZNSt3__122__compressed_pair_elemIPNS_11__tree_nodeIN7doctest6detail8TestCaseEPvEELi0ELb0EEC2B7v160006IRS7_vEEOT_, symObjAddr: 0x26EB0, symBinAddr: 0x10002B5F0, symSize: 0x20 }
  - { offsetInCU: 0x539F9, offset: 0x539F9, size: 0x8, addend: 0x0, symName: __ZNSt3__122__compressed_pair_elemINS_22__tree_node_destructorINS_9allocatorINS_11__tree_nodeIN7doctest6detail8TestCaseEPvEEEEEELi1ELb0EEC2B7v160006ISA_vEEOT_, symObjAddr: 0x26ED0, symBinAddr: 0x10002B610, symSize: 0x30 }
  - { offsetInCU: 0x53A3C, offset: 0x53A3C, size: 0x8, addend: 0x0, symName: __ZNSt3__19allocatorINS_11__tree_nodeIN7doctest6detail8TestCaseEPvEEE9constructB7v160006IS4_JRKS4_EEEvPT_DpOT0_, symObjAddr: 0x26F00, symBinAddr: 0x10002B640, symSize: 0x30 }
  - { offsetInCU: 0x53A94, offset: 0x53A94, size: 0x8, addend: 0x0, symName: __ZNKSt3__117__compressed_pairIPNS_11__tree_nodeIN7doctest6detail8TestCaseEPvEENS_22__tree_node_destructorINS_9allocatorIS6_EEEEE5firstB7v160006Ev, symObjAddr: 0x26F30, symBinAddr: 0x10002B670, symSize: 0x20 }
  - { offsetInCU: 0x53ABA, offset: 0x53ABA, size: 0x8, addend: 0x0, symName: __ZNKSt3__122__compressed_pair_elemIPNS_11__tree_nodeIN7doctest6detail8TestCaseEPvEELi0ELb0EE5__getB7v160006Ev, symObjAddr: 0x26F50, symBinAddr: 0x10002B690, symSize: 0x10 }
  - { offsetInCU: 0x53AE0, offset: 0x53AE0, size: 0x8, addend: 0x0, symName: __ZNSt3__117__compressed_pairIPNS_11__tree_nodeIN7doctest6detail8TestCaseEPvEENS_22__tree_node_destructorINS_9allocatorIS6_EEEEE6secondB7v160006Ev, symObjAddr: 0x26F60, symBinAddr: 0x10002B6A0, symSize: 0x20 }
  - { offsetInCU: 0x53B06, offset: 0x53B06, size: 0x8, addend: 0x0, symName: __ZNSt3__122__compressed_pair_elemINS_22__tree_node_destructorINS_9allocatorINS_11__tree_nodeIN7doctest6detail8TestCaseEPvEEEEEELi1ELb0EE5__getB7v160006Ev, symObjAddr: 0x26F80, symBinAddr: 0x10002B6C0, symSize: 0x10 }
  - { offsetInCU: 0x53B2C, offset: 0x53B2C, size: 0x8, addend: 0x0, symName: __ZNSt3__16__treeIN7doctest6detail8TestCaseENS_4lessIS3_EENS_9allocatorIS3_EEE4sizeB7v160006Ev, symObjAddr: 0x272B0, symBinAddr: 0x10002B9F0, symSize: 0x20 }
  - { offsetInCU: 0x53B52, offset: 0x53B52, size: 0x8, addend: 0x0, symName: __ZNKSt3__116__tree_node_baseIPvE15__parent_unsafeB7v160006Ev, symObjAddr: 0x272D0, symBinAddr: 0x10002BA10, symSize: 0x20 }
  - { offsetInCU: 0x53B78, offset: 0x53B78, size: 0x8, addend: 0x0, symName: __ZNSt3__116__tree_node_baseIPvE12__set_parentB7v160006EPS2_, symObjAddr: 0x274B0, symBinAddr: 0x10002BBF0, symSize: 0x20 }
  - { offsetInCU: 0x53BAD, offset: 0x53BAD, size: 0x8, addend: 0x0, symName: __ZNSt3__117__compressed_pairImNS_4lessIN7doctest6detail8TestCaseEEEE5firstB7v160006Ev, symObjAddr: 0x274D0, symBinAddr: 0x10002BC10, symSize: 0x20 }
  - { offsetInCU: 0x53BD3, offset: 0x53BD3, size: 0x8, addend: 0x0, symName: __ZNSt3__117__compressed_pairIPNS_11__tree_nodeIN7doctest6detail8TestCaseEPvEENS_22__tree_node_destructorINS_9allocatorIS6_EEEEE5firstB7v160006Ev, symObjAddr: 0x274F0, symBinAddr: 0x10002BC30, symSize: 0x20 }
  - { offsetInCU: 0x53BF9, offset: 0x53BF9, size: 0x8, addend: 0x0, symName: __ZNSt3__122__compressed_pair_elemIPNS_11__tree_nodeIN7doctest6detail8TestCaseEPvEELi0ELb0EE5__getB7v160006Ev, symObjAddr: 0x27510, symBinAddr: 0x10002BC50, symSize: 0x10 }
  - { offsetInCU: 0x53C1F, offset: 0x53C1F, size: 0x8, addend: 0x0, symName: __ZNSt3__110unique_ptrINS_11__tree_nodeIN7doctest6detail8TestCaseEPvEENS_22__tree_node_destructorINS_9allocatorIS6_EEEEED2B7v160006Ev, symObjAddr: 0x27520, symBinAddr: 0x10002BC60, symSize: 0x20 }
  - { offsetInCU: 0x53C49, offset: 0x53C49, size: 0x8, addend: 0x0, symName: __ZNSt3__110unique_ptrINS_11__tree_nodeIN7doctest6detail8TestCaseEPvEENS_22__tree_node_destructorINS_9allocatorIS6_EEEEE5resetB7v160006EPS6_, symObjAddr: 0x27540, symBinAddr: 0x10002BC80, symSize: 0x70 }
  - { offsetInCU: 0x53C8D, offset: 0x53C8D, size: 0x8, addend: 0x0, symName: __ZNSt3__122__tree_node_destructorINS_9allocatorINS_11__tree_nodeIN7doctest6detail8TestCaseEPvEEEEEclB7v160006EPS7_, symObjAddr: 0x275B0, symBinAddr: 0x10002BCF0, symSize: 0x70 }
  - { offsetInCU: 0x53CC2, offset: 0x53CC2, size: 0x8, addend: 0x0, symName: __ZNSt3__115__tree_iteratorIN7doctest6detail8TestCaseEPNS_11__tree_nodeIS3_PvEElEC2B7v160006ES7_, symObjAddr: 0x27620, symBinAddr: 0x10002BD60, symSize: 0x20 }
  - { offsetInCU: 0x53CFB, offset: 0x53CFB, size: 0x8, addend: 0x0, symName: __ZNSt3__14pairINS_15__tree_iteratorIN7doctest6detail8TestCaseEPNS_11__tree_nodeIS4_PvEElEEbEC2B7v160006IS9_RbLS6_0EEEOT_OT0_, symObjAddr: 0x27640, symBinAddr: 0x10002BD80, symSize: 0x30 }
  - { offsetInCU: 0x53D5B, offset: 0x53D5B, size: 0x8, addend: 0x0, symName: __ZNSt3__14pairINS_21__tree_const_iteratorIN7doctest6detail8TestCaseEPNS_11__tree_nodeIS4_PvEElEEbEC2B7v160006INS_15__tree_iteratorIS4_S8_lEEbLS6_0EEEONS0_IT_T0_EE, symObjAddr: 0x27670, symBinAddr: 0x10002BDB0, symSize: 0x50 }
  - { offsetInCU: 0x53DAC, offset: 0x53DAC, size: 0x8, addend: 0x0, symName: __ZNSt3__121__tree_const_iteratorIN7doctest6detail8TestCaseEPNS_11__tree_nodeIS3_PvEElEC1B7v160006ENS_15__tree_iteratorIS3_S7_lEE, symObjAddr: 0x276C0, symBinAddr: 0x10002BE00, symSize: 0x30 }
  - { offsetInCU: 0x53DE5, offset: 0x53DE5, size: 0x8, addend: 0x0, symName: __ZNSt3__121__tree_const_iteratorIN7doctest6detail8TestCaseEPNS_11__tree_nodeIS3_PvEElEC2B7v160006ENS_15__tree_iteratorIS3_S7_lEE, symObjAddr: 0x276F0, symBinAddr: 0x10002BE30, symSize: 0x20 }
  - { offsetInCU: 0x53E1E, offset: 0x53E1E, size: 0x8, addend: 0x0, symName: __ZNSt3__16vectorIPKN7doctest6detail20IExceptionTranslatorENS_9allocatorIS5_EEE9__end_capB7v160006Ev, symObjAddr: 0x27710, symBinAddr: 0x10002BE50, symSize: 0x20 }
  - { offsetInCU: 0x53E44, offset: 0x53E44, size: 0x8, addend: 0x0, symName: __ZNSt3__16vectorIPKN7doctest6detail20IExceptionTranslatorENS_9allocatorIS5_EEE22__construct_one_at_endB7v160006IJRKS5_EEEvDpOT_, symObjAddr: 0x27730, symBinAddr: 0x10002BE70, symSize: 0x90 }
  - { offsetInCU: 0x53E93, offset: 0x53E93, size: 0x8, addend: 0x0, symName: __ZNSt3__16vectorIPKN7doctest6detail20IExceptionTranslatorENS_9allocatorIS5_EEE21__push_back_slow_pathIRKS5_EEvOT_, symObjAddr: 0x277C0, symBinAddr: 0x10002BF00, symSize: 0xD0 }
  - { offsetInCU: 0x53EF1, offset: 0x53EF1, size: 0x8, addend: 0x0, symName: __ZNSt3__117__compressed_pairIPPKN7doctest6detail20IExceptionTranslatorENS_9allocatorIS5_EEE5firstB7v160006Ev, symObjAddr: 0x27890, symBinAddr: 0x10002BFD0, symSize: 0x20 }
  - { offsetInCU: 0x53F17, offset: 0x53F17, size: 0x8, addend: 0x0, symName: __ZNSt3__122__compressed_pair_elemIPPKN7doctest6detail20IExceptionTranslatorELi0ELb0EE5__getB7v160006Ev, symObjAddr: 0x278B0, symBinAddr: 0x10002BFF0, symSize: 0x10 }
  - { offsetInCU: 0x53F59, offset: 0x53F59, size: 0x8, addend: 0x0, symName: __ZNSt3__16vectorIPKN7doctest6detail20IExceptionTranslatorENS_9allocatorIS5_EEE21_ConstructTransactionC1B7v160006ERS8_m, symObjAddr: 0x278C0, symBinAddr: 0x10002C000, symSize: 0x30 }
  - { offsetInCU: 0x53FA1, offset: 0x53FA1, size: 0x8, addend: 0x0, symName: __ZNSt3__116allocator_traitsINS_9allocatorIPKN7doctest6detail20IExceptionTranslatorEEEE9constructB7v160006IS6_JRKS6_EvEEvRS7_PT_DpOT0_, symObjAddr: 0x278F0, symBinAddr: 0x10002C030, symSize: 0x30 }
  - { offsetInCU: 0x53FF8, offset: 0x53FF8, size: 0x8, addend: 0x0, symName: __ZNSt3__16vectorIPKN7doctest6detail20IExceptionTranslatorENS_9allocatorIS5_EEE21_ConstructTransactionD1B7v160006Ev, symObjAddr: 0x27920, symBinAddr: 0x10002C060, symSize: 0x20 }
  - { offsetInCU: 0x54022, offset: 0x54022, size: 0x8, addend: 0x0, symName: __ZNSt3__16vectorIPKN7doctest6detail20IExceptionTranslatorENS_9allocatorIS5_EEE21_ConstructTransactionC2B7v160006ERS8_m, symObjAddr: 0x27940, symBinAddr: 0x10002C080, symSize: 0x40 }
  - { offsetInCU: 0x5406A, offset: 0x5406A, size: 0x8, addend: 0x0, symName: __ZNSt3__19allocatorIPKN7doctest6detail20IExceptionTranslatorEE9constructB7v160006IS5_JRKS5_EEEvPT_DpOT0_, symObjAddr: 0x27980, symBinAddr: 0x10002C0C0, symSize: 0x20 }
  - { offsetInCU: 0x540C2, offset: 0x540C2, size: 0x8, addend: 0x0, symName: __ZNSt3__16vectorIPKN7doctest6detail20IExceptionTranslatorENS_9allocatorIS5_EEE21_ConstructTransactionD2B7v160006Ev, symObjAddr: 0x279A0, symBinAddr: 0x10002C0E0, symSize: 0x20 }
  - { offsetInCU: 0x540EC, offset: 0x540EC, size: 0x8, addend: 0x0, symName: __ZNKSt3__16vectorIPKN7doctest6detail20IExceptionTranslatorENS_9allocatorIS5_EEE11__recommendB7v160006Em, symObjAddr: 0x279C0, symBinAddr: 0x10002C100, symSize: 0xA0 }
  - { offsetInCU: 0x54141, offset: 0x54141, size: 0x8, addend: 0x0, symName: __ZNSt3__114__split_bufferIPKN7doctest6detail20IExceptionTranslatorERNS_9allocatorIS5_EEEC1EmmS8_, symObjAddr: 0x27A60, symBinAddr: 0x10002C1A0, symSize: 0x40 }
  - { offsetInCU: 0x5419A, offset: 0x5419A, size: 0x8, addend: 0x0, symName: __ZNSt3__114__split_bufferIPKN7doctest6detail20IExceptionTranslatorERNS_9allocatorIS5_EEED1Ev, symObjAddr: 0x27BD0, symBinAddr: 0x10002C310, symSize: 0x20 }
  - { offsetInCU: 0x541C6, offset: 0x541C6, size: 0x8, addend: 0x0, symName: __ZNKSt3__16vectorIPKN7doctest6detail20IExceptionTranslatorENS_9allocatorIS5_EEE8max_sizeEv, symObjAddr: 0x27BF0, symBinAddr: 0x10002C330, symSize: 0x60 }
  - { offsetInCU: 0x541EE, offset: 0x541EE, size: 0x8, addend: 0x0, symName: __ZNKSt3__16vectorIPKN7doctest6detail20IExceptionTranslatorENS_9allocatorIS5_EEE20__throw_length_errorB7v160006Ev, symObjAddr: 0x27C50, symBinAddr: 0x10002C390, symSize: 0x20 }
  - { offsetInCU: 0x5421F, offset: 0x5421F, size: 0x8, addend: 0x0, symName: __ZNSt3__116allocator_traitsINS_9allocatorIPKN7doctest6detail20IExceptionTranslatorEEEE8max_sizeB7v160006IS7_vEEmRKS7_, symObjAddr: 0x27C70, symBinAddr: 0x10002C3B0, symSize: 0x20 }
  - { offsetInCU: 0x5424D, offset: 0x5424D, size: 0x8, addend: 0x0, symName: __ZNKSt3__16vectorIPKN7doctest6detail20IExceptionTranslatorENS_9allocatorIS5_EEE7__allocB7v160006Ev, symObjAddr: 0x27C90, symBinAddr: 0x10002C3D0, symSize: 0x20 }
  - { offsetInCU: 0x54273, offset: 0x54273, size: 0x8, addend: 0x0, symName: __ZNKSt3__19allocatorIPKN7doctest6detail20IExceptionTranslatorEE8max_sizeB7v160006Ev, symObjAddr: 0x27CB0, symBinAddr: 0x10002C3F0, symSize: 0x20 }
  - { offsetInCU: 0x54299, offset: 0x54299, size: 0x8, addend: 0x0, symName: __ZNKSt3__117__compressed_pairIPPKN7doctest6detail20IExceptionTranslatorENS_9allocatorIS5_EEE6secondB7v160006Ev, symObjAddr: 0x27CD0, symBinAddr: 0x10002C410, symSize: 0x20 }
  - { offsetInCU: 0x542BF, offset: 0x542BF, size: 0x8, addend: 0x0, symName: __ZNKSt3__122__compressed_pair_elemINS_9allocatorIPKN7doctest6detail20IExceptionTranslatorEEELi1ELb1EE5__getB7v160006Ev, symObjAddr: 0x27CF0, symBinAddr: 0x10002C430, symSize: 0x10 }
  - { offsetInCU: 0x542E5, offset: 0x542E5, size: 0x8, addend: 0x0, symName: __ZNSt3__114__split_bufferIPKN7doctest6detail20IExceptionTranslatorERNS_9allocatorIS5_EEEC2EmmS8_, symObjAddr: 0x27D00, symBinAddr: 0x10002C440, symSize: 0xD0 }
  - { offsetInCU: 0x5435B, offset: 0x5435B, size: 0x8, addend: 0x0, symName: __ZNSt3__117__compressed_pairIPPKN7doctest6detail20IExceptionTranslatorERNS_9allocatorIS5_EEEC1B7v160006IDnS9_EEOT_OT0_, symObjAddr: 0x27DD0, symBinAddr: 0x10002C510, symSize: 0x30 }
  - { offsetInCU: 0x543B5, offset: 0x543B5, size: 0x8, addend: 0x0, symName: __ZNSt3__114__split_bufferIPKN7doctest6detail20IExceptionTranslatorERNS_9allocatorIS5_EEE7__allocB7v160006Ev, symObjAddr: 0x27E40, symBinAddr: 0x10002C580, symSize: 0x20 }
  - { offsetInCU: 0x543DB, offset: 0x543DB, size: 0x8, addend: 0x0, symName: __ZNSt3__114__split_bufferIPKN7doctest6detail20IExceptionTranslatorERNS_9allocatorIS5_EEE9__end_capB7v160006Ev, symObjAddr: 0x27E60, symBinAddr: 0x10002C5A0, symSize: 0x20 }
  - { offsetInCU: 0x54401, offset: 0x54401, size: 0x8, addend: 0x0, symName: __ZNSt3__117__compressed_pairIPPKN7doctest6detail20IExceptionTranslatorERNS_9allocatorIS5_EEEC2B7v160006IDnS9_EEOT_OT0_, symObjAddr: 0x27E80, symBinAddr: 0x10002C5C0, symSize: 0x40 }
  - { offsetInCU: 0x5445B, offset: 0x5445B, size: 0x8, addend: 0x0, symName: __ZNSt3__122__compressed_pair_elemIRNS_9allocatorIPKN7doctest6detail20IExceptionTranslatorEEELi1ELb0EEC2B7v160006IS8_vEEOT_, symObjAddr: 0x27EC0, symBinAddr: 0x10002C600, symSize: 0x20 }
  - { offsetInCU: 0x5449E, offset: 0x5449E, size: 0x8, addend: 0x0, symName: __ZNSt3__19allocatorIPKN7doctest6detail20IExceptionTranslatorEE8allocateB7v160006Em, symObjAddr: 0x27EE0, symBinAddr: 0x10002C620, symSize: 0x50 }
  - { offsetInCU: 0x544D3, offset: 0x544D3, size: 0x8, addend: 0x0, symName: __ZNSt3__117__compressed_pairIPPKN7doctest6detail20IExceptionTranslatorERNS_9allocatorIS5_EEE6secondB7v160006Ev, symObjAddr: 0x27F30, symBinAddr: 0x10002C670, symSize: 0x20 }
  - { offsetInCU: 0x544F9, offset: 0x544F9, size: 0x8, addend: 0x0, symName: __ZNSt3__122__compressed_pair_elemIRNS_9allocatorIPKN7doctest6detail20IExceptionTranslatorEEELi1ELb0EE5__getB7v160006Ev, symObjAddr: 0x27F50, symBinAddr: 0x10002C690, symSize: 0x20 }
  - { offsetInCU: 0x5451F, offset: 0x5451F, size: 0x8, addend: 0x0, symName: __ZNSt3__117__compressed_pairIPPKN7doctest6detail20IExceptionTranslatorERNS_9allocatorIS5_EEE5firstB7v160006Ev, symObjAddr: 0x27F70, symBinAddr: 0x10002C6B0, symSize: 0x20 }
  - { offsetInCU: 0x54545, offset: 0x54545, size: 0x8, addend: 0x0, symName: __ZNSt3__116reverse_iteratorIPPKN7doctest6detail20IExceptionTranslatorEEC1B7v160006ES6_, symObjAddr: 0x28000, symBinAddr: 0x10002C740, symSize: 0x30 }
  - { offsetInCU: 0x5457E, offset: 0x5457E, size: 0x8, addend: 0x0, symName: __ZNKSt3__116reverse_iteratorIPPKN7doctest6detail20IExceptionTranslatorEE4baseB7v160006Ev, symObjAddr: 0x28030, symBinAddr: 0x10002C770, symSize: 0x20 }
  - { offsetInCU: 0x545A4, offset: 0x545A4, size: 0x8, addend: 0x0, symName: __ZNKSt3__16vectorIPKN7doctest6detail20IExceptionTranslatorENS_9allocatorIS5_EEE14__annotate_newB7v160006Em, symObjAddr: 0x28090, symBinAddr: 0x10002C7D0, symSize: 0xB0 }
  - { offsetInCU: 0x545F6, offset: 0x545F6, size: 0x8, addend: 0x0, symName: __ZNKSt3__111__move_loopINS_17_ClassicAlgPolicyEEclB7v160006INS_16reverse_iteratorIPPKN7doctest6detail20IExceptionTranslatorEEESB_SB_EENS_4pairIT_T1_EESD_T0_SE_, symObjAddr: 0x28590, symBinAddr: 0x10002CCD0, symSize: 0xA0 }
  - { offsetInCU: 0x5466A, offset: 0x5466A, size: 0x8, addend: 0x0, symName: __ZNSt3__18_IterOpsINS_17_ClassicAlgPolicyEE11__iter_moveB7v160006IRNS_16reverse_iteratorIPPKN7doctest6detail20IExceptionTranslatorEEEEENS_9enable_ifIXsr12is_referenceIDTdeclsr3stdE7declvalIRT_EEEEE5valueEDTclsr3stdE4movedeclsr3stdE7declvalISF_EEEEE4typeEOSE_, symObjAddr: 0x287B0, symBinAddr: 0x10002CEF0, symSize: 0x20 }
  - { offsetInCU: 0x54697, offset: 0x54697, size: 0x8, addend: 0x0, symName: __ZNKSt3__116reverse_iteratorIPPKN7doctest6detail20IExceptionTranslatorEEdeB7v160006Ev, symObjAddr: 0x287D0, symBinAddr: 0x10002CF10, symSize: 0x30 }
  - { offsetInCU: 0x546CC, offset: 0x546CC, size: 0x8, addend: 0x0, symName: __ZNSt3__116reverse_iteratorIPPKN7doctest6detail20IExceptionTranslatorEEppB7v160006Ev, symObjAddr: 0x28800, symBinAddr: 0x10002CF40, symSize: 0x20 }
  - { offsetInCU: 0x546F2, offset: 0x546F2, size: 0x8, addend: 0x0, symName: __ZNSt3__18_IterOpsINS_17_ClassicAlgPolicyEE25__validate_iter_referenceB7v160006IRNS_16reverse_iteratorIPPKN7doctest6detail20IExceptionTranslatorEEEEEvv, symObjAddr: 0x28820, symBinAddr: 0x10002CF60, symSize: 0x10 }
  - { offsetInCU: 0x54710, offset: 0x54710, size: 0x8, addend: 0x0, symName: __ZNSt3__118__unwrap_iter_implINS_16reverse_iteratorIPPKN7doctest6detail20IExceptionTranslatorEEELb0EE8__unwrapB7v160006ES8_, symObjAddr: 0x28830, symBinAddr: 0x10002CF70, symSize: 0x20 }
  - { offsetInCU: 0x5473A, offset: 0x5473A, size: 0x8, addend: 0x0, symName: __ZNSt3__14pairINS_16reverse_iteratorIPPKN7doctest6detail20IExceptionTranslatorEEES8_EC1B7v160006IS8_S8_LPv0EEEOT_OT0_, symObjAddr: 0x28850, symBinAddr: 0x10002CF90, symSize: 0x30 }
  - { offsetInCU: 0x5479A, offset: 0x5479A, size: 0x8, addend: 0x0, symName: __ZNSt3__14pairINS_16reverse_iteratorIPPKN7doctest6detail20IExceptionTranslatorEEES8_EC2B7v160006IS8_S8_LPv0EEEOT_OT0_, symObjAddr: 0x28880, symBinAddr: 0x10002CFC0, symSize: 0x40 }
  - { offsetInCU: 0x547FA, offset: 0x547FA, size: 0x8, addend: 0x0, symName: __ZNSt3__118__unwrap_iter_implINS_16reverse_iteratorIPPKN7doctest6detail20IExceptionTranslatorEEELb0EE8__rewrapB7v160006ES8_S8_, symObjAddr: 0x288C0, symBinAddr: 0x10002D000, symSize: 0x30 }
  - { offsetInCU: 0x54829, offset: 0x54829, size: 0x8, addend: 0x0, symName: __ZNSt3__116reverse_iteratorIPPKN7doctest6detail20IExceptionTranslatorEEC2B7v160006ES6_, symObjAddr: 0x288F0, symBinAddr: 0x10002D030, symSize: 0x30 }
  - { offsetInCU: 0x54862, offset: 0x54862, size: 0x8, addend: 0x0, symName: __ZNSt3__114__split_bufferIPKN7doctest6detail20IExceptionTranslatorERNS_9allocatorIS5_EEED2Ev, symObjAddr: 0x28920, symBinAddr: 0x10002D060, symSize: 0x70 }
  - { offsetInCU: 0x5488E, offset: 0x5488E, size: 0x8, addend: 0x0, symName: __ZNSt3__114__split_bufferIPKN7doctest6detail20IExceptionTranslatorERNS_9allocatorIS5_EEE5clearB7v160006Ev, symObjAddr: 0x28990, symBinAddr: 0x10002D0D0, symSize: 0x20 }
  - { offsetInCU: 0x548B4, offset: 0x548B4, size: 0x8, addend: 0x0, symName: __ZNKSt3__114__split_bufferIPKN7doctest6detail20IExceptionTranslatorERNS_9allocatorIS5_EEE8capacityB7v160006Ev, symObjAddr: 0x289B0, symBinAddr: 0x10002D0F0, symSize: 0x30 }
  - { offsetInCU: 0x548DA, offset: 0x548DA, size: 0x8, addend: 0x0, symName: __ZNSt3__114__split_bufferIPKN7doctest6detail20IExceptionTranslatorERNS_9allocatorIS5_EEE17__destruct_at_endB7v160006EPS5_, symObjAddr: 0x289E0, symBinAddr: 0x10002D120, symSize: 0x30 }
  - { offsetInCU: 0x5490F, offset: 0x5490F, size: 0x8, addend: 0x0, symName: __ZNSt3__114__split_bufferIPKN7doctest6detail20IExceptionTranslatorERNS_9allocatorIS5_EEE17__destruct_at_endB7v160006EPS5_NS_17integral_constantIbLb0EEE, symObjAddr: 0x28A10, symBinAddr: 0x10002D150, symSize: 0x80 }
  - { offsetInCU: 0x54951, offset: 0x54951, size: 0x8, addend: 0x0, symName: __ZNKSt3__114__split_bufferIPKN7doctest6detail20IExceptionTranslatorERNS_9allocatorIS5_EEE9__end_capB7v160006Ev, symObjAddr: 0x28A90, symBinAddr: 0x10002D1D0, symSize: 0x20 }
  - { offsetInCU: 0x54977, offset: 0x54977, size: 0x8, addend: 0x0, symName: __ZNKSt3__117__compressed_pairIPPKN7doctest6detail20IExceptionTranslatorERNS_9allocatorIS5_EEE5firstB7v160006Ev, symObjAddr: 0x28AB0, symBinAddr: 0x10002D1F0, symSize: 0x20 }
  - { offsetInCU: 0x5499D, offset: 0x5499D, size: 0x8, addend: 0x0, symName: __ZNSt3__16vectorIPN7doctest13IContextScopeENS_9allocatorIS3_EEEC2B7v160006Ev, symObjAddr: 0x28AD0, symBinAddr: 0x10002D210, symSize: 0x60 }
  - { offsetInCU: 0x549C7, offset: 0x549C7, size: 0x8, addend: 0x0, symName: __ZNSt3__117__compressed_pairIPPN7doctest13IContextScopeENS_9allocatorIS3_EEEC1B7v160006IDnNS_18__default_init_tagEEEOT_OT0_, symObjAddr: 0x28B30, symBinAddr: 0x10002D270, symSize: 0x30 }
  - { offsetInCU: 0x54A21, offset: 0x54A21, size: 0x8, addend: 0x0, symName: __ZNSt3__117__compressed_pairIPPN7doctest13IContextScopeENS_9allocatorIS3_EEEC2B7v160006IDnNS_18__default_init_tagEEEOT_OT0_, symObjAddr: 0x28B70, symBinAddr: 0x10002D2B0, symSize: 0x40 }
  - { offsetInCU: 0x54A7B, offset: 0x54A7B, size: 0x8, addend: 0x0, symName: __ZNSt3__122__compressed_pair_elemIPPN7doctest13IContextScopeELi0ELb0EEC2B7v160006IDnvEEOT_, symObjAddr: 0x28BB0, symBinAddr: 0x10002D2F0, symSize: 0x20 }
  - { offsetInCU: 0x54ABE, offset: 0x54ABE, size: 0x8, addend: 0x0, symName: __ZNSt3__122__compressed_pair_elemINS_9allocatorIPN7doctest13IContextScopeEEELi1ELb1EEC2B7v160006ENS_18__default_init_tagE, symObjAddr: 0x28BD0, symBinAddr: 0x10002D310, symSize: 0x20 }
  - { offsetInCU: 0x54AF3, offset: 0x54AF3, size: 0x8, addend: 0x0, symName: __ZNSt3__19allocatorIPN7doctest13IContextScopeEEC2B7v160006Ev, symObjAddr: 0x28BF0, symBinAddr: 0x10002D330, symSize: 0x20 }
  - { offsetInCU: 0x54B1D, offset: 0x54B1D, size: 0x8, addend: 0x0, symName: __ZNSt3__116__non_trivial_ifILb1ENS_9allocatorIPN7doctest13IContextScopeEEEEC2B7v160006Ev, symObjAddr: 0x28C10, symBinAddr: 0x10002D350, symSize: 0x10 }
  - { offsetInCU: 0x54B47, offset: 0x54B47, size: 0x8, addend: 0x0, symName: __ZNSt3__16vectorIPN7doctest13IContextScopeENS_9allocatorIS3_EEED2B7v160006Ev, symObjAddr: 0x28C20, symBinAddr: 0x10002D360, symSize: 0x40 }
  - { offsetInCU: 0x54B71, offset: 0x54B71, size: 0x8, addend: 0x0, symName: __ZNSt3__16vectorIPN7doctest13IContextScopeENS_9allocatorIS3_EEE16__destroy_vectorC1ERS6_, symObjAddr: 0x28C60, symBinAddr: 0x10002D3A0, symSize: 0x30 }
  - { offsetInCU: 0x54BAA, offset: 0x54BAA, size: 0x8, addend: 0x0, symName: __ZNSt3__16vectorIPN7doctest13IContextScopeENS_9allocatorIS3_EEE16__destroy_vectorclB7v160006Ev, symObjAddr: 0x28C90, symBinAddr: 0x10002D3D0, symSize: 0x90 }
  - { offsetInCU: 0x54BD0, offset: 0x54BD0, size: 0x8, addend: 0x0, symName: __ZNSt3__16vectorIPN7doctest13IContextScopeENS_9allocatorIS3_EEE16__destroy_vectorC2ERS6_, symObjAddr: 0x28D20, symBinAddr: 0x10002D460, symSize: 0x20 }
  - { offsetInCU: 0x54C09, offset: 0x54C09, size: 0x8, addend: 0x0, symName: __ZNKSt3__16vectorIPN7doctest13IContextScopeENS_9allocatorIS3_EEE17__annotate_deleteB7v160006Ev, symObjAddr: 0x28D40, symBinAddr: 0x10002D480, symSize: 0xB0 }
  - { offsetInCU: 0x54C2F, offset: 0x54C2F, size: 0x8, addend: 0x0, symName: __ZNSt3__16vectorIPN7doctest13IContextScopeENS_9allocatorIS3_EEE7__clearB7v160006Ev, symObjAddr: 0x28E00, symBinAddr: 0x10002D540, symSize: 0x20 }
  - { offsetInCU: 0x54C55, offset: 0x54C55, size: 0x8, addend: 0x0, symName: __ZNSt3__116allocator_traitsINS_9allocatorIPN7doctest13IContextScopeEEEE10deallocateB7v160006ERS5_PS4_m, symObjAddr: 0x28E20, symBinAddr: 0x10002D560, symSize: 0x30 }
  - { offsetInCU: 0x54C97, offset: 0x54C97, size: 0x8, addend: 0x0, symName: __ZNSt3__16vectorIPN7doctest13IContextScopeENS_9allocatorIS3_EEE7__allocB7v160006Ev, symObjAddr: 0x28E50, symBinAddr: 0x10002D590, symSize: 0x20 }
  - { offsetInCU: 0x54CBD, offset: 0x54CBD, size: 0x8, addend: 0x0, symName: __ZNKSt3__16vectorIPN7doctest13IContextScopeENS_9allocatorIS3_EEE8capacityB7v160006Ev, symObjAddr: 0x28E70, symBinAddr: 0x10002D5B0, symSize: 0x30 }
  - { offsetInCU: 0x54CE3, offset: 0x54CE3, size: 0x8, addend: 0x0, symName: __ZNKSt3__16vectorIPN7doctest13IContextScopeENS_9allocatorIS3_EEE31__annotate_contiguous_containerB7v160006EPKvS8_S8_S8_, symObjAddr: 0x28EA0, symBinAddr: 0x10002D5E0, symSize: 0x20 }
  - { offsetInCU: 0x54D35, offset: 0x54D35, size: 0x8, addend: 0x0, symName: __ZNKSt3__16vectorIPN7doctest13IContextScopeENS_9allocatorIS3_EEE4dataB7v160006Ev, symObjAddr: 0x28EC0, symBinAddr: 0x10002D600, symSize: 0x20 }
  - { offsetInCU: 0x54D5B, offset: 0x54D5B, size: 0x8, addend: 0x0, symName: __ZNSt3__16vectorIPN7doctest13IContextScopeENS_9allocatorIS3_EEE22__base_destruct_at_endB7v160006EPS3_, symObjAddr: 0x28EF0, symBinAddr: 0x10002D630, symSize: 0x80 }
  - { offsetInCU: 0x54D9F, offset: 0x54D9F, size: 0x8, addend: 0x0, symName: __ZNSt3__116allocator_traitsINS_9allocatorIPN7doctest13IContextScopeEEEE7destroyB7v160006IS4_vEEvRS5_PT_, symObjAddr: 0x28F70, symBinAddr: 0x10002D6B0, symSize: 0x30 }
  - { offsetInCU: 0x54DDC, offset: 0x54DDC, size: 0x8, addend: 0x0, symName: __ZNSt3__19allocatorIPN7doctest13IContextScopeEE7destroyB7v160006EPS3_, symObjAddr: 0x28FA0, symBinAddr: 0x10002D6E0, symSize: 0x10 }
  - { offsetInCU: 0x54E11, offset: 0x54E11, size: 0x8, addend: 0x0, symName: __ZNSt3__19allocatorIPN7doctest13IContextScopeEE10deallocateB7v160006EPS3_m, symObjAddr: 0x28FB0, symBinAddr: 0x10002D6F0, symSize: 0x40 }
  - { offsetInCU: 0x54E55, offset: 0x54E55, size: 0x8, addend: 0x0, symName: __ZNSt3__117__compressed_pairIPPN7doctest13IContextScopeENS_9allocatorIS3_EEE6secondB7v160006Ev, symObjAddr: 0x28FF0, symBinAddr: 0x10002D730, symSize: 0x20 }
  - { offsetInCU: 0x54E7B, offset: 0x54E7B, size: 0x8, addend: 0x0, symName: __ZNSt3__122__compressed_pair_elemINS_9allocatorIPN7doctest13IContextScopeEEELi1ELb1EE5__getB7v160006Ev, symObjAddr: 0x29010, symBinAddr: 0x10002D750, symSize: 0x10 }
  - { offsetInCU: 0x54EA1, offset: 0x54EA1, size: 0x8, addend: 0x0, symName: __ZNKSt3__16vectorIPN7doctest13IContextScopeENS_9allocatorIS3_EEE9__end_capB7v160006Ev, symObjAddr: 0x29020, symBinAddr: 0x10002D760, symSize: 0x20 }
  - { offsetInCU: 0x54EC7, offset: 0x54EC7, size: 0x8, addend: 0x0, symName: __ZNKSt3__117__compressed_pairIPPN7doctest13IContextScopeENS_9allocatorIS3_EEE5firstB7v160006Ev, symObjAddr: 0x29040, symBinAddr: 0x10002D780, symSize: 0x20 }
  - { offsetInCU: 0x54EED, offset: 0x54EED, size: 0x8, addend: 0x0, symName: __ZNKSt3__122__compressed_pair_elemIPPN7doctest13IContextScopeELi0ELb0EE5__getB7v160006Ev, symObjAddr: 0x29060, symBinAddr: 0x10002D7A0, symSize: 0x10 }
  - { offsetInCU: 0x54F13, offset: 0x54F13, size: 0x8, addend: 0x0, symName: __ZNSt3__16vectorIPN7doctest13IContextScopeENS_9allocatorIS3_EEE9__end_capB7v160006Ev, symObjAddr: 0x29070, symBinAddr: 0x10002D7B0, symSize: 0x20 }
  - { offsetInCU: 0x54F3F, offset: 0x54F3F, size: 0x8, addend: 0x0, symName: __ZNSt3__16vectorIPN7doctest13IContextScopeENS_9allocatorIS3_EEE22__construct_one_at_endB7v160006IJS3_EEEvDpOT_, symObjAddr: 0x29090, symBinAddr: 0x10002D7D0, symSize: 0x90 }
  - { offsetInCU: 0x54F8E, offset: 0x54F8E, size: 0x8, addend: 0x0, symName: __ZNSt3__16vectorIPN7doctest13IContextScopeENS_9allocatorIS3_EEE21__push_back_slow_pathIS3_EEvOT_, symObjAddr: 0x29120, symBinAddr: 0x10002D860, symSize: 0xD0 }
  - { offsetInCU: 0x54FEC, offset: 0x54FEC, size: 0x8, addend: 0x0, symName: __ZNSt3__117__compressed_pairIPPN7doctest13IContextScopeENS_9allocatorIS3_EEE5firstB7v160006Ev, symObjAddr: 0x291F0, symBinAddr: 0x10002D930, symSize: 0x20 }
  - { offsetInCU: 0x55012, offset: 0x55012, size: 0x8, addend: 0x0, symName: __ZNSt3__122__compressed_pair_elemIPPN7doctest13IContextScopeELi0ELb0EE5__getB7v160006Ev, symObjAddr: 0x29210, symBinAddr: 0x10002D950, symSize: 0x10 }
  - { offsetInCU: 0x55054, offset: 0x55054, size: 0x8, addend: 0x0, symName: __ZNSt3__16vectorIPN7doctest13IContextScopeENS_9allocatorIS3_EEE21_ConstructTransactionC1B7v160006ERS6_m, symObjAddr: 0x29220, symBinAddr: 0x10002D960, symSize: 0x30 }
  - { offsetInCU: 0x5509C, offset: 0x5509C, size: 0x8, addend: 0x0, symName: __ZNSt3__116allocator_traitsINS_9allocatorIPN7doctest13IContextScopeEEEE9constructB7v160006IS4_JS4_EvEEvRS5_PT_DpOT0_, symObjAddr: 0x29250, symBinAddr: 0x10002D990, symSize: 0x30 }
  - { offsetInCU: 0x550F3, offset: 0x550F3, size: 0x8, addend: 0x0, symName: __ZNSt3__16vectorIPN7doctest13IContextScopeENS_9allocatorIS3_EEE21_ConstructTransactionD1B7v160006Ev, symObjAddr: 0x29280, symBinAddr: 0x10002D9C0, symSize: 0x20 }
  - { offsetInCU: 0x5511D, offset: 0x5511D, size: 0x8, addend: 0x0, symName: __ZNSt3__16vectorIPN7doctest13IContextScopeENS_9allocatorIS3_EEE21_ConstructTransactionC2B7v160006ERS6_m, symObjAddr: 0x292A0, symBinAddr: 0x10002D9E0, symSize: 0x40 }
  - { offsetInCU: 0x55165, offset: 0x55165, size: 0x8, addend: 0x0, symName: __ZNSt3__19allocatorIPN7doctest13IContextScopeEE9constructB7v160006IS3_JS3_EEEvPT_DpOT0_, symObjAddr: 0x292E0, symBinAddr: 0x10002DA20, symSize: 0x20 }
  - { offsetInCU: 0x551BD, offset: 0x551BD, size: 0x8, addend: 0x0, symName: __ZNSt3__16vectorIPN7doctest13IContextScopeENS_9allocatorIS3_EEE21_ConstructTransactionD2B7v160006Ev, symObjAddr: 0x29300, symBinAddr: 0x10002DA40, symSize: 0x20 }
  - { offsetInCU: 0x551E7, offset: 0x551E7, size: 0x8, addend: 0x0, symName: __ZNKSt3__16vectorIPN7doctest13IContextScopeENS_9allocatorIS3_EEE11__recommendB7v160006Em, symObjAddr: 0x29320, symBinAddr: 0x10002DA60, symSize: 0xA0 }
  - { offsetInCU: 0x5523C, offset: 0x5523C, size: 0x8, addend: 0x0, symName: __ZNSt3__114__split_bufferIPN7doctest13IContextScopeERNS_9allocatorIS3_EEEC1EmmS6_, symObjAddr: 0x293C0, symBinAddr: 0x10002DB00, symSize: 0x40 }
  - { offsetInCU: 0x55295, offset: 0x55295, size: 0x8, addend: 0x0, symName: __ZNSt3__114__split_bufferIPN7doctest13IContextScopeERNS_9allocatorIS3_EEED1Ev, symObjAddr: 0x29530, symBinAddr: 0x10002DC70, symSize: 0x20 }
  - { offsetInCU: 0x552C1, offset: 0x552C1, size: 0x8, addend: 0x0, symName: __ZNKSt3__16vectorIPN7doctest13IContextScopeENS_9allocatorIS3_EEE8max_sizeEv, symObjAddr: 0x29550, symBinAddr: 0x10002DC90, symSize: 0x60 }
  - { offsetInCU: 0x552E9, offset: 0x552E9, size: 0x8, addend: 0x0, symName: __ZNKSt3__16vectorIPN7doctest13IContextScopeENS_9allocatorIS3_EEE20__throw_length_errorB7v160006Ev, symObjAddr: 0x295B0, symBinAddr: 0x10002DCF0, symSize: 0x20 }
  - { offsetInCU: 0x5531A, offset: 0x5531A, size: 0x8, addend: 0x0, symName: __ZNSt3__116allocator_traitsINS_9allocatorIPN7doctest13IContextScopeEEEE8max_sizeB7v160006IS5_vEEmRKS5_, symObjAddr: 0x295D0, symBinAddr: 0x10002DD10, symSize: 0x20 }
  - { offsetInCU: 0x55348, offset: 0x55348, size: 0x8, addend: 0x0, symName: __ZNKSt3__16vectorIPN7doctest13IContextScopeENS_9allocatorIS3_EEE7__allocB7v160006Ev, symObjAddr: 0x295F0, symBinAddr: 0x10002DD30, symSize: 0x20 }
  - { offsetInCU: 0x5536E, offset: 0x5536E, size: 0x8, addend: 0x0, symName: __ZNKSt3__19allocatorIPN7doctest13IContextScopeEE8max_sizeB7v160006Ev, symObjAddr: 0x29610, symBinAddr: 0x10002DD50, symSize: 0x20 }
  - { offsetInCU: 0x55394, offset: 0x55394, size: 0x8, addend: 0x0, symName: __ZNKSt3__117__compressed_pairIPPN7doctest13IContextScopeENS_9allocatorIS3_EEE6secondB7v160006Ev, symObjAddr: 0x29630, symBinAddr: 0x10002DD70, symSize: 0x20 }
  - { offsetInCU: 0x553BA, offset: 0x553BA, size: 0x8, addend: 0x0, symName: __ZNKSt3__122__compressed_pair_elemINS_9allocatorIPN7doctest13IContextScopeEEELi1ELb1EE5__getB7v160006Ev, symObjAddr: 0x29650, symBinAddr: 0x10002DD90, symSize: 0x10 }
  - { offsetInCU: 0x553E0, offset: 0x553E0, size: 0x8, addend: 0x0, symName: __ZNSt3__114__split_bufferIPN7doctest13IContextScopeERNS_9allocatorIS3_EEEC2EmmS6_, symObjAddr: 0x29660, symBinAddr: 0x10002DDA0, symSize: 0xD0 }
  - { offsetInCU: 0x55456, offset: 0x55456, size: 0x8, addend: 0x0, symName: __ZNSt3__117__compressed_pairIPPN7doctest13IContextScopeERNS_9allocatorIS3_EEEC1B7v160006IDnS7_EEOT_OT0_, symObjAddr: 0x29730, symBinAddr: 0x10002DE70, symSize: 0x30 }
  - { offsetInCU: 0x554B0, offset: 0x554B0, size: 0x8, addend: 0x0, symName: __ZNSt3__114__split_bufferIPN7doctest13IContextScopeERNS_9allocatorIS3_EEE7__allocB7v160006Ev, symObjAddr: 0x297A0, symBinAddr: 0x10002DEE0, symSize: 0x20 }
  - { offsetInCU: 0x554D6, offset: 0x554D6, size: 0x8, addend: 0x0, symName: __ZNSt3__114__split_bufferIPN7doctest13IContextScopeERNS_9allocatorIS3_EEE9__end_capB7v160006Ev, symObjAddr: 0x297C0, symBinAddr: 0x10002DF00, symSize: 0x20 }
  - { offsetInCU: 0x554FC, offset: 0x554FC, size: 0x8, addend: 0x0, symName: __ZNSt3__117__compressed_pairIPPN7doctest13IContextScopeERNS_9allocatorIS3_EEEC2B7v160006IDnS7_EEOT_OT0_, symObjAddr: 0x297E0, symBinAddr: 0x10002DF20, symSize: 0x40 }
  - { offsetInCU: 0x55556, offset: 0x55556, size: 0x8, addend: 0x0, symName: __ZNSt3__122__compressed_pair_elemIRNS_9allocatorIPN7doctest13IContextScopeEEELi1ELb0EEC2B7v160006IS6_vEEOT_, symObjAddr: 0x29820, symBinAddr: 0x10002DF60, symSize: 0x20 }
  - { offsetInCU: 0x55599, offset: 0x55599, size: 0x8, addend: 0x0, symName: __ZNSt3__19allocatorIPN7doctest13IContextScopeEE8allocateB7v160006Em, symObjAddr: 0x29840, symBinAddr: 0x10002DF80, symSize: 0x50 }
  - { offsetInCU: 0x555CE, offset: 0x555CE, size: 0x8, addend: 0x0, symName: __ZNSt3__117__compressed_pairIPPN7doctest13IContextScopeERNS_9allocatorIS3_EEE6secondB7v160006Ev, symObjAddr: 0x29890, symBinAddr: 0x10002DFD0, symSize: 0x20 }
  - { offsetInCU: 0x555F4, offset: 0x555F4, size: 0x8, addend: 0x0, symName: __ZNSt3__122__compressed_pair_elemIRNS_9allocatorIPN7doctest13IContextScopeEEELi1ELb0EE5__getB7v160006Ev, symObjAddr: 0x298B0, symBinAddr: 0x10002DFF0, symSize: 0x20 }
  - { offsetInCU: 0x5561A, offset: 0x5561A, size: 0x8, addend: 0x0, symName: __ZNSt3__117__compressed_pairIPPN7doctest13IContextScopeERNS_9allocatorIS3_EEE5firstB7v160006Ev, symObjAddr: 0x298D0, symBinAddr: 0x10002E010, symSize: 0x20 }
  - { offsetInCU: 0x55640, offset: 0x55640, size: 0x8, addend: 0x0, symName: __ZNSt3__116reverse_iteratorIPPN7doctest13IContextScopeEEC1B7v160006ES4_, symObjAddr: 0x29960, symBinAddr: 0x10002E0A0, symSize: 0x30 }
  - { offsetInCU: 0x55679, offset: 0x55679, size: 0x8, addend: 0x0, symName: __ZNKSt3__116reverse_iteratorIPPN7doctest13IContextScopeEE4baseB7v160006Ev, symObjAddr: 0x29990, symBinAddr: 0x10002E0D0, symSize: 0x20 }
  - { offsetInCU: 0x5569F, offset: 0x5569F, size: 0x8, addend: 0x0, symName: __ZNKSt3__16vectorIPN7doctest13IContextScopeENS_9allocatorIS3_EEE14__annotate_newB7v160006Em, symObjAddr: 0x299F0, symBinAddr: 0x10002E130, symSize: 0xB0 }
  - { offsetInCU: 0x556F1, offset: 0x556F1, size: 0x8, addend: 0x0, symName: __ZNKSt3__111__move_loopINS_17_ClassicAlgPolicyEEclB7v160006INS_16reverse_iteratorIPPN7doctest13IContextScopeEEES9_S9_EENS_4pairIT_T1_EESB_T0_SC_, symObjAddr: 0x29EF0, symBinAddr: 0x10002E630, symSize: 0xA0 }
  - { offsetInCU: 0x5575F, offset: 0x5575F, size: 0x8, addend: 0x0, symName: __ZNSt3__18_IterOpsINS_17_ClassicAlgPolicyEE11__iter_moveB7v160006IRNS_16reverse_iteratorIPPN7doctest13IContextScopeEEEEENS_9enable_ifIXsr12is_referenceIDTdeclsr3stdE7declvalIRT_EEEEE5valueEDTclsr3stdE4movedeclsr3stdE7declvalISD_EEEEE4typeEOSC_, symObjAddr: 0x2A110, symBinAddr: 0x10002E850, symSize: 0x20 }
  - { offsetInCU: 0x5578C, offset: 0x5578C, size: 0x8, addend: 0x0, symName: __ZNKSt3__116reverse_iteratorIPPN7doctest13IContextScopeEEdeB7v160006Ev, symObjAddr: 0x2A130, symBinAddr: 0x10002E870, symSize: 0x30 }
  - { offsetInCU: 0x557C1, offset: 0x557C1, size: 0x8, addend: 0x0, symName: __ZNSt3__116reverse_iteratorIPPN7doctest13IContextScopeEEppB7v160006Ev, symObjAddr: 0x2A160, symBinAddr: 0x10002E8A0, symSize: 0x20 }
  - { offsetInCU: 0x557E7, offset: 0x557E7, size: 0x8, addend: 0x0, symName: __ZNSt3__18_IterOpsINS_17_ClassicAlgPolicyEE25__validate_iter_referenceB7v160006IRNS_16reverse_iteratorIPPN7doctest13IContextScopeEEEEEvv, symObjAddr: 0x2A180, symBinAddr: 0x10002E8C0, symSize: 0x10 }
  - { offsetInCU: 0x55805, offset: 0x55805, size: 0x8, addend: 0x0, symName: __ZNSt3__118__unwrap_iter_implINS_16reverse_iteratorIPPN7doctest13IContextScopeEEELb0EE8__unwrapB7v160006ES6_, symObjAddr: 0x2A190, symBinAddr: 0x10002E8D0, symSize: 0x20 }
  - { offsetInCU: 0x5582F, offset: 0x5582F, size: 0x8, addend: 0x0, symName: __ZNSt3__14pairINS_16reverse_iteratorIPPN7doctest13IContextScopeEEES6_EC1B7v160006IS6_S6_LPv0EEEOT_OT0_, symObjAddr: 0x2A1B0, symBinAddr: 0x10002E8F0, symSize: 0x30 }
  - { offsetInCU: 0x5588F, offset: 0x5588F, size: 0x8, addend: 0x0, symName: __ZNSt3__14pairINS_16reverse_iteratorIPPN7doctest13IContextScopeEEES6_EC2B7v160006IS6_S6_LPv0EEEOT_OT0_, symObjAddr: 0x2A1E0, symBinAddr: 0x10002E920, symSize: 0x40 }
  - { offsetInCU: 0x558EF, offset: 0x558EF, size: 0x8, addend: 0x0, symName: __ZNSt3__118__unwrap_iter_implINS_16reverse_iteratorIPPN7doctest13IContextScopeEEELb0EE8__rewrapB7v160006ES6_S6_, symObjAddr: 0x2A220, symBinAddr: 0x10002E960, symSize: 0x30 }
  - { offsetInCU: 0x5591E, offset: 0x5591E, size: 0x8, addend: 0x0, symName: __ZNSt3__116reverse_iteratorIPPN7doctest13IContextScopeEEC2B7v160006ES4_, symObjAddr: 0x2A250, symBinAddr: 0x10002E990, symSize: 0x30 }
  - { offsetInCU: 0x55957, offset: 0x55957, size: 0x8, addend: 0x0, symName: __ZNSt3__114__split_bufferIPN7doctest13IContextScopeERNS_9allocatorIS3_EEED2Ev, symObjAddr: 0x2A280, symBinAddr: 0x10002E9C0, symSize: 0x70 }
  - { offsetInCU: 0x55983, offset: 0x55983, size: 0x8, addend: 0x0, symName: __ZNSt3__114__split_bufferIPN7doctest13IContextScopeERNS_9allocatorIS3_EEE5clearB7v160006Ev, symObjAddr: 0x2A2F0, symBinAddr: 0x10002EA30, symSize: 0x20 }
  - { offsetInCU: 0x559A9, offset: 0x559A9, size: 0x8, addend: 0x0, symName: __ZNKSt3__114__split_bufferIPN7doctest13IContextScopeERNS_9allocatorIS3_EEE8capacityB7v160006Ev, symObjAddr: 0x2A310, symBinAddr: 0x10002EA50, symSize: 0x30 }
  - { offsetInCU: 0x559CF, offset: 0x559CF, size: 0x8, addend: 0x0, symName: __ZNSt3__114__split_bufferIPN7doctest13IContextScopeERNS_9allocatorIS3_EEE17__destruct_at_endB7v160006EPS3_, symObjAddr: 0x2A340, symBinAddr: 0x10002EA80, symSize: 0x30 }
  - { offsetInCU: 0x55A04, offset: 0x55A04, size: 0x8, addend: 0x0, symName: __ZNSt3__114__split_bufferIPN7doctest13IContextScopeERNS_9allocatorIS3_EEE17__destruct_at_endB7v160006EPS3_NS_17integral_constantIbLb0EEE, symObjAddr: 0x2A370, symBinAddr: 0x10002EAB0, symSize: 0x80 }
  - { offsetInCU: 0x55A46, offset: 0x55A46, size: 0x8, addend: 0x0, symName: __ZNKSt3__114__split_bufferIPN7doctest13IContextScopeERNS_9allocatorIS3_EEE9__end_capB7v160006Ev, symObjAddr: 0x2A3F0, symBinAddr: 0x10002EB30, symSize: 0x20 }
  - { offsetInCU: 0x55A6C, offset: 0x55A6C, size: 0x8, addend: 0x0, symName: __ZNKSt3__117__compressed_pairIPPN7doctest13IContextScopeERNS_9allocatorIS3_EEE5firstB7v160006Ev, symObjAddr: 0x2A410, symBinAddr: 0x10002EB50, symSize: 0x20 }
  - { offsetInCU: 0x55A92, offset: 0x55A92, size: 0x8, addend: 0x0, symName: __ZNSt3__16vectorIN7doctest6StringENS_9allocatorIS2_EEE9__end_capB7v160006Ev, symObjAddr: 0x2A430, symBinAddr: 0x10002EB70, symSize: 0x20 }
  - { offsetInCU: 0x55AB8, offset: 0x55AB8, size: 0x8, addend: 0x0, symName: __ZNSt3__16vectorIN7doctest6StringENS_9allocatorIS2_EEE22__construct_one_at_endB7v160006IJS2_EEEvDpOT_, symObjAddr: 0x2A450, symBinAddr: 0x10002EB90, symSize: 0x90 }
  - { offsetInCU: 0x55B07, offset: 0x55B07, size: 0x8, addend: 0x0, symName: __ZNSt3__16vectorIN7doctest6StringENS_9allocatorIS2_EEE21__push_back_slow_pathIS2_EEvOT_, symObjAddr: 0x2A4E0, symBinAddr: 0x10002EC20, symSize: 0xD0 }
  - { offsetInCU: 0x55B65, offset: 0x55B65, size: 0x8, addend: 0x0, symName: __ZNSt3__117__compressed_pairIPN7doctest6StringENS_9allocatorIS2_EEE5firstB7v160006Ev, symObjAddr: 0x2A5B0, symBinAddr: 0x10002ECF0, symSize: 0x20 }
  - { offsetInCU: 0x55B8B, offset: 0x55B8B, size: 0x8, addend: 0x0, symName: __ZNSt3__122__compressed_pair_elemIPN7doctest6StringELi0ELb0EE5__getB7v160006Ev, symObjAddr: 0x2A5D0, symBinAddr: 0x10002ED10, symSize: 0x10 }
  - { offsetInCU: 0x55BCD, offset: 0x55BCD, size: 0x8, addend: 0x0, symName: __ZNSt3__16vectorIN7doctest6StringENS_9allocatorIS2_EEE21_ConstructTransactionC1B7v160006ERS5_m, symObjAddr: 0x2A5E0, symBinAddr: 0x10002ED20, symSize: 0x30 }
  - { offsetInCU: 0x55C15, offset: 0x55C15, size: 0x8, addend: 0x0, symName: __ZNSt3__116allocator_traitsINS_9allocatorIN7doctest6StringEEEE9constructB7v160006IS3_JS3_EvEEvRS4_PT_DpOT0_, symObjAddr: 0x2A610, symBinAddr: 0x10002ED50, symSize: 0x30 }
  - { offsetInCU: 0x55C6C, offset: 0x55C6C, size: 0x8, addend: 0x0, symName: __ZNSt3__16vectorIN7doctest6StringENS_9allocatorIS2_EEE21_ConstructTransactionD1B7v160006Ev, symObjAddr: 0x2A640, symBinAddr: 0x10002ED80, symSize: 0x20 }
  - { offsetInCU: 0x55C96, offset: 0x55C96, size: 0x8, addend: 0x0, symName: __ZNSt3__16vectorIN7doctest6StringENS_9allocatorIS2_EEE21_ConstructTransactionC2B7v160006ERS5_m, symObjAddr: 0x2A660, symBinAddr: 0x10002EDA0, symSize: 0x40 }
  - { offsetInCU: 0x55CDE, offset: 0x55CDE, size: 0x8, addend: 0x0, symName: __ZNSt3__19allocatorIN7doctest6StringEE9constructB7v160006IS2_JS2_EEEvPT_DpOT0_, symObjAddr: 0x2A6A0, symBinAddr: 0x10002EDE0, symSize: 0x30 }
  - { offsetInCU: 0x55D36, offset: 0x55D36, size: 0x8, addend: 0x0, symName: __ZNSt3__16vectorIN7doctest6StringENS_9allocatorIS2_EEE21_ConstructTransactionD2B7v160006Ev, symObjAddr: 0x2A6D0, symBinAddr: 0x10002EE10, symSize: 0x20 }
  - { offsetInCU: 0x55D60, offset: 0x55D60, size: 0x8, addend: 0x0, symName: __ZNKSt3__16vectorIN7doctest6StringENS_9allocatorIS2_EEE11__recommendB7v160006Em, symObjAddr: 0x2A6F0, symBinAddr: 0x10002EE30, symSize: 0xA0 }
  - { offsetInCU: 0x55DB5, offset: 0x55DB5, size: 0x8, addend: 0x0, symName: __ZNSt3__114__split_bufferIN7doctest6StringERNS_9allocatorIS2_EEEC1EmmS5_, symObjAddr: 0x2A790, symBinAddr: 0x10002EED0, symSize: 0x40 }
  - { offsetInCU: 0x55E0E, offset: 0x55E0E, size: 0x8, addend: 0x0, symName: __ZNSt3__114__split_bufferIN7doctest6StringERNS_9allocatorIS2_EEED1Ev, symObjAddr: 0x2A900, symBinAddr: 0x10002F040, symSize: 0x20 }
  - { offsetInCU: 0x55E3A, offset: 0x55E3A, size: 0x8, addend: 0x0, symName: __ZNKSt3__16vectorIN7doctest6StringENS_9allocatorIS2_EEE8max_sizeEv, symObjAddr: 0x2A920, symBinAddr: 0x10002F060, symSize: 0x60 }
  - { offsetInCU: 0x55E62, offset: 0x55E62, size: 0x8, addend: 0x0, symName: __ZNKSt3__16vectorIN7doctest6StringENS_9allocatorIS2_EEE20__throw_length_errorB7v160006Ev, symObjAddr: 0x2A980, symBinAddr: 0x10002F0C0, symSize: 0x20 }
  - { offsetInCU: 0x55E93, offset: 0x55E93, size: 0x8, addend: 0x0, symName: __ZNSt3__116allocator_traitsINS_9allocatorIN7doctest6StringEEEE8max_sizeB7v160006IS4_vEEmRKS4_, symObjAddr: 0x2A9A0, symBinAddr: 0x10002F0E0, symSize: 0x20 }
  - { offsetInCU: 0x55EC1, offset: 0x55EC1, size: 0x8, addend: 0x0, symName: __ZNKSt3__16vectorIN7doctest6StringENS_9allocatorIS2_EEE7__allocB7v160006Ev, symObjAddr: 0x2A9C0, symBinAddr: 0x10002F100, symSize: 0x20 }
  - { offsetInCU: 0x55EE7, offset: 0x55EE7, size: 0x8, addend: 0x0, symName: __ZNKSt3__19allocatorIN7doctest6StringEE8max_sizeB7v160006Ev, symObjAddr: 0x2A9E0, symBinAddr: 0x10002F120, symSize: 0x20 }
  - { offsetInCU: 0x55F0D, offset: 0x55F0D, size: 0x8, addend: 0x0, symName: __ZNKSt3__117__compressed_pairIPN7doctest6StringENS_9allocatorIS2_EEE6secondB7v160006Ev, symObjAddr: 0x2AA00, symBinAddr: 0x10002F140, symSize: 0x20 }
  - { offsetInCU: 0x55F33, offset: 0x55F33, size: 0x8, addend: 0x0, symName: __ZNKSt3__122__compressed_pair_elemINS_9allocatorIN7doctest6StringEEELi1ELb1EE5__getB7v160006Ev, symObjAddr: 0x2AA20, symBinAddr: 0x10002F160, symSize: 0x10 }
  - { offsetInCU: 0x55F59, offset: 0x55F59, size: 0x8, addend: 0x0, symName: __ZNSt3__114__split_bufferIN7doctest6StringERNS_9allocatorIS2_EEEC2EmmS5_, symObjAddr: 0x2AA30, symBinAddr: 0x10002F170, symSize: 0xC0 }
  - { offsetInCU: 0x55FCF, offset: 0x55FCF, size: 0x8, addend: 0x0, symName: __ZNSt3__117__compressed_pairIPN7doctest6StringERNS_9allocatorIS2_EEEC1B7v160006IDnS6_EEOT_OT0_, symObjAddr: 0x2AAF0, symBinAddr: 0x10002F230, symSize: 0x30 }
  - { offsetInCU: 0x56029, offset: 0x56029, size: 0x8, addend: 0x0, symName: __ZNSt3__114__split_bufferIN7doctest6StringERNS_9allocatorIS2_EEE7__allocB7v160006Ev, symObjAddr: 0x2AB60, symBinAddr: 0x10002F2A0, symSize: 0x20 }
  - { offsetInCU: 0x5604F, offset: 0x5604F, size: 0x8, addend: 0x0, symName: __ZNSt3__114__split_bufferIN7doctest6StringERNS_9allocatorIS2_EEE9__end_capB7v160006Ev, symObjAddr: 0x2AB80, symBinAddr: 0x10002F2C0, symSize: 0x20 }
  - { offsetInCU: 0x56075, offset: 0x56075, size: 0x8, addend: 0x0, symName: __ZNSt3__117__compressed_pairIPN7doctest6StringERNS_9allocatorIS2_EEEC2B7v160006IDnS6_EEOT_OT0_, symObjAddr: 0x2ABA0, symBinAddr: 0x10002F2E0, symSize: 0x40 }
  - { offsetInCU: 0x560CF, offset: 0x560CF, size: 0x8, addend: 0x0, symName: __ZNSt3__122__compressed_pair_elemIRNS_9allocatorIN7doctest6StringEEELi1ELb0EEC2B7v160006IS5_vEEOT_, symObjAddr: 0x2ABE0, symBinAddr: 0x10002F320, symSize: 0x20 }
  - { offsetInCU: 0x56112, offset: 0x56112, size: 0x8, addend: 0x0, symName: __ZNSt3__19allocatorIN7doctest6StringEE8allocateB7v160006Em, symObjAddr: 0x2AC00, symBinAddr: 0x10002F340, symSize: 0x50 }
  - { offsetInCU: 0x56147, offset: 0x56147, size: 0x8, addend: 0x0, symName: __ZNSt3__117__compressed_pairIPN7doctest6StringERNS_9allocatorIS2_EEE6secondB7v160006Ev, symObjAddr: 0x2AC50, symBinAddr: 0x10002F390, symSize: 0x20 }
  - { offsetInCU: 0x5616D, offset: 0x5616D, size: 0x8, addend: 0x0, symName: __ZNSt3__122__compressed_pair_elemIRNS_9allocatorIN7doctest6StringEEELi1ELb0EE5__getB7v160006Ev, symObjAddr: 0x2AC70, symBinAddr: 0x10002F3B0, symSize: 0x20 }
  - { offsetInCU: 0x56193, offset: 0x56193, size: 0x8, addend: 0x0, symName: __ZNSt3__117__compressed_pairIPN7doctest6StringERNS_9allocatorIS2_EEE5firstB7v160006Ev, symObjAddr: 0x2AC90, symBinAddr: 0x10002F3D0, symSize: 0x20 }
  - { offsetInCU: 0x561B9, offset: 0x561B9, size: 0x8, addend: 0x0, symName: __ZNSt3__116reverse_iteratorIPN7doctest6StringEEC1B7v160006ES3_, symObjAddr: 0x2AE30, symBinAddr: 0x10002F570, symSize: 0x30 }
  - { offsetInCU: 0x561F2, offset: 0x561F2, size: 0x8, addend: 0x0, symName: __ZNKSt3__116reverse_iteratorIPN7doctest6StringEE4baseB7v160006Ev, symObjAddr: 0x2AE60, symBinAddr: 0x10002F5A0, symSize: 0x20 }
  - { offsetInCU: 0x56218, offset: 0x56218, size: 0x8, addend: 0x0, symName: __ZNKSt3__16vectorIN7doctest6StringENS_9allocatorIS2_EEE14__annotate_newB7v160006Em, symObjAddr: 0x2AEC0, symBinAddr: 0x10002F600, symSize: 0xA0 }
  - { offsetInCU: 0x5624D, offset: 0x5624D, size: 0x8, addend: 0x0, symName: __ZNSt3__129_AllocatorDestroyRangeReverseINS_9allocatorIN7doctest6StringEEENS_16reverse_iteratorIPS3_EEEC1B7v160006ERS4_RS7_SA_, symObjAddr: 0x2AFD0, symBinAddr: 0x10002F710, symSize: 0x40 }
  - { offsetInCU: 0x562A4, offset: 0x562A4, size: 0x8, addend: 0x0, symName: __ZNKSt3__116reverse_iteratorIPN7doctest6StringEEdeB7v160006Ev, symObjAddr: 0x2B070, symBinAddr: 0x10002F7B0, symSize: 0x30 }
  - { offsetInCU: 0x562D9, offset: 0x562D9, size: 0x8, addend: 0x0, symName: __ZNSt3__116reverse_iteratorIPN7doctest6StringEEppB7v160006Ev, symObjAddr: 0x2B0A0, symBinAddr: 0x10002F7E0, symSize: 0x20 }
  - { offsetInCU: 0x562FF, offset: 0x562FF, size: 0x8, addend: 0x0, symName: __ZNSt3__128__exception_guard_exceptionsINS_29_AllocatorDestroyRangeReverseINS_9allocatorIN7doctest6StringEEENS_16reverse_iteratorIPS4_EEEEE10__completeB7v160006Ev, symObjAddr: 0x2B0C0, symBinAddr: 0x10002F800, symSize: 0x20 }
  - { offsetInCU: 0x56325, offset: 0x56325, size: 0x8, addend: 0x0, symName: __ZNSt3__128__exception_guard_exceptionsINS_29_AllocatorDestroyRangeReverseINS_9allocatorIN7doctest6StringEEENS_16reverse_iteratorIPS4_EEEEED1B7v160006Ev, symObjAddr: 0x2B0E0, symBinAddr: 0x10002F820, symSize: 0x20 }
  - { offsetInCU: 0x5634F, offset: 0x5634F, size: 0x8, addend: 0x0, symName: __ZNSt3__128__exception_guard_exceptionsINS_29_AllocatorDestroyRangeReverseINS_9allocatorIN7doctest6StringEEENS_16reverse_iteratorIPS4_EEEEEC1B7v160006ES9_, symObjAddr: 0x2B100, symBinAddr: 0x10002F840, symSize: 0x40 }
  - { offsetInCU: 0x56388, offset: 0x56388, size: 0x8, addend: 0x0, symName: __ZNSt3__128__exception_guard_exceptionsINS_29_AllocatorDestroyRangeReverseINS_9allocatorIN7doctest6StringEEENS_16reverse_iteratorIPS4_EEEEEC2B7v160006ES9_, symObjAddr: 0x2B140, symBinAddr: 0x10002F880, symSize: 0x30 }
  - { offsetInCU: 0x563C1, offset: 0x563C1, size: 0x8, addend: 0x0, symName: __ZNSt3__129_AllocatorDestroyRangeReverseINS_9allocatorIN7doctest6StringEEENS_16reverse_iteratorIPS3_EEEC2B7v160006ERS4_RS7_SA_, symObjAddr: 0x2B170, symBinAddr: 0x10002F8B0, symSize: 0x40 }
  - { offsetInCU: 0x5641E, offset: 0x5641E, size: 0x8, addend: 0x0, symName: __ZNSt3__119__to_address_helperINS_16reverse_iteratorIPN7doctest6StringEEEvE6__callB7v160006ERKS5_, symObjAddr: 0x2B1B0, symBinAddr: 0x10002F8F0, symSize: 0x40 }
  - { offsetInCU: 0x56442, offset: 0x56442, size: 0x8, addend: 0x0, symName: __ZNKSt3__116reverse_iteratorIPN7doctest6StringEEptB7v160006Ev, symObjAddr: 0x2B1F0, symBinAddr: 0x10002F930, symSize: 0x20 }
  - { offsetInCU: 0x56468, offset: 0x56468, size: 0x8, addend: 0x0, symName: __ZNSt3__128__exception_guard_exceptionsINS_29_AllocatorDestroyRangeReverseINS_9allocatorIN7doctest6StringEEENS_16reverse_iteratorIPS4_EEEEED2B7v160006Ev, symObjAddr: 0x2B210, symBinAddr: 0x10002F950, symSize: 0x40 }
  - { offsetInCU: 0x56492, offset: 0x56492, size: 0x8, addend: 0x0, symName: __ZNKSt3__129_AllocatorDestroyRangeReverseINS_9allocatorIN7doctest6StringEEENS_16reverse_iteratorIPS3_EEEclB7v160006Ev, symObjAddr: 0x2B250, symBinAddr: 0x10002F990, symSize: 0xF0 }
  - { offsetInCU: 0x564B9, offset: 0x564B9, size: 0x8, addend: 0x0, symName: __ZNSt3__116reverse_iteratorINS0_IPN7doctest6StringEEEEC1B7v160006ES4_, symObjAddr: 0x2B3B0, symBinAddr: 0x10002FAF0, symSize: 0x30 }
  - { offsetInCU: 0x564F2, offset: 0x564F2, size: 0x8, addend: 0x0, symName: __ZNSt3__116reverse_iteratorINS0_IPN7doctest6StringEEEEppB7v160006Ev, symObjAddr: 0x2B450, symBinAddr: 0x10002FB90, symSize: 0x30 }
  - { offsetInCU: 0x56518, offset: 0x56518, size: 0x8, addend: 0x0, symName: __ZNKSt3__116reverse_iteratorINS0_IPN7doctest6StringEEEE4baseB7v160006Ev, symObjAddr: 0x2B480, symBinAddr: 0x10002FBC0, symSize: 0x20 }
  - { offsetInCU: 0x56544, offset: 0x56544, size: 0x8, addend: 0x0, symName: __ZNSt3__119__to_address_helperINS_16reverse_iteratorINS1_IPN7doctest6StringEEEEEvE6__callB7v160006ERKS6_, symObjAddr: 0x2B4A0, symBinAddr: 0x10002FBE0, symSize: 0x40 }
  - { offsetInCU: 0x56568, offset: 0x56568, size: 0x8, addend: 0x0, symName: __ZNKSt3__116reverse_iteratorINS0_IPN7doctest6StringEEEEptB7v160006Ev, symObjAddr: 0x2B4E0, symBinAddr: 0x10002FC20, symSize: 0x20 }
  - { offsetInCU: 0x5658E, offset: 0x5658E, size: 0x8, addend: 0x0, symName: __ZNKSt3__116reverse_iteratorINS0_IPN7doctest6StringEEEEdeB7v160006Ev, symObjAddr: 0x2B500, symBinAddr: 0x10002FC40, symSize: 0x40 }
  - { offsetInCU: 0x565C3, offset: 0x565C3, size: 0x8, addend: 0x0, symName: __ZNSt3__116reverse_iteratorIPN7doctest6StringEEmmB7v160006Ev, symObjAddr: 0x2B540, symBinAddr: 0x10002FC80, symSize: 0x20 }
  - { offsetInCU: 0x565E9, offset: 0x565E9, size: 0x8, addend: 0x0, symName: __ZNSt3__116reverse_iteratorINS0_IPN7doctest6StringEEEEC2B7v160006ES4_, symObjAddr: 0x2B560, symBinAddr: 0x10002FCA0, symSize: 0x40 }
  - { offsetInCU: 0x56622, offset: 0x56622, size: 0x8, addend: 0x0, symName: __ZNSt3__116reverse_iteratorIPN7doctest6StringEEC2B7v160006ES3_, symObjAddr: 0x2B5A0, symBinAddr: 0x10002FCE0, symSize: 0x30 }
  - { offsetInCU: 0x5665B, offset: 0x5665B, size: 0x8, addend: 0x0, symName: __ZNSt3__114__split_bufferIN7doctest6StringERNS_9allocatorIS2_EEED2Ev, symObjAddr: 0x2B5D0, symBinAddr: 0x10002FD10, symSize: 0x70 }
  - { offsetInCU: 0x56687, offset: 0x56687, size: 0x8, addend: 0x0, symName: __ZNSt3__114__split_bufferIN7doctest6StringERNS_9allocatorIS2_EEE5clearB7v160006Ev, symObjAddr: 0x2B640, symBinAddr: 0x10002FD80, symSize: 0x20 }
  - { offsetInCU: 0x566AD, offset: 0x566AD, size: 0x8, addend: 0x0, symName: __ZNKSt3__114__split_bufferIN7doctest6StringERNS_9allocatorIS2_EEE8capacityB7v160006Ev, symObjAddr: 0x2B660, symBinAddr: 0x10002FDA0, symSize: 0x40 }
  - { offsetInCU: 0x566D3, offset: 0x566D3, size: 0x8, addend: 0x0, symName: __ZNSt3__114__split_bufferIN7doctest6StringERNS_9allocatorIS2_EEE17__destruct_at_endB7v160006EPS2_, symObjAddr: 0x2B6A0, symBinAddr: 0x10002FDE0, symSize: 0x30 }
  - { offsetInCU: 0x56708, offset: 0x56708, size: 0x8, addend: 0x0, symName: __ZNSt3__114__split_bufferIN7doctest6StringERNS_9allocatorIS2_EEE17__destruct_at_endB7v160006EPS2_NS_17integral_constantIbLb0EEE, symObjAddr: 0x2B6D0, symBinAddr: 0x10002FE10, symSize: 0x80 }
  - { offsetInCU: 0x5674A, offset: 0x5674A, size: 0x8, addend: 0x0, symName: __ZNKSt3__114__split_bufferIN7doctest6StringERNS_9allocatorIS2_EEE9__end_capB7v160006Ev, symObjAddr: 0x2B750, symBinAddr: 0x10002FE90, symSize: 0x20 }
  - { offsetInCU: 0x56770, offset: 0x56770, size: 0x8, addend: 0x0, symName: __ZNKSt3__117__compressed_pairIPN7doctest6StringERNS_9allocatorIS2_EEE5firstB7v160006Ev, symObjAddr: 0x2B770, symBinAddr: 0x10002FEB0, symSize: 0x20 }
  - { offsetInCU: 0x56796, offset: 0x56796, size: 0x8, addend: 0x0, symName: __ZNSt3__16vectorIPN7doctest13IContextScopeENS_9allocatorIS3_EEE17__destruct_at_endB7v160006EPS3_, symObjAddr: 0x2B790, symBinAddr: 0x10002FED0, symSize: 0x60 }
  - { offsetInCU: 0x567DA, offset: 0x567DA, size: 0x8, addend: 0x0, symName: __ZNSt3__16vectorIPN7doctest13IContextScopeENS_9allocatorIS3_EEE27__invalidate_iterators_pastB7v160006EPS3_, symObjAddr: 0x2B7F0, symBinAddr: 0x10002FF30, symSize: 0x10 }
  - { offsetInCU: 0x56811, offset: 0x56811, size: 0x8, addend: 0x0, symName: __ZNKSt3__16vectorIPN7doctest13IContextScopeENS_9allocatorIS3_EEE17__annotate_shrinkB7v160006Em, symObjAddr: 0x2B800, symBinAddr: 0x10002FF40, symSize: 0xA0 }
  - { offsetInCU: 0x56846, offset: 0x56846, size: 0x8, addend: 0x0, symName: __ZNSt3__16__treeINS_12__value_typeINS_4pairIiN7doctest6StringEEEPFPNS3_9IReporterERKNS3_14ContextOptionsEEEENS_19__map_value_compareIS5_SD_NS_4lessIS5_EELb1EEENS_9allocatorISD_EEE5beginB7v160006Ev, symObjAddr: 0x2B8A0, symBinAddr: 0x10002FFE0, symSize: 0x30 }
  - { offsetInCU: 0x5686C, offset: 0x5686C, size: 0x8, addend: 0x0, symName: __ZNSt3__114__map_iteratorINS_15__tree_iteratorINS_12__value_typeINS_4pairIiN7doctest6StringEEEPFPNS4_9IReporterERKNS4_14ContextOptionsEEEEPNS_11__tree_nodeISE_PvEElEEEC1B7v160006ESJ_, symObjAddr: 0x2B8D0, symBinAddr: 0x100030010, symSize: 0x30 }
  - { offsetInCU: 0x568A5, offset: 0x568A5, size: 0x8, addend: 0x0, symName: __ZNSt3__115__tree_iteratorINS_12__value_typeINS_4pairIiN7doctest6StringEEEPFPNS3_9IReporterERKNS3_14ContextOptionsEEEEPNS_11__tree_nodeISD_PvEElEC1B7v160006EPNS_15__tree_end_nodeIPNS_16__tree_node_baseISF_EEEE, symObjAddr: 0x2B900, symBinAddr: 0x100030040, symSize: 0x30 }
  - { offsetInCU: 0x568DE, offset: 0x568DE, size: 0x8, addend: 0x0, symName: __ZNSt3__115__tree_iteratorINS_12__value_typeINS_4pairIiN7doctest6StringEEEPFPNS3_9IReporterERKNS3_14ContextOptionsEEEEPNS_11__tree_nodeISD_PvEElEC2B7v160006EPNS_15__tree_end_nodeIPNS_16__tree_node_baseISF_EEEE, symObjAddr: 0x2B930, symBinAddr: 0x100030070, symSize: 0x20 }
  - { offsetInCU: 0x56917, offset: 0x56917, size: 0x8, addend: 0x0, symName: __ZNSt3__114__map_iteratorINS_15__tree_iteratorINS_12__value_typeINS_4pairIiN7doctest6StringEEEPFPNS4_9IReporterERKNS4_14ContextOptionsEEEEPNS_11__tree_nodeISE_PvEElEEEC2B7v160006ESJ_, symObjAddr: 0x2B950, symBinAddr: 0x100030090, symSize: 0x20 }
  - { offsetInCU: 0x56950, offset: 0x56950, size: 0x8, addend: 0x0, symName: __ZNSt3__16__treeINS_12__value_typeINS_4pairIiN7doctest6StringEEEPFPNS3_9IReporterERKNS3_14ContextOptionsEEEENS_19__map_value_compareIS5_SD_NS_4lessIS5_EELb1EEENS_9allocatorISD_EEE3endB7v160006Ev, symObjAddr: 0x2B970, symBinAddr: 0x1000300B0, symSize: 0x30 }
  - { offsetInCU: 0x56976, offset: 0x56976, size: 0x8, addend: 0x0, symName: __ZNSt3__115__tree_iteratorINS_12__value_typeINS_4pairIiN7doctest6StringEEEPFPNS3_9IReporterERKNS3_14ContextOptionsEEEEPNS_11__tree_nodeISD_PvEElEppB7v160006Ev, symObjAddr: 0x2BA00, symBinAddr: 0x100030140, symSize: 0x30 }
  - { offsetInCU: 0x5699C, offset: 0x5699C, size: 0x8, addend: 0x0, symName: __ZNKSt3__115__tree_iteratorINS_12__value_typeINS_4pairIiN7doctest6StringEEEPFPNS3_9IReporterERKNS3_14ContextOptionsEEEEPNS_11__tree_nodeISD_PvEElEptB7v160006Ev, symObjAddr: 0x2BAE0, symBinAddr: 0x100030220, symSize: 0x30 }
  - { offsetInCU: 0x569C2, offset: 0x569C2, size: 0x8, addend: 0x0, symName: __ZNSt3__114pointer_traitsIPNS_12__value_typeINS_4pairIiN7doctest6StringEEEPFPNS3_9IReporterERKNS3_14ContextOptionsEEEEE10pointer_toB7v160006ERSD_, symObjAddr: 0x2BB10, symBinAddr: 0x100030250, symSize: 0x10 }
  - { offsetInCU: 0x569E6, offset: 0x569E6, size: 0x8, addend: 0x0, symName: __ZNKSt3__115__tree_iteratorINS_12__value_typeINS_4pairIiN7doctest6StringEEEPFPNS3_9IReporterERKNS3_14ContextOptionsEEEEPNS_11__tree_nodeISD_PvEElE8__get_npB7v160006Ev, symObjAddr: 0x2BB20, symBinAddr: 0x100030260, symSize: 0x20 }
  - { offsetInCU: 0x56A1D, offset: 0x56A1D, size: 0x8, addend: 0x0, symName: __ZN7doctest12_GLOBAL__N_111XmlReporterC1ERKNS_14ContextOptionsE, symObjAddr: 0x2BBA0, symBinAddr: 0x1000302E0, symSize: 0x30 }
  - { offsetInCU: 0x56A56, offset: 0x56A56, size: 0x8, addend: 0x0, symName: __ZN7doctest12_GLOBAL__N_111XmlReporterC2ERKNS_14ContextOptionsE, symObjAddr: 0x2BBD0, symBinAddr: 0x100030310, symSize: 0x90 }
  - { offsetInCU: 0x56A8F, offset: 0x56A8F, size: 0x8, addend: 0x0, symName: __ZN7doctest9IReporterC2Ev, symObjAddr: 0x2BC60, symBinAddr: 0x1000303A0, symSize: 0x20 }
  - { offsetInCU: 0x56AB9, offset: 0x56AB9, size: 0x8, addend: 0x0, symName: __ZN7doctest12_GLOBAL__N_19XmlWriterC1ERNSt3__113basic_ostreamIcNS2_11char_traitsIcEEEE, symObjAddr: 0x2BC80, symBinAddr: 0x1000303C0, symSize: 0x30 }
  - { offsetInCU: 0x56AF4, offset: 0x56AF4, size: 0x8, addend: 0x0, symName: __ZNSt3__15mutexC1B7v160006Ev, symObjAddr: 0x2BCB0, symBinAddr: 0x1000303F0, symSize: 0x20 }
  - { offsetInCU: 0x56B1E, offset: 0x56B1E, size: 0x8, addend: 0x0, symName: __ZN7doctest12_GLOBAL__N_111XmlReporter12report_queryERKNS_9QueryDataE, symObjAddr: 0x2BCD0, symBinAddr: 0x100030410, symSize: 0xC00 }
  - { offsetInCU: 0x56C19, offset: 0x56C19, size: 0x8, addend: 0x0, symName: __ZN7doctest12_GLOBAL__N_111XmlReporter14test_run_startEv, symObjAddr: 0x2C8D0, symBinAddr: 0x100031010, symSize: 0x670 }
  - { offsetInCU: 0x56C4E, offset: 0x56C4E, size: 0x8, addend: 0x0, symName: __ZN7doctest12_GLOBAL__N_111XmlReporter12test_run_endERKNS_12TestRunStatsE, symObjAddr: 0x2CF40, symBinAddr: 0x100031680, symSize: 0x3B0 }
  - { offsetInCU: 0x56C83, offset: 0x56C83, size: 0x8, addend: 0x0, symName: __ZN7doctest12_GLOBAL__N_111XmlReporter15test_case_startERKNS_12TestCaseDataE, symObjAddr: 0x2D2F0, symBinAddr: 0x100031A30, symSize: 0x40 }
  - { offsetInCU: 0x56CB8, offset: 0x56CB8, size: 0x8, addend: 0x0, symName: __ZN7doctest12_GLOBAL__N_111XmlReporter17test_case_reenterERKNS_12TestCaseDataE, symObjAddr: 0x2D330, symBinAddr: 0x100031A70, symSize: 0x10 }
  - { offsetInCU: 0x56CE9, offset: 0x56CE9, size: 0x8, addend: 0x0, symName: __ZN7doctest12_GLOBAL__N_111XmlReporter13test_case_endERKNS_20CurrentTestCaseStatsE, symObjAddr: 0x2D340, symBinAddr: 0x100031A80, symSize: 0x310 }
  - { offsetInCU: 0x56D1E, offset: 0x56D1E, size: 0x8, addend: 0x0, symName: __ZN7doctest12_GLOBAL__N_111XmlReporter19test_case_exceptionERKNS_17TestCaseExceptionE, symObjAddr: 0x2D650, symBinAddr: 0x100031D90, symSize: 0x1A0 }
  - { offsetInCU: 0x56D62, offset: 0x56D62, size: 0x8, addend: 0x0, symName: __ZN7doctest12_GLOBAL__N_111XmlReporter13subcase_startERKNS_16SubcaseSignatureE, symObjAddr: 0x2D7F0, symBinAddr: 0x100031F30, symSize: 0x1E0 }
  - { offsetInCU: 0x56D97, offset: 0x56D97, size: 0x8, addend: 0x0, symName: __ZN7doctest12_GLOBAL__N_111XmlReporter11subcase_endEv, symObjAddr: 0x2D9D0, symBinAddr: 0x100032110, symSize: 0x20 }
  - { offsetInCU: 0x56DBD, offset: 0x56DBD, size: 0x8, addend: 0x0, symName: __ZN7doctest12_GLOBAL__N_111XmlReporter10log_assertERKNS_10AssertDataE, symObjAddr: 0x2D9F0, symBinAddr: 0x100032130, symSize: 0x880 }
  - { offsetInCU: 0x56E01, offset: 0x56E01, size: 0x8, addend: 0x0, symName: __ZN7doctest12_GLOBAL__N_111XmlReporter11log_messageERKNS_11MessageDataE, symObjAddr: 0x2E270, symBinAddr: 0x1000329B0, symSize: 0x350 }
  - { offsetInCU: 0x56E45, offset: 0x56E45, size: 0x8, addend: 0x0, symName: __ZN7doctest12_GLOBAL__N_111XmlReporter17test_case_skippedERKNS_12TestCaseDataE, symObjAddr: 0x2E5C0, symBinAddr: 0x100032D00, symSize: 0xC0 }
  - { offsetInCU: 0x56E7A, offset: 0x56E7A, size: 0x8, addend: 0x0, symName: __ZN7doctest12_GLOBAL__N_111XmlReporterD1Ev, symObjAddr: 0x2E680, symBinAddr: 0x100032DC0, symSize: 0x20 }
  - { offsetInCU: 0x56EA7, offset: 0x56EA7, size: 0x8, addend: 0x0, symName: __ZN7doctest12_GLOBAL__N_111XmlReporterD0Ev, symObjAddr: 0x2E6A0, symBinAddr: 0x100032DE0, symSize: 0x30 }
  - { offsetInCU: 0x56ED4, offset: 0x56ED4, size: 0x8, addend: 0x0, symName: __ZN7doctest12_GLOBAL__N_19XmlWriterC2ERNSt3__113basic_ostreamIcNS2_11char_traitsIcEEEE, symObjAddr: 0x2E6D0, symBinAddr: 0x100032E10, symSize: 0x50 }
  - { offsetInCU: 0x56F0F, offset: 0x56F0F, size: 0x8, addend: 0x0, symName: __ZNSt3__16vectorINS_12basic_stringIcNS_11char_traitsIcEENS_9allocatorIcEEEENS4_IS6_EEEC1B7v160006Ev, symObjAddr: 0x2E720, symBinAddr: 0x100032E60, symSize: 0x20 }
  - { offsetInCU: 0x56F39, offset: 0x56F39, size: 0x8, addend: 0x0, symName: __ZNSt3__16vectorINS_12basic_stringIcNS_11char_traitsIcEENS_9allocatorIcEEEENS4_IS6_EEEC2B7v160006Ev, symObjAddr: 0x2E740, symBinAddr: 0x100032E80, symSize: 0x60 }
  - { offsetInCU: 0x56F63, offset: 0x56F63, size: 0x8, addend: 0x0, symName: __ZNSt3__117__compressed_pairIPNS_12basic_stringIcNS_11char_traitsIcEENS_9allocatorIcEEEENS4_IS6_EEEC1B7v160006IDnNS_18__default_init_tagEEEOT_OT0_, symObjAddr: 0x2E7A0, symBinAddr: 0x100032EE0, symSize: 0x30 }
  - { offsetInCU: 0x56FBD, offset: 0x56FBD, size: 0x8, addend: 0x0, symName: __ZNSt3__117__compressed_pairIPNS_12basic_stringIcNS_11char_traitsIcEENS_9allocatorIcEEEENS4_IS6_EEEC2B7v160006IDnNS_18__default_init_tagEEEOT_OT0_, symObjAddr: 0x2E7E0, symBinAddr: 0x100032F20, symSize: 0x40 }
  - { offsetInCU: 0x57017, offset: 0x57017, size: 0x8, addend: 0x0, symName: __ZNSt3__122__compressed_pair_elemIPNS_12basic_stringIcNS_11char_traitsIcEENS_9allocatorIcEEEELi0ELb0EEC2B7v160006IDnvEEOT_, symObjAddr: 0x2E820, symBinAddr: 0x100032F60, symSize: 0x20 }
  - { offsetInCU: 0x5705A, offset: 0x5705A, size: 0x8, addend: 0x0, symName: __ZNSt3__122__compressed_pair_elemINS_9allocatorINS_12basic_stringIcNS_11char_traitsIcEENS1_IcEEEEEELi1ELb1EEC2B7v160006ENS_18__default_init_tagE, symObjAddr: 0x2E840, symBinAddr: 0x100032F80, symSize: 0x20 }
  - { offsetInCU: 0x5708F, offset: 0x5708F, size: 0x8, addend: 0x0, symName: __ZNSt3__19allocatorINS_12basic_stringIcNS_11char_traitsIcEENS0_IcEEEEEC2B7v160006Ev, symObjAddr: 0x2E860, symBinAddr: 0x100032FA0, symSize: 0x20 }
  - { offsetInCU: 0x570B9, offset: 0x570B9, size: 0x8, addend: 0x0, symName: __ZNSt3__116__non_trivial_ifILb1ENS_9allocatorINS_12basic_stringIcNS_11char_traitsIcEENS1_IcEEEEEEEC2B7v160006Ev, symObjAddr: 0x2E880, symBinAddr: 0x100032FC0, symSize: 0x10 }
  - { offsetInCU: 0x570E3, offset: 0x570E3, size: 0x8, addend: 0x0, symName: __ZNSt3__15mutexC2B7v160006Ev, symObjAddr: 0x2E890, symBinAddr: 0x100032FD0, symSize: 0x30 }
  - { offsetInCU: 0x5710D, offset: 0x5710D, size: 0x8, addend: 0x0, symName: __ZN7doctest12_GLOBAL__N_19XmlWriter13scopedElementERKNSt3__112basic_stringIcNS2_11char_traitsIcEENS2_9allocatorIcEEEE, symObjAddr: 0x2E8C0, symBinAddr: 0x100033000, symSize: 0x90 }
  - { offsetInCU: 0x57154, offset: 0x57154, size: 0x8, addend: 0x0, symName: __ZN7doctest12_GLOBAL__N_19XmlWriter13ScopedElement14writeAttributeIiEERS2_RKNSt3__112basic_stringIcNS5_11char_traitsIcEENS5_9allocatorIcEEEERKT_, symObjAddr: 0x2E950, symBinAddr: 0x100033090, symSize: 0x40 }
  - { offsetInCU: 0x571A1, offset: 0x571A1, size: 0x8, addend: 0x0, symName: __ZN7doctest12_GLOBAL__N_19XmlWriter13ScopedElement14writeAttributeINS_6StringEEERS2_RKNSt3__112basic_stringIcNS6_11char_traitsIcEENS6_9allocatorIcEEEERKT_, symObjAddr: 0x2E990, symBinAddr: 0x1000330D0, symSize: 0x40 }
  - { offsetInCU: 0x571EE, offset: 0x571EE, size: 0x8, addend: 0x0, symName: __ZN7doctest12_GLOBAL__N_19XmlWriter13ScopedElementD1Ev, symObjAddr: 0x2E9D0, symBinAddr: 0x100033110, symSize: 0x20 }
  - { offsetInCU: 0x57220, offset: 0x57220, size: 0x8, addend: 0x0, symName: __ZN7doctest12_GLOBAL__N_19XmlWriter13ScopedElement14writeAttributeIPKcEERS2_RKNSt3__112basic_stringIcNS7_11char_traitsIcEENS7_9allocatorIcEEEERKT_, symObjAddr: 0x2E9F0, symBinAddr: 0x100033130, symSize: 0x40 }
  - { offsetInCU: 0x5726D, offset: 0x5726D, size: 0x8, addend: 0x0, symName: __ZN7doctest12_GLOBAL__N_19XmlWriter13ScopedElement14writeAttributeIjEERS2_RKNSt3__112basic_stringIcNS5_11char_traitsIcEENS5_9allocatorIcEEEERKT_, symObjAddr: 0x2EA30, symBinAddr: 0x100033170, symSize: 0x40 }
  - { offsetInCU: 0x572BA, offset: 0x572BA, size: 0x8, addend: 0x0, symName: __ZNK7doctest12_GLOBAL__N_111XmlReporter4lineEj, symObjAddr: 0x2EA70, symBinAddr: 0x1000331B0, symSize: 0x40 }
  - { offsetInCU: 0x572F5, offset: 0x572F5, size: 0x8, addend: 0x0, symName: __ZN7doctest12_GLOBAL__N_19XmlWriter13ScopedElement14writeAttributeIbEERS2_RKNSt3__112basic_stringIcNS5_11char_traitsIcEENS5_9allocatorIcEEEERKT_, symObjAddr: 0x2EAB0, symBinAddr: 0x1000331F0, symSize: 0x40 }
  - { offsetInCU: 0x57342, offset: 0x57342, size: 0x8, addend: 0x0, symName: __ZN7doctest12_GLOBAL__N_19XmlWriter10endElementEv, symObjAddr: 0x2EAF0, symBinAddr: 0x100033230, symSize: 0x110 }
  - { offsetInCU: 0x5736A, offset: 0x5736A, size: 0x8, addend: 0x0, symName: __ZN7doctest12_GLOBAL__N_19XmlWriter13ScopedElementC1EPS1_, symObjAddr: 0x2EC00, symBinAddr: 0x100033340, symSize: 0x30 }
  - { offsetInCU: 0x573A5, offset: 0x573A5, size: 0x8, addend: 0x0, symName: __ZN7doctest12_GLOBAL__N_19XmlWriter12startElementERKNSt3__112basic_stringIcNS2_11char_traitsIcEENS2_9allocatorIcEEEE, symObjAddr: 0x2EC30, symBinAddr: 0x100033370, symSize: 0x90 }
  - { offsetInCU: 0x573DC, offset: 0x573DC, size: 0x8, addend: 0x0, symName: __ZN7doctest12_GLOBAL__N_19XmlWriter13ScopedElementC2EPS1_, symObjAddr: 0x2ECC0, symBinAddr: 0x100033400, symSize: 0x20 }
  - { offsetInCU: 0x57417, offset: 0x57417, size: 0x8, addend: 0x0, symName: __ZN7doctest12_GLOBAL__N_19XmlWriter15ensureTagClosedEv, symObjAddr: 0x2ECE0, symBinAddr: 0x100033420, symSize: 0x50 }
  - { offsetInCU: 0x5743F, offset: 0x5743F, size: 0x8, addend: 0x0, symName: __ZN7doctest12_GLOBAL__N_19XmlWriter18newlineIfNecessaryEv, symObjAddr: 0x2ED30, symBinAddr: 0x100033470, symSize: 0x40 }
  - { offsetInCU: 0x57467, offset: 0x57467, size: 0x8, addend: 0x0, symName: __ZNSt3__16vectorINS_12basic_stringIcNS_11char_traitsIcEENS_9allocatorIcEEEENS4_IS6_EEE9push_backB7v160006ERKS6_, symObjAddr: 0x2EDF0, symBinAddr: 0x100033530, symSize: 0x60 }
  - { offsetInCU: 0x5749E, offset: 0x5749E, size: 0x8, addend: 0x0, symName: __ZNSt3__112basic_stringIcNS_11char_traitsIcEENS_9allocatorIcEEEpLB7v160006EPKc, symObjAddr: 0x2EE50, symBinAddr: 0x100033590, symSize: 0x30 }
  - { offsetInCU: 0x574D3, offset: 0x574D3, size: 0x8, addend: 0x0, symName: __ZNSt3__113basic_ostreamIcNS_11char_traitsIcEEElsB7v160006EPFRS3_S4_E, symObjAddr: 0x2EE80, symBinAddr: 0x1000335C0, symSize: 0x20 }
  - { offsetInCU: 0x57508, offset: 0x57508, size: 0x8, addend: 0x0, symName: __ZNSt3__16vectorINS_12basic_stringIcNS_11char_traitsIcEENS_9allocatorIcEEEENS4_IS6_EEE9__end_capB7v160006Ev, symObjAddr: 0x2EEF0, symBinAddr: 0x100033630, symSize: 0x20 }
  - { offsetInCU: 0x5752E, offset: 0x5752E, size: 0x8, addend: 0x0, symName: __ZNSt3__16vectorINS_12basic_stringIcNS_11char_traitsIcEENS_9allocatorIcEEEENS4_IS6_EEE22__construct_one_at_endB7v160006IJRKS6_EEEvDpOT_, symObjAddr: 0x2EF10, symBinAddr: 0x100033650, symSize: 0x90 }
  - { offsetInCU: 0x5757D, offset: 0x5757D, size: 0x8, addend: 0x0, symName: __ZNSt3__16vectorINS_12basic_stringIcNS_11char_traitsIcEENS_9allocatorIcEEEENS4_IS6_EEE21__push_back_slow_pathIRKS6_EEvOT_, symObjAddr: 0x2EFA0, symBinAddr: 0x1000336E0, symSize: 0xD0 }
  - { offsetInCU: 0x575DB, offset: 0x575DB, size: 0x8, addend: 0x0, symName: __ZNSt3__117__compressed_pairIPNS_12basic_stringIcNS_11char_traitsIcEENS_9allocatorIcEEEENS4_IS6_EEE5firstB7v160006Ev, symObjAddr: 0x2F070, symBinAddr: 0x1000337B0, symSize: 0x20 }
  - { offsetInCU: 0x57601, offset: 0x57601, size: 0x8, addend: 0x0, symName: __ZNSt3__122__compressed_pair_elemIPNS_12basic_stringIcNS_11char_traitsIcEENS_9allocatorIcEEEELi0ELb0EE5__getB7v160006Ev, symObjAddr: 0x2F090, symBinAddr: 0x1000337D0, symSize: 0x10 }
  - { offsetInCU: 0x57643, offset: 0x57643, size: 0x8, addend: 0x0, symName: __ZNSt3__16vectorINS_12basic_stringIcNS_11char_traitsIcEENS_9allocatorIcEEEENS4_IS6_EEE21_ConstructTransactionC1B7v160006ERS8_m, symObjAddr: 0x2F0A0, symBinAddr: 0x1000337E0, symSize: 0x30 }
  - { offsetInCU: 0x5768B, offset: 0x5768B, size: 0x8, addend: 0x0, symName: __ZNSt3__116allocator_traitsINS_9allocatorINS_12basic_stringIcNS_11char_traitsIcEENS1_IcEEEEEEE9constructB7v160006IS6_JRKS6_EvEEvRS7_PT_DpOT0_, symObjAddr: 0x2F0D0, symBinAddr: 0x100033810, symSize: 0x30 }
  - { offsetInCU: 0x576E2, offset: 0x576E2, size: 0x8, addend: 0x0, symName: __ZNSt3__16vectorINS_12basic_stringIcNS_11char_traitsIcEENS_9allocatorIcEEEENS4_IS6_EEE7__allocB7v160006Ev, symObjAddr: 0x2F100, symBinAddr: 0x100033840, symSize: 0x20 }
  - { offsetInCU: 0x57708, offset: 0x57708, size: 0x8, addend: 0x0, symName: __ZNSt3__16vectorINS_12basic_stringIcNS_11char_traitsIcEENS_9allocatorIcEEEENS4_IS6_EEE21_ConstructTransactionD1B7v160006Ev, symObjAddr: 0x2F130, symBinAddr: 0x100033870, symSize: 0x20 }
  - { offsetInCU: 0x57732, offset: 0x57732, size: 0x8, addend: 0x0, symName: __ZNSt3__16vectorINS_12basic_stringIcNS_11char_traitsIcEENS_9allocatorIcEEEENS4_IS6_EEE21_ConstructTransactionC2B7v160006ERS8_m, symObjAddr: 0x2F150, symBinAddr: 0x100033890, symSize: 0x40 }
  - { offsetInCU: 0x5777A, offset: 0x5777A, size: 0x8, addend: 0x0, symName: __ZNSt3__19allocatorINS_12basic_stringIcNS_11char_traitsIcEENS0_IcEEEEE9constructB7v160006IS5_JRKS5_EEEvPT_DpOT0_, symObjAddr: 0x2F190, symBinAddr: 0x1000338D0, symSize: 0x30 }
  - { offsetInCU: 0x577D2, offset: 0x577D2, size: 0x8, addend: 0x0, symName: __ZNSt3__117__compressed_pairIPNS_12basic_stringIcNS_11char_traitsIcEENS_9allocatorIcEEEENS4_IS6_EEE6secondB7v160006Ev, symObjAddr: 0x2F1C0, symBinAddr: 0x100033900, symSize: 0x20 }
  - { offsetInCU: 0x577F8, offset: 0x577F8, size: 0x8, addend: 0x0, symName: __ZNSt3__122__compressed_pair_elemINS_9allocatorINS_12basic_stringIcNS_11char_traitsIcEENS1_IcEEEEEELi1ELb1EE5__getB7v160006Ev, symObjAddr: 0x2F1E0, symBinAddr: 0x100033920, symSize: 0x10 }
  - { offsetInCU: 0x5781E, offset: 0x5781E, size: 0x8, addend: 0x0, symName: __ZNSt3__16vectorINS_12basic_stringIcNS_11char_traitsIcEENS_9allocatorIcEEEENS4_IS6_EEE21_ConstructTransactionD2B7v160006Ev, symObjAddr: 0x2F1F0, symBinAddr: 0x100033930, symSize: 0x20 }
  - { offsetInCU: 0x57848, offset: 0x57848, size: 0x8, addend: 0x0, symName: __ZNKSt3__16vectorINS_12basic_stringIcNS_11char_traitsIcEENS_9allocatorIcEEEENS4_IS6_EEE11__recommendB7v160006Em, symObjAddr: 0x2F210, symBinAddr: 0x100033950, symSize: 0xA0 }
  - { offsetInCU: 0x5789D, offset: 0x5789D, size: 0x8, addend: 0x0, symName: __ZNKSt3__16vectorINS_12basic_stringIcNS_11char_traitsIcEENS_9allocatorIcEEEENS4_IS6_EEE4sizeB7v160006Ev, symObjAddr: 0x2F2B0, symBinAddr: 0x1000339F0, symSize: 0x30 }
  - { offsetInCU: 0x578C3, offset: 0x578C3, size: 0x8, addend: 0x0, symName: __ZNSt3__114__split_bufferINS_12basic_stringIcNS_11char_traitsIcEENS_9allocatorIcEEEERNS4_IS6_EEEC1EmmS8_, symObjAddr: 0x2F2E0, symBinAddr: 0x100033A20, symSize: 0x40 }
  - { offsetInCU: 0x5791C, offset: 0x5791C, size: 0x8, addend: 0x0, symName: __ZNSt3__114__split_bufferINS_12basic_stringIcNS_11char_traitsIcEENS_9allocatorIcEEEERNS4_IS6_EEED1Ev, symObjAddr: 0x2F450, symBinAddr: 0x100033B90, symSize: 0x20 }
  - { offsetInCU: 0x57948, offset: 0x57948, size: 0x8, addend: 0x0, symName: __ZNKSt3__16vectorINS_12basic_stringIcNS_11char_traitsIcEENS_9allocatorIcEEEENS4_IS6_EEE8max_sizeEv, symObjAddr: 0x2F470, symBinAddr: 0x100033BB0, symSize: 0x60 }
  - { offsetInCU: 0x57970, offset: 0x57970, size: 0x8, addend: 0x0, symName: __ZNKSt3__16vectorINS_12basic_stringIcNS_11char_traitsIcEENS_9allocatorIcEEEENS4_IS6_EEE20__throw_length_errorB7v160006Ev, symObjAddr: 0x2F4D0, symBinAddr: 0x100033C10, symSize: 0x20 }
  - { offsetInCU: 0x57996, offset: 0x57996, size: 0x8, addend: 0x0, symName: __ZNKSt3__16vectorINS_12basic_stringIcNS_11char_traitsIcEENS_9allocatorIcEEEENS4_IS6_EEE8capacityB7v160006Ev, symObjAddr: 0x2F4F0, symBinAddr: 0x100033C30, symSize: 0x40 }
  - { offsetInCU: 0x579C7, offset: 0x579C7, size: 0x8, addend: 0x0, symName: __ZNSt3__116allocator_traitsINS_9allocatorINS_12basic_stringIcNS_11char_traitsIcEENS1_IcEEEEEEE8max_sizeB7v160006IS7_vEEmRKS7_, symObjAddr: 0x2F530, symBinAddr: 0x100033C70, symSize: 0x20 }
  - { offsetInCU: 0x579F5, offset: 0x579F5, size: 0x8, addend: 0x0, symName: __ZNKSt3__16vectorINS_12basic_stringIcNS_11char_traitsIcEENS_9allocatorIcEEEENS4_IS6_EEE7__allocB7v160006Ev, symObjAddr: 0x2F550, symBinAddr: 0x100033C90, symSize: 0x20 }
  - { offsetInCU: 0x57A1B, offset: 0x57A1B, size: 0x8, addend: 0x0, symName: __ZNKSt3__19allocatorINS_12basic_stringIcNS_11char_traitsIcEENS0_IcEEEEE8max_sizeB7v160006Ev, symObjAddr: 0x2F570, symBinAddr: 0x100033CB0, symSize: 0x20 }
  - { offsetInCU: 0x57A41, offset: 0x57A41, size: 0x8, addend: 0x0, symName: __ZNKSt3__117__compressed_pairIPNS_12basic_stringIcNS_11char_traitsIcEENS_9allocatorIcEEEENS4_IS6_EEE6secondB7v160006Ev, symObjAddr: 0x2F590, symBinAddr: 0x100033CD0, symSize: 0x20 }
  - { offsetInCU: 0x57A67, offset: 0x57A67, size: 0x8, addend: 0x0, symName: __ZNKSt3__122__compressed_pair_elemINS_9allocatorINS_12basic_stringIcNS_11char_traitsIcEENS1_IcEEEEEELi1ELb1EE5__getB7v160006Ev, symObjAddr: 0x2F5B0, symBinAddr: 0x100033CF0, symSize: 0x10 }
  - { offsetInCU: 0x57A8D, offset: 0x57A8D, size: 0x8, addend: 0x0, symName: __ZNKSt3__16vectorINS_12basic_stringIcNS_11char_traitsIcEENS_9allocatorIcEEEENS4_IS6_EEE9__end_capB7v160006Ev, symObjAddr: 0x2F5C0, symBinAddr: 0x100033D00, symSize: 0x20 }
  - { offsetInCU: 0x57AB3, offset: 0x57AB3, size: 0x8, addend: 0x0, symName: __ZNKSt3__117__compressed_pairIPNS_12basic_stringIcNS_11char_traitsIcEENS_9allocatorIcEEEENS4_IS6_EEE5firstB7v160006Ev, symObjAddr: 0x2F5E0, symBinAddr: 0x100033D20, symSize: 0x20 }
  - { offsetInCU: 0x57AD9, offset: 0x57AD9, size: 0x8, addend: 0x0, symName: __ZNKSt3__122__compressed_pair_elemIPNS_12basic_stringIcNS_11char_traitsIcEENS_9allocatorIcEEEELi0ELb0EE5__getB7v160006Ev, symObjAddr: 0x2F600, symBinAddr: 0x100033D40, symSize: 0x10 }
  - { offsetInCU: 0x57AFF, offset: 0x57AFF, size: 0x8, addend: 0x0, symName: __ZNSt3__114__split_bufferINS_12basic_stringIcNS_11char_traitsIcEENS_9allocatorIcEEEERNS4_IS6_EEEC2EmmS8_, symObjAddr: 0x2F610, symBinAddr: 0x100033D50, symSize: 0xC0 }
  - { offsetInCU: 0x57B75, offset: 0x57B75, size: 0x8, addend: 0x0, symName: __ZNSt3__117__compressed_pairIPNS_12basic_stringIcNS_11char_traitsIcEENS_9allocatorIcEEEERNS4_IS6_EEEC1B7v160006IDnS9_EEOT_OT0_, symObjAddr: 0x2F6D0, symBinAddr: 0x100033E10, symSize: 0x30 }
  - { offsetInCU: 0x57BCF, offset: 0x57BCF, size: 0x8, addend: 0x0, symName: __ZNSt3__114__split_bufferINS_12basic_stringIcNS_11char_traitsIcEENS_9allocatorIcEEEERNS4_IS6_EEE7__allocB7v160006Ev, symObjAddr: 0x2F740, symBinAddr: 0x100033E80, symSize: 0x20 }
  - { offsetInCU: 0x57BF5, offset: 0x57BF5, size: 0x8, addend: 0x0, symName: __ZNSt3__114__split_bufferINS_12basic_stringIcNS_11char_traitsIcEENS_9allocatorIcEEEERNS4_IS6_EEE9__end_capB7v160006Ev, symObjAddr: 0x2F760, symBinAddr: 0x100033EA0, symSize: 0x20 }
  - { offsetInCU: 0x57C1B, offset: 0x57C1B, size: 0x8, addend: 0x0, symName: __ZNSt3__117__compressed_pairIPNS_12basic_stringIcNS_11char_traitsIcEENS_9allocatorIcEEEERNS4_IS6_EEEC2B7v160006IDnS9_EEOT_OT0_, symObjAddr: 0x2F780, symBinAddr: 0x100033EC0, symSize: 0x40 }
  - { offsetInCU: 0x57C75, offset: 0x57C75, size: 0x8, addend: 0x0, symName: __ZNSt3__122__compressed_pair_elemIRNS_9allocatorINS_12basic_stringIcNS_11char_traitsIcEENS1_IcEEEEEELi1ELb0EEC2B7v160006IS8_vEEOT_, symObjAddr: 0x2F7C0, symBinAddr: 0x100033F00, symSize: 0x20 }
  - { offsetInCU: 0x57CB8, offset: 0x57CB8, size: 0x8, addend: 0x0, symName: __ZNSt3__19allocatorINS_12basic_stringIcNS_11char_traitsIcEENS0_IcEEEEE8allocateB7v160006Em, symObjAddr: 0x2F7E0, symBinAddr: 0x100033F20, symSize: 0x50 }
  - { offsetInCU: 0x57CED, offset: 0x57CED, size: 0x8, addend: 0x0, symName: __ZNSt3__117__compressed_pairIPNS_12basic_stringIcNS_11char_traitsIcEENS_9allocatorIcEEEERNS4_IS6_EEE6secondB7v160006Ev, symObjAddr: 0x2F830, symBinAddr: 0x100033F70, symSize: 0x20 }
  - { offsetInCU: 0x57D13, offset: 0x57D13, size: 0x8, addend: 0x0, symName: __ZNSt3__122__compressed_pair_elemIRNS_9allocatorINS_12basic_stringIcNS_11char_traitsIcEENS1_IcEEEEEELi1ELb0EE5__getB7v160006Ev, symObjAddr: 0x2F850, symBinAddr: 0x100033F90, symSize: 0x20 }
  - { offsetInCU: 0x57D39, offset: 0x57D39, size: 0x8, addend: 0x0, symName: __ZNSt3__117__compressed_pairIPNS_12basic_stringIcNS_11char_traitsIcEENS_9allocatorIcEEEERNS4_IS6_EEE5firstB7v160006Ev, symObjAddr: 0x2F870, symBinAddr: 0x100033FB0, symSize: 0x20 }
  - { offsetInCU: 0x57D5F, offset: 0x57D5F, size: 0x8, addend: 0x0, symName: __ZNKSt3__16vectorINS_12basic_stringIcNS_11char_traitsIcEENS_9allocatorIcEEEENS4_IS6_EEE17__annotate_deleteB7v160006Ev, symObjAddr: 0x2F890, symBinAddr: 0x100033FD0, symSize: 0xB0 }
  - { offsetInCU: 0x57D85, offset: 0x57D85, size: 0x8, addend: 0x0, symName: __ZNSt3__116reverse_iteratorIPNS_12basic_stringIcNS_11char_traitsIcEENS_9allocatorIcEEEEEC1B7v160006ES7_, symObjAddr: 0x2FAC0, symBinAddr: 0x100034200, symSize: 0x30 }
  - { offsetInCU: 0x57DBE, offset: 0x57DBE, size: 0x8, addend: 0x0, symName: __ZNKSt3__116reverse_iteratorIPNS_12basic_stringIcNS_11char_traitsIcEENS_9allocatorIcEEEEE4baseB7v160006Ev, symObjAddr: 0x2FAF0, symBinAddr: 0x100034230, symSize: 0x20 }
  - { offsetInCU: 0x57DE4, offset: 0x57DE4, size: 0x8, addend: 0x0, symName: __ZNKSt3__16vectorINS_12basic_stringIcNS_11char_traitsIcEENS_9allocatorIcEEEENS4_IS6_EEE14__annotate_newB7v160006Em, symObjAddr: 0x2FB50, symBinAddr: 0x100034290, symSize: 0xA0 }
  - { offsetInCU: 0x57E19, offset: 0x57E19, size: 0x8, addend: 0x0, symName: __ZNKSt3__16vectorINS_12basic_stringIcNS_11char_traitsIcEENS_9allocatorIcEEEENS4_IS6_EEE31__annotate_contiguous_containerB7v160006EPKvSA_SA_SA_, symObjAddr: 0x2FC00, symBinAddr: 0x100034340, symSize: 0x20 }
  - { offsetInCU: 0x57E6B, offset: 0x57E6B, size: 0x8, addend: 0x0, symName: __ZNKSt3__16vectorINS_12basic_stringIcNS_11char_traitsIcEENS_9allocatorIcEEEENS4_IS6_EEE4dataB7v160006Ev, symObjAddr: 0x2FC20, symBinAddr: 0x100034360, symSize: 0x20 }
  - { offsetInCU: 0x57E91, offset: 0x57E91, size: 0x8, addend: 0x0, symName: __ZNSt3__129_AllocatorDestroyRangeReverseINS_9allocatorINS_12basic_stringIcNS_11char_traitsIcEENS1_IcEEEEEENS_16reverse_iteratorIPS6_EEEC1B7v160006ERS7_RSA_SD_, symObjAddr: 0x2FCA0, symBinAddr: 0x1000343E0, symSize: 0x40 }
  - { offsetInCU: 0x57EEE, offset: 0x57EEE, size: 0x8, addend: 0x0, symName: __ZNSt3__116allocator_traitsINS_9allocatorINS_12basic_stringIcNS_11char_traitsIcEENS1_IcEEEEEEE9constructB7v160006IS6_JS6_EvEEvRS7_PT_DpOT0_, symObjAddr: 0x2FD20, symBinAddr: 0x100034460, symSize: 0x30 }
  - { offsetInCU: 0x57F45, offset: 0x57F45, size: 0x8, addend: 0x0, symName: __ZNKSt3__116reverse_iteratorIPNS_12basic_stringIcNS_11char_traitsIcEENS_9allocatorIcEEEEEdeB7v160006Ev, symObjAddr: 0x2FD70, symBinAddr: 0x1000344B0, symSize: 0x30 }
  - { offsetInCU: 0x57F7A, offset: 0x57F7A, size: 0x8, addend: 0x0, symName: __ZNSt3__116reverse_iteratorIPNS_12basic_stringIcNS_11char_traitsIcEENS_9allocatorIcEEEEEppB7v160006Ev, symObjAddr: 0x2FDA0, symBinAddr: 0x1000344E0, symSize: 0x20 }
  - { offsetInCU: 0x57FA0, offset: 0x57FA0, size: 0x8, addend: 0x0, symName: __ZNSt3__128__exception_guard_exceptionsINS_29_AllocatorDestroyRangeReverseINS_9allocatorINS_12basic_stringIcNS_11char_traitsIcEENS2_IcEEEEEENS_16reverse_iteratorIPS7_EEEEE10__completeB7v160006Ev, symObjAddr: 0x2FDC0, symBinAddr: 0x100034500, symSize: 0x20 }
  - { offsetInCU: 0x57FC6, offset: 0x57FC6, size: 0x8, addend: 0x0, symName: __ZNSt3__128__exception_guard_exceptionsINS_29_AllocatorDestroyRangeReverseINS_9allocatorINS_12basic_stringIcNS_11char_traitsIcEENS2_IcEEEEEENS_16reverse_iteratorIPS7_EEEEED1B7v160006Ev, symObjAddr: 0x2FDE0, symBinAddr: 0x100034520, symSize: 0x20 }
  - { offsetInCU: 0x57FF0, offset: 0x57FF0, size: 0x8, addend: 0x0, symName: __ZNSt3__128__exception_guard_exceptionsINS_29_AllocatorDestroyRangeReverseINS_9allocatorINS_12basic_stringIcNS_11char_traitsIcEENS2_IcEEEEEENS_16reverse_iteratorIPS7_EEEEEC1B7v160006ESC_, symObjAddr: 0x2FE00, symBinAddr: 0x100034540, symSize: 0x40 }
  - { offsetInCU: 0x58029, offset: 0x58029, size: 0x8, addend: 0x0, symName: __ZNSt3__128__exception_guard_exceptionsINS_29_AllocatorDestroyRangeReverseINS_9allocatorINS_12basic_stringIcNS_11char_traitsIcEENS2_IcEEEEEENS_16reverse_iteratorIPS7_EEEEEC2B7v160006ESC_, symObjAddr: 0x2FE40, symBinAddr: 0x100034580, symSize: 0x30 }
  - { offsetInCU: 0x58062, offset: 0x58062, size: 0x8, addend: 0x0, symName: __ZNSt3__129_AllocatorDestroyRangeReverseINS_9allocatorINS_12basic_stringIcNS_11char_traitsIcEENS1_IcEEEEEENS_16reverse_iteratorIPS6_EEEC2B7v160006ERS7_RSA_SD_, symObjAddr: 0x2FE70, symBinAddr: 0x1000345B0, symSize: 0x40 }
  - { offsetInCU: 0x580B9, offset: 0x580B9, size: 0x8, addend: 0x0, symName: __ZNSt3__19allocatorINS_12basic_stringIcNS_11char_traitsIcEENS0_IcEEEEE9constructB7v160006IS5_JS5_EEEvPT_DpOT0_, symObjAddr: 0x2FEB0, symBinAddr: 0x1000345F0, symSize: 0x30 }
  - { offsetInCU: 0x58111, offset: 0x58111, size: 0x8, addend: 0x0, symName: __ZNSt3__112basic_stringIcNS_11char_traitsIcEENS_9allocatorIcEEEC1B7v160006EOS5_, symObjAddr: 0x2FEE0, symBinAddr: 0x100034620, symSize: 0x30 }
  - { offsetInCU: 0x5814A, offset: 0x5814A, size: 0x8, addend: 0x0, symName: __ZNSt3__112basic_stringIcNS_11char_traitsIcEENS_9allocatorIcEEEC2B7v160006EOS5_, symObjAddr: 0x2FF10, symBinAddr: 0x100034650, symSize: 0x80 }
  - { offsetInCU: 0x58189, offset: 0x58189, size: 0x8, addend: 0x0, symName: __ZNSt3__119__to_address_helperINS_16reverse_iteratorIPNS_12basic_stringIcNS_11char_traitsIcEENS_9allocatorIcEEEEEEvE6__callB7v160006ERKS9_, symObjAddr: 0x2FFA0, symBinAddr: 0x1000346E0, symSize: 0x40 }
  - { offsetInCU: 0x581AD, offset: 0x581AD, size: 0x8, addend: 0x0, symName: __ZNKSt3__116reverse_iteratorIPNS_12basic_stringIcNS_11char_traitsIcEENS_9allocatorIcEEEEEptB7v160006Ev, symObjAddr: 0x2FFE0, symBinAddr: 0x100034720, symSize: 0x20 }
  - { offsetInCU: 0x581D3, offset: 0x581D3, size: 0x8, addend: 0x0, symName: __ZNSt3__128__exception_guard_exceptionsINS_29_AllocatorDestroyRangeReverseINS_9allocatorINS_12basic_stringIcNS_11char_traitsIcEENS2_IcEEEEEENS_16reverse_iteratorIPS7_EEEEED2B7v160006Ev, symObjAddr: 0x30000, symBinAddr: 0x100034740, symSize: 0x40 }
  - { offsetInCU: 0x581FD, offset: 0x581FD, size: 0x8, addend: 0x0, symName: __ZNKSt3__129_AllocatorDestroyRangeReverseINS_9allocatorINS_12basic_stringIcNS_11char_traitsIcEENS1_IcEEEEEENS_16reverse_iteratorIPS6_EEEclB7v160006Ev, symObjAddr: 0x30040, symBinAddr: 0x100034780, symSize: 0xF0 }
  - { offsetInCU: 0x58224, offset: 0x58224, size: 0x8, addend: 0x0, symName: __ZNSt3__116reverse_iteratorINS0_IPNS_12basic_stringIcNS_11char_traitsIcEENS_9allocatorIcEEEEEEEC1B7v160006ES8_, symObjAddr: 0x301A0, symBinAddr: 0x1000348E0, symSize: 0x30 }
  - { offsetInCU: 0x5825D, offset: 0x5825D, size: 0x8, addend: 0x0, symName: __ZNSt3__116allocator_traitsINS_9allocatorINS_12basic_stringIcNS_11char_traitsIcEENS1_IcEEEEEEE7destroyB7v160006IS6_vEEvRS7_PT_, symObjAddr: 0x30220, symBinAddr: 0x100034960, symSize: 0x30 }
  - { offsetInCU: 0x5829A, offset: 0x5829A, size: 0x8, addend: 0x0, symName: __ZNSt3__116reverse_iteratorINS0_IPNS_12basic_stringIcNS_11char_traitsIcEENS_9allocatorIcEEEEEEEppB7v160006Ev, symObjAddr: 0x30270, symBinAddr: 0x1000349B0, symSize: 0x30 }
  - { offsetInCU: 0x582C0, offset: 0x582C0, size: 0x8, addend: 0x0, symName: __ZNKSt3__116reverse_iteratorINS0_IPNS_12basic_stringIcNS_11char_traitsIcEENS_9allocatorIcEEEEEEE4baseB7v160006Ev, symObjAddr: 0x302A0, symBinAddr: 0x1000349E0, symSize: 0x20 }
  - { offsetInCU: 0x582E6, offset: 0x582E6, size: 0x8, addend: 0x0, symName: __ZNSt3__19allocatorINS_12basic_stringIcNS_11char_traitsIcEENS0_IcEEEEE7destroyB7v160006EPS5_, symObjAddr: 0x302C0, symBinAddr: 0x100034A00, symSize: 0x20 }
  - { offsetInCU: 0x58321, offset: 0x58321, size: 0x8, addend: 0x0, symName: __ZNSt3__119__to_address_helperINS_16reverse_iteratorINS1_IPNS_12basic_stringIcNS_11char_traitsIcEENS_9allocatorIcEEEEEEEEvE6__callB7v160006ERKSA_, symObjAddr: 0x302E0, symBinAddr: 0x100034A20, symSize: 0x40 }
  - { offsetInCU: 0x58345, offset: 0x58345, size: 0x8, addend: 0x0, symName: __ZNKSt3__116reverse_iteratorINS0_IPNS_12basic_stringIcNS_11char_traitsIcEENS_9allocatorIcEEEEEEEptB7v160006Ev, symObjAddr: 0x30320, symBinAddr: 0x100034A60, symSize: 0x20 }
  - { offsetInCU: 0x5836B, offset: 0x5836B, size: 0x8, addend: 0x0, symName: __ZNKSt3__116reverse_iteratorINS0_IPNS_12basic_stringIcNS_11char_traitsIcEENS_9allocatorIcEEEEEEEdeB7v160006Ev, symObjAddr: 0x30340, symBinAddr: 0x100034A80, symSize: 0x40 }
  - { offsetInCU: 0x583A0, offset: 0x583A0, size: 0x8, addend: 0x0, symName: __ZNSt3__116reverse_iteratorIPNS_12basic_stringIcNS_11char_traitsIcEENS_9allocatorIcEEEEEmmB7v160006Ev, symObjAddr: 0x30380, symBinAddr: 0x100034AC0, symSize: 0x20 }
  - { offsetInCU: 0x583C6, offset: 0x583C6, size: 0x8, addend: 0x0, symName: __ZNSt3__116reverse_iteratorINS0_IPNS_12basic_stringIcNS_11char_traitsIcEENS_9allocatorIcEEEEEEEC2B7v160006ES8_, symObjAddr: 0x303A0, symBinAddr: 0x100034AE0, symSize: 0x40 }
  - { offsetInCU: 0x583FF, offset: 0x583FF, size: 0x8, addend: 0x0, symName: __ZNSt3__116reverse_iteratorIPNS_12basic_stringIcNS_11char_traitsIcEENS_9allocatorIcEEEEEC2B7v160006ES7_, symObjAddr: 0x303E0, symBinAddr: 0x100034B20, symSize: 0x30 }
  - { offsetInCU: 0x58438, offset: 0x58438, size: 0x8, addend: 0x0, symName: __ZNSt3__114__split_bufferINS_12basic_stringIcNS_11char_traitsIcEENS_9allocatorIcEEEERNS4_IS6_EEED2Ev, symObjAddr: 0x30410, symBinAddr: 0x100034B50, symSize: 0x70 }
  - { offsetInCU: 0x58464, offset: 0x58464, size: 0x8, addend: 0x0, symName: __ZNSt3__114__split_bufferINS_12basic_stringIcNS_11char_traitsIcEENS_9allocatorIcEEEERNS4_IS6_EEE5clearB7v160006Ev, symObjAddr: 0x30480, symBinAddr: 0x100034BC0, symSize: 0x20 }
  - { offsetInCU: 0x5848A, offset: 0x5848A, size: 0x8, addend: 0x0, symName: __ZNSt3__116allocator_traitsINS_9allocatorINS_12basic_stringIcNS_11char_traitsIcEENS1_IcEEEEEEE10deallocateB7v160006ERS7_PS6_m, symObjAddr: 0x304A0, symBinAddr: 0x100034BE0, symSize: 0x30 }
  - { offsetInCU: 0x584CC, offset: 0x584CC, size: 0x8, addend: 0x0, symName: __ZNKSt3__114__split_bufferINS_12basic_stringIcNS_11char_traitsIcEENS_9allocatorIcEEEERNS4_IS6_EEE8capacityB7v160006Ev, symObjAddr: 0x304D0, symBinAddr: 0x100034C10, symSize: 0x40 }
  - { offsetInCU: 0x584F2, offset: 0x584F2, size: 0x8, addend: 0x0, symName: __ZNSt3__114__split_bufferINS_12basic_stringIcNS_11char_traitsIcEENS_9allocatorIcEEEERNS4_IS6_EEE17__destruct_at_endB7v160006EPS6_, symObjAddr: 0x30510, symBinAddr: 0x100034C50, symSize: 0x30 }
  - { offsetInCU: 0x58527, offset: 0x58527, size: 0x8, addend: 0x0, symName: __ZNSt3__114__split_bufferINS_12basic_stringIcNS_11char_traitsIcEENS_9allocatorIcEEEERNS4_IS6_EEE17__destruct_at_endB7v160006EPS6_NS_17integral_constantIbLb0EEE, symObjAddr: 0x30540, symBinAddr: 0x100034C80, symSize: 0x80 }
  - { offsetInCU: 0x58569, offset: 0x58569, size: 0x8, addend: 0x0, symName: __ZNSt3__19allocatorINS_12basic_stringIcNS_11char_traitsIcEENS0_IcEEEEE10deallocateB7v160006EPS5_m, symObjAddr: 0x305C0, symBinAddr: 0x100034D00, symSize: 0x50 }
  - { offsetInCU: 0x585AD, offset: 0x585AD, size: 0x8, addend: 0x0, symName: __ZNKSt3__114__split_bufferINS_12basic_stringIcNS_11char_traitsIcEENS_9allocatorIcEEEERNS4_IS6_EEE9__end_capB7v160006Ev, symObjAddr: 0x30610, symBinAddr: 0x100034D50, symSize: 0x20 }
  - { offsetInCU: 0x585D3, offset: 0x585D3, size: 0x8, addend: 0x0, symName: __ZNKSt3__117__compressed_pairIPNS_12basic_stringIcNS_11char_traitsIcEENS_9allocatorIcEEEERNS4_IS6_EEE5firstB7v160006Ev, symObjAddr: 0x30630, symBinAddr: 0x100034D70, symSize: 0x20 }
  - { offsetInCU: 0x585F9, offset: 0x585F9, size: 0x8, addend: 0x0, symName: __ZN7doctest12_GLOBAL__N_19XmlWriter14writeAttributeIiEERS1_RKNSt3__112basic_stringIcNS4_11char_traitsIcEENS4_9allocatorIcEEEERKT_, symObjAddr: 0x30650, symBinAddr: 0x100034D90, symSize: 0x110 }
  - { offsetInCU: 0x58656, offset: 0x58656, size: 0x8, addend: 0x0, symName: __ZN7doctest12_GLOBAL__N_19XmlWriter14writeAttributeERKNSt3__112basic_stringIcNS2_11char_traitsIcEENS2_9allocatorIcEEEESA_, symObjAddr: 0x30760, symBinAddr: 0x100034EA0, symSize: 0xF0 }
  - { offsetInCU: 0x5869C, offset: 0x5869C, size: 0x8, addend: 0x0, symName: __ZNKSt3__118basic_stringstreamIcNS_11char_traitsIcEENS_9allocatorIcEEE3strB7v160006Ev, symObjAddr: 0x30850, symBinAddr: 0x100034F90, symSize: 0x30 }
  - { offsetInCU: 0x586C2, offset: 0x586C2, size: 0x8, addend: 0x0, symName: __ZNKSt3__112basic_stringIcNS_11char_traitsIcEENS_9allocatorIcEEE5emptyB7v160006Ev, symObjAddr: 0x30880, symBinAddr: 0x100034FC0, symSize: 0x30 }
  - { offsetInCU: 0x586E8, offset: 0x586E8, size: 0x8, addend: 0x0, symName: __ZN7doctest12_GLOBAL__N_19XmlEncodeC1ERKNSt3__112basic_stringIcNS2_11char_traitsIcEENS2_9allocatorIcEEEENS1_7ForWhatE, symObjAddr: 0x308E0, symBinAddr: 0x100035020, symSize: 0x30 }
  - { offsetInCU: 0x58732, offset: 0x58732, size: 0x8, addend: 0x0, symName: __ZN7doctest12_GLOBAL__N_19XmlEncodeD1Ev, symObjAddr: 0x30910, symBinAddr: 0x100035050, symSize: 0x20 }
  - { offsetInCU: 0x5875F, offset: 0x5875F, size: 0x8, addend: 0x0, symName: __ZNK7doctest12_GLOBAL__N_19XmlEncode8encodeToERNSt3__113basic_ostreamIcNS2_11char_traitsIcEEEE, symObjAddr: 0x30930, symBinAddr: 0x100035070, symSize: 0x410 }
  - { offsetInCU: 0x58863, offset: 0x58863, size: 0x8, addend: 0x0, symName: __ZNKSt3__112basic_stringIcNS_11char_traitsIcEENS_9allocatorIcEEEixB7v160006Em, symObjAddr: 0x30D40, symBinAddr: 0x100035480, symSize: 0x30 }
  - { offsetInCU: 0x58898, offset: 0x58898, size: 0x8, addend: 0x0, symName: __ZNSt3__113basic_ostreamIcNS_11char_traitsIcEEElsB7v160006EPFRNS_8ios_baseES5_E, symObjAddr: 0x31080, symBinAddr: 0x1000357C0, symSize: 0x30 }
  - { offsetInCU: 0x588CD, offset: 0x588CD, size: 0x8, addend: 0x0, symName: __ZNSt3__18ios_base5flagsB7v160006Ej, symObjAddr: 0x31160, symBinAddr: 0x1000358A0, symSize: 0x20 }
  - { offsetInCU: 0x58913, offset: 0x58913, size: 0x8, addend: 0x0, symName: __ZNSt3__19basic_iosIcNS_11char_traitsIcEEE4fillB7v160006Ec, symObjAddr: 0x31180, symBinAddr: 0x1000358C0, symSize: 0x80 }
  - { offsetInCU: 0x58959, offset: 0x58959, size: 0x8, addend: 0x0, symName: __ZNSt3__18ios_base4setfB7v160006Ej, symObjAddr: 0x31200, symBinAddr: 0x100035940, symSize: 0x30 }
  - { offsetInCU: 0x5899F, offset: 0x5899F, size: 0x8, addend: 0x0, symName: __ZNSt3__18ios_base4setfB7v160006Ejj, symObjAddr: 0x31230, symBinAddr: 0x100035970, symSize: 0x50 }
  - { offsetInCU: 0x589F4, offset: 0x589F4, size: 0x8, addend: 0x0, symName: __ZNSt3__18ios_base6unsetfB7v160006Ej, symObjAddr: 0x31280, symBinAddr: 0x1000359C0, symSize: 0x20 }
  - { offsetInCU: 0x58A2B, offset: 0x58A2B, size: 0x8, addend: 0x0, symName: __ZNSt3__18__iom_t4IcEC1B7v160006Ec, symObjAddr: 0x312A0, symBinAddr: 0x1000359E0, symSize: 0x30 }
  - { offsetInCU: 0x58A64, offset: 0x58A64, size: 0x8, addend: 0x0, symName: __ZNSt3__18__iom_t4IcEC2B7v160006Ec, symObjAddr: 0x312D0, symBinAddr: 0x100035A10, symSize: 0x20 }
  - { offsetInCU: 0x58A9D, offset: 0x58A9D, size: 0x8, addend: 0x0, symName: __ZNSt3__18__iom_t6C1B7v160006Ei, symObjAddr: 0x312F0, symBinAddr: 0x100035A30, symSize: 0x30 }
  - { offsetInCU: 0x58AD6, offset: 0x58AD6, size: 0x8, addend: 0x0, symName: __ZNSt3__18__iom_t6C2B7v160006Ei, symObjAddr: 0x31320, symBinAddr: 0x100035A60, symSize: 0x20 }
  - { offsetInCU: 0x58B0F, offset: 0x58B0F, size: 0x8, addend: 0x0, symName: __ZN7doctest12_GLOBAL__N_19XmlEncodeC2ERKNSt3__112basic_stringIcNS2_11char_traitsIcEENS2_9allocatorIcEEEENS1_7ForWhatE, symObjAddr: 0x31340, symBinAddr: 0x100035A80, symSize: 0x40 }
  - { offsetInCU: 0x58B59, offset: 0x58B59, size: 0x8, addend: 0x0, symName: __ZN7doctest12_GLOBAL__N_19XmlEncodeD2Ev, symObjAddr: 0x31380, symBinAddr: 0x100035AC0, symSize: 0x20 }
  - { offsetInCU: 0x58B86, offset: 0x58B86, size: 0x8, addend: 0x0, symName: __ZN7doctest12_GLOBAL__N_19XmlWriter14writeAttributeINS_6StringEEERS1_RKNSt3__112basic_stringIcNS5_11char_traitsIcEENS5_9allocatorIcEEEERKT_, symObjAddr: 0x313A0, symBinAddr: 0x100035AE0, symSize: 0x110 }
  - { offsetInCU: 0x58BE3, offset: 0x58BE3, size: 0x8, addend: 0x0, symName: __ZN7doctest12_GLOBAL__N_19XmlWriter13ScopedElementD2Ev, symObjAddr: 0x314B0, symBinAddr: 0x100035BF0, symSize: 0x50 }
  - { offsetInCU: 0x58C0F, offset: 0x58C0F, size: 0x8, addend: 0x0, symName: __ZN7doctest12_GLOBAL__N_19XmlWriter14writeAttributeERKNSt3__112basic_stringIcNS2_11char_traitsIcEENS2_9allocatorIcEEEEPKc, symObjAddr: 0x31500, symBinAddr: 0x100035C40, symSize: 0x130 }
  - { offsetInCU: 0x58C55, offset: 0x58C55, size: 0x8, addend: 0x0, symName: __ZN7doctest12_GLOBAL__N_19XmlWriter14writeAttributeIjEERS1_RKNSt3__112basic_stringIcNS4_11char_traitsIcEENS4_9allocatorIcEEEERKT_, symObjAddr: 0x31630, symBinAddr: 0x100035D70, symSize: 0x110 }
  - { offsetInCU: 0x58CB2, offset: 0x58CB2, size: 0x8, addend: 0x0, symName: __ZN7doctest12_GLOBAL__N_19XmlWriter14writeAttributeERKNSt3__112basic_stringIcNS2_11char_traitsIcEENS2_9allocatorIcEEEEb, symObjAddr: 0x31740, symBinAddr: 0x100035E80, symSize: 0x80 }
  - { offsetInCU: 0x58CF8, offset: 0x58CF8, size: 0x8, addend: 0x0, symName: __ZNKSt3__112basic_stringIcNS_11char_traitsIcEENS_9allocatorIcEEE6substrB7v160006Emm, symObjAddr: 0x317C0, symBinAddr: 0x100035F00, symSize: 0x70 }
  - { offsetInCU: 0x58D3C, offset: 0x58D3C, size: 0x8, addend: 0x0, symName: __ZNSt3__112basic_stringIcNS_11char_traitsIcEENS_9allocatorIcEEEaSB7v160006EOS5_, symObjAddr: 0x31830, symBinAddr: 0x100035F70, symSize: 0x30 }
  - { offsetInCU: 0x58D71, offset: 0x58D71, size: 0x8, addend: 0x0, symName: __ZNSt3__16vectorINS_12basic_stringIcNS_11char_traitsIcEENS_9allocatorIcEEEENS4_IS6_EEE4backB7v160006Ev, symObjAddr: 0x31860, symBinAddr: 0x100035FA0, symSize: 0x20 }
  - { offsetInCU: 0x58D97, offset: 0x58D97, size: 0x8, addend: 0x0, symName: __ZNSt3__16vectorINS_12basic_stringIcNS_11char_traitsIcEENS_9allocatorIcEEEENS4_IS6_EEE8pop_backEv, symObjAddr: 0x31880, symBinAddr: 0x100035FC0, symSize: 0x30 }
  - { offsetInCU: 0x58DBF, offset: 0x58DBF, size: 0x8, addend: 0x0, symName: __ZNSt3__19allocatorIcEC1B7v160006Ev, symObjAddr: 0x318B0, symBinAddr: 0x100035FF0, symSize: 0x20 }
  - { offsetInCU: 0x58DE9, offset: 0x58DE9, size: 0x8, addend: 0x0, symName: __ZNSt3__112basic_stringIcNS_11char_traitsIcEENS_9allocatorIcEEE13__move_assignB7v160006ERS5_NS_17integral_constantIbLb1EEE, symObjAddr: 0x318D0, symBinAddr: 0x100036010, symSize: 0xD0 }
  - { offsetInCU: 0x58E2B, offset: 0x58E2B, size: 0x8, addend: 0x0, symName: __ZNSt3__116allocator_traitsINS_9allocatorIcEEE10deallocateB7v160006ERS2_Pcm, symObjAddr: 0x319A0, symBinAddr: 0x1000360E0, symSize: 0x30 }
  - { offsetInCU: 0x58E6D, offset: 0x58E6D, size: 0x8, addend: 0x0, symName: __ZNSt3__112basic_stringIcNS_11char_traitsIcEENS_9allocatorIcEEE7__allocB7v160006Ev, symObjAddr: 0x319D0, symBinAddr: 0x100036110, symSize: 0x20 }
  - { offsetInCU: 0x58E93, offset: 0x58E93, size: 0x8, addend: 0x0, symName: __ZNKSt3__112basic_stringIcNS_11char_traitsIcEENS_9allocatorIcEEE14__get_long_capB7v160006Ev, symObjAddr: 0x319F0, symBinAddr: 0x100036130, symSize: 0x30 }
  - { offsetInCU: 0x58EB9, offset: 0x58EB9, size: 0x8, addend: 0x0, symName: __ZNSt3__112basic_stringIcNS_11char_traitsIcEENS_9allocatorIcEEE19__move_assign_allocB7v160006ERS5_, symObjAddr: 0x31A20, symBinAddr: 0x100036160, symSize: 0x30 }
  - { offsetInCU: 0x58EEE, offset: 0x58EEE, size: 0x8, addend: 0x0, symName: __ZNSt3__112basic_stringIcNS_11char_traitsIcEENS_9allocatorIcEEE16__set_short_sizeB7v160006Em, symObjAddr: 0x31A50, symBinAddr: 0x100036190, symSize: 0x50 }
  - { offsetInCU: 0x58F23, offset: 0x58F23, size: 0x8, addend: 0x0, symName: __ZNSt3__111char_traitsIcE6assignERcRKc, symObjAddr: 0x31AA0, symBinAddr: 0x1000361E0, symSize: 0x20 }
  - { offsetInCU: 0x58F56, offset: 0x58F56, size: 0x8, addend: 0x0, symName: __ZNSt3__19allocatorIcE10deallocateB7v160006EPcm, symObjAddr: 0x31AC0, symBinAddr: 0x100036200, symSize: 0x40 }
  - { offsetInCU: 0x58F9A, offset: 0x58F9A, size: 0x8, addend: 0x0, symName: __ZNSt3__117__compressed_pairINS_12basic_stringIcNS_11char_traitsIcEENS_9allocatorIcEEE5__repES5_E6secondB7v160006Ev, symObjAddr: 0x31B00, symBinAddr: 0x100036240, symSize: 0x20 }
  - { offsetInCU: 0x58FC0, offset: 0x58FC0, size: 0x8, addend: 0x0, symName: __ZNSt3__122__compressed_pair_elemINS_9allocatorIcEELi1ELb1EE5__getB7v160006Ev, symObjAddr: 0x31B20, symBinAddr: 0x100036260, symSize: 0x10 }
  - { offsetInCU: 0x58FE6, offset: 0x58FE6, size: 0x8, addend: 0x0, symName: __ZNSt3__112basic_stringIcNS_11char_traitsIcEENS_9allocatorIcEEE19__move_assign_allocB7v160006ERS5_NS_17integral_constantIbLb1EEE, symObjAddr: 0x31B30, symBinAddr: 0x100036270, symSize: 0x30 }
  - { offsetInCU: 0x59026, offset: 0x59026, size: 0x8, addend: 0x0, symName: __ZNSt3__16vectorINS_12basic_stringIcNS_11char_traitsIcEENS_9allocatorIcEEEENS4_IS6_EEE17__destruct_at_endB7v160006EPS6_, symObjAddr: 0x31B60, symBinAddr: 0x1000362A0, symSize: 0x60 }
  - { offsetInCU: 0x5906A, offset: 0x5906A, size: 0x8, addend: 0x0, symName: __ZNSt3__16vectorINS_12basic_stringIcNS_11char_traitsIcEENS_9allocatorIcEEEENS4_IS6_EEE27__invalidate_iterators_pastB7v160006EPS6_, symObjAddr: 0x31BC0, symBinAddr: 0x100036300, symSize: 0x10 }
  - { offsetInCU: 0x590A1, offset: 0x590A1, size: 0x8, addend: 0x0, symName: __ZNSt3__16vectorINS_12basic_stringIcNS_11char_traitsIcEENS_9allocatorIcEEEENS4_IS6_EEE22__base_destruct_at_endB7v160006EPS6_, symObjAddr: 0x31BD0, symBinAddr: 0x100036310, symSize: 0x80 }
  - { offsetInCU: 0x590E5, offset: 0x590E5, size: 0x8, addend: 0x0, symName: __ZNKSt3__16vectorINS_12basic_stringIcNS_11char_traitsIcEENS_9allocatorIcEEEENS4_IS6_EEE17__annotate_shrinkB7v160006Em, symObjAddr: 0x31C50, symBinAddr: 0x100036390, symSize: 0xA0 }
  - { offsetInCU: 0x5911A, offset: 0x5911A, size: 0x8, addend: 0x0, symName: __ZN7doctest12_GLOBAL__N_19XmlWriter16writeDeclarationEv, symObjAddr: 0x31CF0, symBinAddr: 0x100036430, symSize: 0x30 }
  - { offsetInCU: 0x59142, offset: 0x59142, size: 0x8, addend: 0x0, symName: __ZN7doctest12_GLOBAL__N_111XmlReporter20test_case_start_implERKNS_12TestCaseDataE, symObjAddr: 0x31D20, symBinAddr: 0x100036460, symSize: 0x580 }
  - { offsetInCU: 0x59186, offset: 0x59186, size: 0x8, addend: 0x0, symName: __ZN7doctest12_GLOBAL__N_19XmlWriter14writeAttributeIdEERS1_RKNSt3__112basic_stringIcNS4_11char_traitsIcEENS4_9allocatorIcEEEERKT_, symObjAddr: 0x322A0, symBinAddr: 0x1000369E0, symSize: 0x110 }
  - { offsetInCU: 0x59206, offset: 0x59206, size: 0x8, addend: 0x0, symName: __ZNSt3__110lock_guardINS_5mutexEEC1B7v160006ERS1_, symObjAddr: 0x323B0, symBinAddr: 0x100036AF0, symSize: 0x30 }
  - { offsetInCU: 0x5923F, offset: 0x5923F, size: 0x8, addend: 0x0, symName: __ZN7doctest12_GLOBAL__N_19XmlWriter13ScopedElement9writeTextERKNSt3__112basic_stringIcNS3_11char_traitsIcEENS3_9allocatorIcEEEEb, symObjAddr: 0x323E0, symBinAddr: 0x100036B20, symSize: 0x40 }
  - { offsetInCU: 0x59285, offset: 0x59285, size: 0x8, addend: 0x0, symName: __ZNSt3__110lock_guardINS_5mutexEED1B7v160006Ev, symObjAddr: 0x32420, symBinAddr: 0x100036B60, symSize: 0x20 }
  - { offsetInCU: 0x592AF, offset: 0x592AF, size: 0x8, addend: 0x0, symName: __ZNSt3__110lock_guardINS_5mutexEEC2B7v160006ERS1_, symObjAddr: 0x32440, symBinAddr: 0x100036B80, symSize: 0x30 }
  - { offsetInCU: 0x592E8, offset: 0x592E8, size: 0x8, addend: 0x0, symName: __ZN7doctest12_GLOBAL__N_19XmlWriter9writeTextERKNSt3__112basic_stringIcNS2_11char_traitsIcEENS2_9allocatorIcEEEEb, symObjAddr: 0x32470, symBinAddr: 0x100036BB0, symSize: 0xE0 }
  - { offsetInCU: 0x59343, offset: 0x59343, size: 0x8, addend: 0x0, symName: __ZNSt3__110lock_guardINS_5mutexEED2B7v160006Ev, symObjAddr: 0x32550, symBinAddr: 0x100036C90, symSize: 0x20 }
  - { offsetInCU: 0x5936D, offset: 0x5936D, size: 0x8, addend: 0x0, symName: __ZNK7doctest10AssertData14StringContains5c_strEv, symObjAddr: 0x32570, symBinAddr: 0x100036CB0, symSize: 0x20 }
  - { offsetInCU: 0x59393, offset: 0x59393, size: 0x8, addend: 0x0, symName: __ZN7doctest12_GLOBAL__N_111XmlReporter12log_contextsEv, symObjAddr: 0x32590, symBinAddr: 0x100036CD0, symSize: 0x290 }
  - { offsetInCU: 0x5940B, offset: 0x5940B, size: 0x8, addend: 0x0, symName: __ZNSt3__118basic_stringstreamIcNS_11char_traitsIcEENS_9allocatorIcEEE3strB7v160006ERKNS_12basic_stringIcS2_S4_EE, symObjAddr: 0x32820, symBinAddr: 0x100036F60, symSize: 0x30 }
  - { offsetInCU: 0x59440, offset: 0x59440, size: 0x8, addend: 0x0, symName: __ZN7doctest12_GLOBAL__N_111XmlReporterD2Ev, symObjAddr: 0x32850, symBinAddr: 0x100036F90, symSize: 0x50 }
  - { offsetInCU: 0x5946D, offset: 0x5946D, size: 0x8, addend: 0x0, symName: __ZN7doctest12_GLOBAL__N_19XmlWriterD1Ev, symObjAddr: 0x328A0, symBinAddr: 0x100036FE0, symSize: 0x20 }
  - { offsetInCU: 0x59499, offset: 0x59499, size: 0x8, addend: 0x0, symName: __ZN7doctest12_GLOBAL__N_19XmlWriterD2Ev, symObjAddr: 0x328C0, symBinAddr: 0x100037000, symSize: 0x70 }
  - { offsetInCU: 0x594C5, offset: 0x594C5, size: 0x8, addend: 0x0, symName: __ZNKSt3__16vectorINS_12basic_stringIcNS_11char_traitsIcEENS_9allocatorIcEEEENS4_IS6_EEE5emptyB7v160006Ev, symObjAddr: 0x32930, symBinAddr: 0x100037070, symSize: 0x20 }
  - { offsetInCU: 0x594EB, offset: 0x594EB, size: 0x8, addend: 0x0, symName: __ZNSt3__16vectorINS_12basic_stringIcNS_11char_traitsIcEENS_9allocatorIcEEEENS4_IS6_EEED1B7v160006Ev, symObjAddr: 0x32950, symBinAddr: 0x100037090, symSize: 0x20 }
  - { offsetInCU: 0x59515, offset: 0x59515, size: 0x8, addend: 0x0, symName: __ZNSt3__16vectorINS_12basic_stringIcNS_11char_traitsIcEENS_9allocatorIcEEEENS4_IS6_EEED2B7v160006Ev, symObjAddr: 0x32970, symBinAddr: 0x1000370B0, symSize: 0x40 }
  - { offsetInCU: 0x5953F, offset: 0x5953F, size: 0x8, addend: 0x0, symName: __ZNSt3__16vectorINS_12basic_stringIcNS_11char_traitsIcEENS_9allocatorIcEEEENS4_IS6_EEE16__destroy_vectorC1ERS8_, symObjAddr: 0x329B0, symBinAddr: 0x1000370F0, symSize: 0x30 }
  - { offsetInCU: 0x59578, offset: 0x59578, size: 0x8, addend: 0x0, symName: __ZNSt3__16vectorINS_12basic_stringIcNS_11char_traitsIcEENS_9allocatorIcEEEENS4_IS6_EEE16__destroy_vectorclB7v160006Ev, symObjAddr: 0x329E0, symBinAddr: 0x100037120, symSize: 0x90 }
  - { offsetInCU: 0x5959E, offset: 0x5959E, size: 0x8, addend: 0x0, symName: __ZNSt3__16vectorINS_12basic_stringIcNS_11char_traitsIcEENS_9allocatorIcEEEENS4_IS6_EEE16__destroy_vectorC2ERS8_, symObjAddr: 0x32A70, symBinAddr: 0x1000371B0, symSize: 0x20 }
  - { offsetInCU: 0x595D7, offset: 0x595D7, size: 0x8, addend: 0x0, symName: __ZNSt3__16vectorINS_12basic_stringIcNS_11char_traitsIcEENS_9allocatorIcEEEENS4_IS6_EEE7__clearB7v160006Ev, symObjAddr: 0x32AA0, symBinAddr: 0x1000371E0, symSize: 0x20 }
  - { offsetInCU: 0x595FD, offset: 0x595FD, size: 0x8, addend: 0x0, symName: __ZNKSt3__16vectorIN7doctest6StringENS_9allocatorIS2_EEE17__annotate_shrinkB7v160006Em, symObjAddr: 0x32AC0, symBinAddr: 0x100037200, symSize: 0xA0 }
  - { offsetInCU: 0x59632, offset: 0x59632, size: 0x8, addend: 0x0, symName: __ZN7doctest12_GLOBAL__N_113JUnitReporterC1ERKNS_14ContextOptionsE, symObjAddr: 0x32BC0, symBinAddr: 0x100037300, symSize: 0x30 }
  - { offsetInCU: 0x5966B, offset: 0x5966B, size: 0x8, addend: 0x0, symName: __ZN7doctest12_GLOBAL__N_113JUnitReporterC2ERKNS_14ContextOptionsE, symObjAddr: 0x32BF0, symBinAddr: 0x100037330, symSize: 0xC0 }
  - { offsetInCU: 0x596A4, offset: 0x596A4, size: 0x8, addend: 0x0, symName: __ZN7doctest12_GLOBAL__N_113JUnitReporter17JUnitTestCaseDataC1Ev, symObjAddr: 0x32CB0, symBinAddr: 0x1000373F0, symSize: 0x20 }
  - { offsetInCU: 0x596D1, offset: 0x596D1, size: 0x8, addend: 0x0, symName: __ZN7doctest12_GLOBAL__N_113JUnitReporter12report_queryERKNS_9QueryDataE, symObjAddr: 0x32CD0, symBinAddr: 0x100037410, symSize: 0x30 }
  - { offsetInCU: 0x59702, offset: 0x59702, size: 0x8, addend: 0x0, symName: __ZN7doctest12_GLOBAL__N_113JUnitReporter14test_run_startEv, symObjAddr: 0x32D00, symBinAddr: 0x100037440, symSize: 0x20 }
  - { offsetInCU: 0x59728, offset: 0x59728, size: 0x8, addend: 0x0, symName: __ZN7doctest12_GLOBAL__N_113JUnitReporter12test_run_endERKNS_12TestRunStatsE, symObjAddr: 0x32D20, symBinAddr: 0x100037460, symSize: 0xB70 }
  - { offsetInCU: 0x5984D, offset: 0x5984D, size: 0x8, addend: 0x0, symName: __ZN7doctest12_GLOBAL__N_113JUnitReporter15test_case_startERKNS_12TestCaseDataE, symObjAddr: 0x33890, symBinAddr: 0x100037FD0, symSize: 0xD0 }
  - { offsetInCU: 0x59882, offset: 0x59882, size: 0x8, addend: 0x0, symName: __ZN7doctest12_GLOBAL__N_113JUnitReporter17test_case_reenterERKNS_12TestCaseDataE, symObjAddr: 0x33960, symBinAddr: 0x1000380A0, symSize: 0x160 }
  - { offsetInCU: 0x598B7, offset: 0x598B7, size: 0x8, addend: 0x0, symName: __ZN7doctest12_GLOBAL__N_113JUnitReporter13test_case_endERKNS_20CurrentTestCaseStatsE, symObjAddr: 0x33AC0, symBinAddr: 0x100038200, symSize: 0xB0 }
  - { offsetInCU: 0x598E8, offset: 0x598E8, size: 0x8, addend: 0x0, symName: __ZN7doctest12_GLOBAL__N_113JUnitReporter19test_case_exceptionERKNS_17TestCaseExceptionE, symObjAddr: 0x33B70, symBinAddr: 0x1000382B0, symSize: 0x100 }
  - { offsetInCU: 0x5992C, offset: 0x5992C, size: 0x8, addend: 0x0, symName: __ZN7doctest12_GLOBAL__N_113JUnitReporter13subcase_startERKNS_16SubcaseSignatureE, symObjAddr: 0x33C70, symBinAddr: 0x1000383B0, symSize: 0x30 }
  - { offsetInCU: 0x59961, offset: 0x59961, size: 0x8, addend: 0x0, symName: __ZN7doctest12_GLOBAL__N_113JUnitReporter11subcase_endEv, symObjAddr: 0x33CA0, symBinAddr: 0x1000383E0, symSize: 0x10 }
  - { offsetInCU: 0x59987, offset: 0x59987, size: 0x8, addend: 0x0, symName: __ZN7doctest12_GLOBAL__N_113JUnitReporter10log_assertERKNS_10AssertDataE, symObjAddr: 0x33CB0, symBinAddr: 0x1000383F0, symSize: 0x360 }
  - { offsetInCU: 0x599DB, offset: 0x599DB, size: 0x8, addend: 0x0, symName: __ZN7doctest12_GLOBAL__N_113JUnitReporter11log_messageERKNS_11MessageDataE, symObjAddr: 0x34010, symBinAddr: 0x100038750, symSize: 0x380 }
  - { offsetInCU: 0x59A2F, offset: 0x59A2F, size: 0x8, addend: 0x0, symName: __ZN7doctest12_GLOBAL__N_113JUnitReporter17test_case_skippedERKNS_12TestCaseDataE, symObjAddr: 0x34390, symBinAddr: 0x100038AD0, symSize: 0x10 }
  - { offsetInCU: 0x59A60, offset: 0x59A60, size: 0x8, addend: 0x0, symName: __ZN7doctest12_GLOBAL__N_113JUnitReporterD1Ev, symObjAddr: 0x343A0, symBinAddr: 0x100038AE0, symSize: 0x20 }
  - { offsetInCU: 0x59A8D, offset: 0x59A8D, size: 0x8, addend: 0x0, symName: __ZN7doctest12_GLOBAL__N_113JUnitReporterD0Ev, symObjAddr: 0x343C0, symBinAddr: 0x100038B00, symSize: 0x30 }
  - { offsetInCU: 0x59ABA, offset: 0x59ABA, size: 0x8, addend: 0x0, symName: __ZN7doctest12_GLOBAL__N_113JUnitReporter17JUnitTestCaseDataC2Ev, symObjAddr: 0x343F0, symBinAddr: 0x100038B30, symSize: 0x40 }
  - { offsetInCU: 0x59AE7, offset: 0x59AE7, size: 0x8, addend: 0x0, symName: __ZNSt3__16vectorIN7doctest12_GLOBAL__N_113JUnitReporter17JUnitTestCaseData13JUnitTestCaseENS_9allocatorIS5_EEEC1B7v160006Ev, symObjAddr: 0x34430, symBinAddr: 0x100038B70, symSize: 0x20 }
  - { offsetInCU: 0x59B11, offset: 0x59B11, size: 0x8, addend: 0x0, symName: __ZNSt3__16vectorIN7doctest12_GLOBAL__N_113JUnitReporter17JUnitTestCaseData13JUnitTestCaseENS_9allocatorIS5_EEEC2B7v160006Ev, symObjAddr: 0x34450, symBinAddr: 0x100038B90, symSize: 0x60 }
  - { offsetInCU: 0x59B3B, offset: 0x59B3B, size: 0x8, addend: 0x0, symName: __ZNSt3__117__compressed_pairIPN7doctest12_GLOBAL__N_113JUnitReporter17JUnitTestCaseData13JUnitTestCaseENS_9allocatorIS5_EEEC1B7v160006IDnNS_18__default_init_tagEEEOT_OT0_, symObjAddr: 0x344B0, symBinAddr: 0x100038BF0, symSize: 0x30 }
  - { offsetInCU: 0x59B95, offset: 0x59B95, size: 0x8, addend: 0x0, symName: __ZNSt3__117__compressed_pairIPN7doctest12_GLOBAL__N_113JUnitReporter17JUnitTestCaseData13JUnitTestCaseENS_9allocatorIS5_EEEC2B7v160006IDnNS_18__default_init_tagEEEOT_OT0_, symObjAddr: 0x344F0, symBinAddr: 0x100038C30, symSize: 0x40 }
  - { offsetInCU: 0x59BEF, offset: 0x59BEF, size: 0x8, addend: 0x0, symName: __ZNSt3__122__compressed_pair_elemIPN7doctest12_GLOBAL__N_113JUnitReporter17JUnitTestCaseData13JUnitTestCaseELi0ELb0EEC2B7v160006IDnvEEOT_, symObjAddr: 0x34530, symBinAddr: 0x100038C70, symSize: 0x20 }
  - { offsetInCU: 0x59C32, offset: 0x59C32, size: 0x8, addend: 0x0, symName: __ZNSt3__122__compressed_pair_elemINS_9allocatorIN7doctest12_GLOBAL__N_113JUnitReporter17JUnitTestCaseData13JUnitTestCaseEEELi1ELb1EEC2B7v160006ENS_18__default_init_tagE, symObjAddr: 0x34550, symBinAddr: 0x100038C90, symSize: 0x20 }
  - { offsetInCU: 0x59C67, offset: 0x59C67, size: 0x8, addend: 0x0, symName: __ZNSt3__19allocatorIN7doctest12_GLOBAL__N_113JUnitReporter17JUnitTestCaseData13JUnitTestCaseEEC2B7v160006Ev, symObjAddr: 0x34570, symBinAddr: 0x100038CB0, symSize: 0x20 }
  - { offsetInCU: 0x59C91, offset: 0x59C91, size: 0x8, addend: 0x0, symName: __ZNSt3__116__non_trivial_ifILb1ENS_9allocatorIN7doctest12_GLOBAL__N_113JUnitReporter17JUnitTestCaseData13JUnitTestCaseEEEEC2B7v160006Ev, symObjAddr: 0x34590, symBinAddr: 0x100038CD0, symSize: 0x10 }
  - { offsetInCU: 0x59CBB, offset: 0x59CBB, size: 0x8, addend: 0x0, symName: __ZN7doctest12_GLOBAL__N_113JUnitReporter17JUnitTestCaseData19getCurrentTimestampEv, symObjAddr: 0x345A0, symBinAddr: 0x100038CE0, symSize: 0xB0 }
  - { offsetInCU: 0x59D1D, offset: 0x59D1D, size: 0x8, addend: 0x0, symName: __ZNSt3__16vectorIN7doctest12_GLOBAL__N_113JUnitReporter17JUnitTestCaseData13JUnitTestCaseENS_9allocatorIS5_EEE5beginB7v160006Ev, symObjAddr: 0x34650, symBinAddr: 0x100038D90, symSize: 0x30 }
  - { offsetInCU: 0x59D45, offset: 0x59D45, size: 0x8, addend: 0x0, symName: __ZNSt3__16vectorIN7doctest12_GLOBAL__N_113JUnitReporter17JUnitTestCaseData13JUnitTestCaseENS_9allocatorIS5_EEE3endB7v160006Ev, symObjAddr: 0x34680, symBinAddr: 0x100038DC0, symSize: 0x30 }
  - { offsetInCU: 0x59D6D, offset: 0x59D6D, size: 0x8, addend: 0x0, symName: __ZNKSt3__111__wrap_iterIPN7doctest12_GLOBAL__N_113JUnitReporter17JUnitTestCaseData13JUnitTestCaseEEdeB7v160006Ev, symObjAddr: 0x346E0, symBinAddr: 0x100038E20, symSize: 0x20 }
  - { offsetInCU: 0x59D93, offset: 0x59D93, size: 0x8, addend: 0x0, symName: __ZNKSt3__16vectorIN7doctest12_GLOBAL__N_113JUnitReporter17JUnitTestCaseData16JUnitTestMessageENS_9allocatorIS5_EEE5beginB7v160006Ev, symObjAddr: 0x34700, symBinAddr: 0x100038E40, symSize: 0x30 }
  - { offsetInCU: 0x59DBB, offset: 0x59DBB, size: 0x8, addend: 0x0, symName: __ZNKSt3__16vectorIN7doctest12_GLOBAL__N_113JUnitReporter17JUnitTestCaseData16JUnitTestMessageENS_9allocatorIS5_EEE3endB7v160006Ev, symObjAddr: 0x34730, symBinAddr: 0x100038E70, symSize: 0x30 }
  - { offsetInCU: 0x59DE3, offset: 0x59DE3, size: 0x8, addend: 0x0, symName: __ZNKSt3__111__wrap_iterIPKN7doctest12_GLOBAL__N_113JUnitReporter17JUnitTestCaseData16JUnitTestMessageEEdeB7v160006Ev, symObjAddr: 0x34790, symBinAddr: 0x100038ED0, symSize: 0x20 }
  - { offsetInCU: 0x59E09, offset: 0x59E09, size: 0x8, addend: 0x0, symName: __ZN7doctest12_GLOBAL__N_19XmlWriter13ScopedElement14writeAttributeINSt3__112basic_stringIcNS4_11char_traitsIcEENS4_9allocatorIcEEEEEERS2_RKSA_RKT_, symObjAddr: 0x347B0, symBinAddr: 0x100038EF0, symSize: 0x40 }
  - { offsetInCU: 0x59E56, offset: 0x59E56, size: 0x8, addend: 0x0, symName: __ZNSt3__111__wrap_iterIPKN7doctest12_GLOBAL__N_113JUnitReporter17JUnitTestCaseData16JUnitTestMessageEEppB7v160006Ev, symObjAddr: 0x347F0, symBinAddr: 0x100038F30, symSize: 0x20 }
  - { offsetInCU: 0x59E7C, offset: 0x59E7C, size: 0x8, addend: 0x0, symName: __ZNSt3__111__wrap_iterIPN7doctest12_GLOBAL__N_113JUnitReporter17JUnitTestCaseData13JUnitTestCaseEEppB7v160006Ev, symObjAddr: 0x34810, symBinAddr: 0x100038F50, symSize: 0x20 }
  - { offsetInCU: 0x59EA2, offset: 0x59EA2, size: 0x8, addend: 0x0, symName: __ZNSt3__16vectorIN7doctest12_GLOBAL__N_113JUnitReporter17JUnitTestCaseData13JUnitTestCaseENS_9allocatorIS5_EEE11__make_iterB7v160006EPS5_, symObjAddr: 0x34830, symBinAddr: 0x100038F70, symSize: 0x30 }
  - { offsetInCU: 0x59ED7, offset: 0x59ED7, size: 0x8, addend: 0x0, symName: __ZNSt3__111__wrap_iterIPN7doctest12_GLOBAL__N_113JUnitReporter17JUnitTestCaseData13JUnitTestCaseEEC1B7v160006EPKvS6_, symObjAddr: 0x34860, symBinAddr: 0x100038FA0, symSize: 0x30 }
  - { offsetInCU: 0x59F1F, offset: 0x59F1F, size: 0x8, addend: 0x0, symName: __ZNSt3__111__wrap_iterIPN7doctest12_GLOBAL__N_113JUnitReporter17JUnitTestCaseData13JUnitTestCaseEEC2B7v160006EPKvS6_, symObjAddr: 0x34890, symBinAddr: 0x100038FD0, symSize: 0x20 }
  - { offsetInCU: 0x59F67, offset: 0x59F67, size: 0x8, addend: 0x0, symName: __ZNKSt3__111__wrap_iterIPN7doctest12_GLOBAL__N_113JUnitReporter17JUnitTestCaseData13JUnitTestCaseEE4baseB7v160006Ev, symObjAddr: 0x348F0, symBinAddr: 0x100039030, symSize: 0x20 }
  - { offsetInCU: 0x59F8D, offset: 0x59F8D, size: 0x8, addend: 0x0, symName: __ZNKSt3__16vectorIN7doctest12_GLOBAL__N_113JUnitReporter17JUnitTestCaseData16JUnitTestMessageENS_9allocatorIS5_EEE11__make_iterB7v160006EPKS5_, symObjAddr: 0x34910, symBinAddr: 0x100039050, symSize: 0x30 }
  - { offsetInCU: 0x59FC2, offset: 0x59FC2, size: 0x8, addend: 0x0, symName: __ZNSt3__111__wrap_iterIPKN7doctest12_GLOBAL__N_113JUnitReporter17JUnitTestCaseData16JUnitTestMessageEEC1B7v160006EPKvS7_, symObjAddr: 0x34940, symBinAddr: 0x100039080, symSize: 0x30 }
  - { offsetInCU: 0x5A00A, offset: 0x5A00A, size: 0x8, addend: 0x0, symName: __ZNSt3__111__wrap_iterIPKN7doctest12_GLOBAL__N_113JUnitReporter17JUnitTestCaseData16JUnitTestMessageEEC2B7v160006EPKvS7_, symObjAddr: 0x34970, symBinAddr: 0x1000390B0, symSize: 0x20 }
  - { offsetInCU: 0x5A052, offset: 0x5A052, size: 0x8, addend: 0x0, symName: __ZNKSt3__111__wrap_iterIPKN7doctest12_GLOBAL__N_113JUnitReporter17JUnitTestCaseData16JUnitTestMessageEE4baseB7v160006Ev, symObjAddr: 0x349D0, symBinAddr: 0x100039110, symSize: 0x20 }
  - { offsetInCU: 0x5A078, offset: 0x5A078, size: 0x8, addend: 0x0, symName: __ZN7doctest12_GLOBAL__N_113JUnitReporter17JUnitTestCaseData3addERKNSt3__112basic_stringIcNS3_11char_traitsIcEENS3_9allocatorIcEEEESB_, symObjAddr: 0x349F0, symBinAddr: 0x100039130, symSize: 0x30 }
  - { offsetInCU: 0x5A0BC, offset: 0x5A0BC, size: 0x8, addend: 0x0, symName: __ZNSt3__16vectorIN7doctest12_GLOBAL__N_113JUnitReporter17JUnitTestCaseData13JUnitTestCaseENS_9allocatorIS5_EEE12emplace_backIJRKNS_12basic_stringIcNS_11char_traitsIcEENS6_IcEEEESG_EEERS5_DpOT_, symObjAddr: 0x34A20, symBinAddr: 0x100039160, symSize: 0x70 }
  - { offsetInCU: 0x5A112, offset: 0x5A112, size: 0x8, addend: 0x0, symName: __ZNSt3__16vectorIN7doctest12_GLOBAL__N_113JUnitReporter17JUnitTestCaseData13JUnitTestCaseENS_9allocatorIS5_EEE9__end_capB7v160006Ev, symObjAddr: 0x34A90, symBinAddr: 0x1000391D0, symSize: 0x20 }
  - { offsetInCU: 0x5A138, offset: 0x5A138, size: 0x8, addend: 0x0, symName: __ZNSt3__16vectorIN7doctest12_GLOBAL__N_113JUnitReporter17JUnitTestCaseData13JUnitTestCaseENS_9allocatorIS5_EEE22__construct_one_at_endB7v160006IJRKNS_12basic_stringIcNS_11char_traitsIcEENS6_IcEEEESG_EEEvDpOT_, symObjAddr: 0x34AB0, symBinAddr: 0x1000391F0, symSize: 0xA0 }
  - { offsetInCU: 0x5A19B, offset: 0x5A19B, size: 0x8, addend: 0x0, symName: __ZNSt3__16vectorIN7doctest12_GLOBAL__N_113JUnitReporter17JUnitTestCaseData13JUnitTestCaseENS_9allocatorIS5_EEE24__emplace_back_slow_pathIJRKNS_12basic_stringIcNS_11char_traitsIcEENS6_IcEEEESG_EEEvDpOT_, symObjAddr: 0x34B50, symBinAddr: 0x100039290, symSize: 0xE0 }
  - { offsetInCU: 0x5A210, offset: 0x5A210, size: 0x8, addend: 0x0, symName: __ZNSt3__16vectorIN7doctest12_GLOBAL__N_113JUnitReporter17JUnitTestCaseData13JUnitTestCaseENS_9allocatorIS5_EEE4backB7v160006Ev, symObjAddr: 0x34C30, symBinAddr: 0x100039370, symSize: 0x20 }
  - { offsetInCU: 0x5A236, offset: 0x5A236, size: 0x8, addend: 0x0, symName: __ZNSt3__117__compressed_pairIPN7doctest12_GLOBAL__N_113JUnitReporter17JUnitTestCaseData13JUnitTestCaseENS_9allocatorIS5_EEE5firstB7v160006Ev, symObjAddr: 0x34C50, symBinAddr: 0x100039390, symSize: 0x20 }
  - { offsetInCU: 0x5A25C, offset: 0x5A25C, size: 0x8, addend: 0x0, symName: __ZNSt3__122__compressed_pair_elemIPN7doctest12_GLOBAL__N_113JUnitReporter17JUnitTestCaseData13JUnitTestCaseELi0ELb0EE5__getB7v160006Ev, symObjAddr: 0x34C70, symBinAddr: 0x1000393B0, symSize: 0x10 }
  - { offsetInCU: 0x5A29E, offset: 0x5A29E, size: 0x8, addend: 0x0, symName: __ZNSt3__16vectorIN7doctest12_GLOBAL__N_113JUnitReporter17JUnitTestCaseData13JUnitTestCaseENS_9allocatorIS5_EEE21_ConstructTransactionC1B7v160006ERS8_m, symObjAddr: 0x34C80, symBinAddr: 0x1000393C0, symSize: 0x30 }
  - { offsetInCU: 0x5A2E6, offset: 0x5A2E6, size: 0x8, addend: 0x0, symName: __ZNSt3__116allocator_traitsINS_9allocatorIN7doctest12_GLOBAL__N_113JUnitReporter17JUnitTestCaseData13JUnitTestCaseEEEE9constructB7v160006IS6_JRKNS_12basic_stringIcNS_11char_traitsIcEENS1_IcEEEESG_EvEEvRS7_PT_DpOT0_, symObjAddr: 0x34CB0, symBinAddr: 0x1000393F0, symSize: 0x40 }
  - { offsetInCU: 0x5A351, offset: 0x5A351, size: 0x8, addend: 0x0, symName: __ZNSt3__16vectorIN7doctest12_GLOBAL__N_113JUnitReporter17JUnitTestCaseData13JUnitTestCaseENS_9allocatorIS5_EEE7__allocB7v160006Ev, symObjAddr: 0x34CF0, symBinAddr: 0x100039430, symSize: 0x20 }
  - { offsetInCU: 0x5A377, offset: 0x5A377, size: 0x8, addend: 0x0, symName: __ZNSt3__16vectorIN7doctest12_GLOBAL__N_113JUnitReporter17JUnitTestCaseData13JUnitTestCaseENS_9allocatorIS5_EEE21_ConstructTransactionD1B7v160006Ev, symObjAddr: 0x34D20, symBinAddr: 0x100039460, symSize: 0x20 }
  - { offsetInCU: 0x5A3A1, offset: 0x5A3A1, size: 0x8, addend: 0x0, symName: __ZNSt3__16vectorIN7doctest12_GLOBAL__N_113JUnitReporter17JUnitTestCaseData13JUnitTestCaseENS_9allocatorIS5_EEE21_ConstructTransactionC2B7v160006ERS8_m, symObjAddr: 0x34D40, symBinAddr: 0x100039480, symSize: 0x40 }
  - { offsetInCU: 0x5A3E9, offset: 0x5A3E9, size: 0x8, addend: 0x0, symName: __ZNSt3__19allocatorIN7doctest12_GLOBAL__N_113JUnitReporter17JUnitTestCaseData13JUnitTestCaseEE9constructB7v160006IS5_JRKNS_12basic_stringIcNS_11char_traitsIcEENS0_IcEEEESE_EEEvPT_DpOT0_, symObjAddr: 0x34D80, symBinAddr: 0x1000394C0, symSize: 0x30 }
  - { offsetInCU: 0x5A455, offset: 0x5A455, size: 0x8, addend: 0x0, symName: __ZN7doctest12_GLOBAL__N_113JUnitReporter17JUnitTestCaseData13JUnitTestCaseC1ERKNSt3__112basic_stringIcNS4_11char_traitsIcEENS4_9allocatorIcEEEESC_, symObjAddr: 0x34DB0, symBinAddr: 0x1000394F0, symSize: 0x30 }
  - { offsetInCU: 0x5A49D, offset: 0x5A49D, size: 0x8, addend: 0x0, symName: __ZN7doctest12_GLOBAL__N_113JUnitReporter17JUnitTestCaseData13JUnitTestCaseC2ERKNSt3__112basic_stringIcNS4_11char_traitsIcEENS4_9allocatorIcEEEESC_, symObjAddr: 0x34DE0, symBinAddr: 0x100039520, symSize: 0x90 }
  - { offsetInCU: 0x5A4E5, offset: 0x5A4E5, size: 0x8, addend: 0x0, symName: __ZNSt3__16vectorIN7doctest12_GLOBAL__N_113JUnitReporter17JUnitTestCaseData16JUnitTestMessageENS_9allocatorIS5_EEEC1B7v160006Ev, symObjAddr: 0x34E70, symBinAddr: 0x1000395B0, symSize: 0x20 }
  - { offsetInCU: 0x5A50F, offset: 0x5A50F, size: 0x8, addend: 0x0, symName: __ZNSt3__16vectorIN7doctest12_GLOBAL__N_113JUnitReporter17JUnitTestCaseData16JUnitTestMessageENS_9allocatorIS5_EEEC2B7v160006Ev, symObjAddr: 0x34E90, symBinAddr: 0x1000395D0, symSize: 0x60 }
  - { offsetInCU: 0x5A539, offset: 0x5A539, size: 0x8, addend: 0x0, symName: __ZNSt3__117__compressed_pairIPN7doctest12_GLOBAL__N_113JUnitReporter17JUnitTestCaseData16JUnitTestMessageENS_9allocatorIS5_EEEC1B7v160006IDnNS_18__default_init_tagEEEOT_OT0_, symObjAddr: 0x34EF0, symBinAddr: 0x100039630, symSize: 0x30 }
  - { offsetInCU: 0x5A593, offset: 0x5A593, size: 0x8, addend: 0x0, symName: __ZNSt3__117__compressed_pairIPN7doctest12_GLOBAL__N_113JUnitReporter17JUnitTestCaseData16JUnitTestMessageENS_9allocatorIS5_EEEC2B7v160006IDnNS_18__default_init_tagEEEOT_OT0_, symObjAddr: 0x34F30, symBinAddr: 0x100039670, symSize: 0x40 }
  - { offsetInCU: 0x5A5ED, offset: 0x5A5ED, size: 0x8, addend: 0x0, symName: __ZNSt3__122__compressed_pair_elemIPN7doctest12_GLOBAL__N_113JUnitReporter17JUnitTestCaseData16JUnitTestMessageELi0ELb0EEC2B7v160006IDnvEEOT_, symObjAddr: 0x34F70, symBinAddr: 0x1000396B0, symSize: 0x20 }
  - { offsetInCU: 0x5A630, offset: 0x5A630, size: 0x8, addend: 0x0, symName: __ZNSt3__122__compressed_pair_elemINS_9allocatorIN7doctest12_GLOBAL__N_113JUnitReporter17JUnitTestCaseData16JUnitTestMessageEEELi1ELb1EEC2B7v160006ENS_18__default_init_tagE, symObjAddr: 0x34F90, symBinAddr: 0x1000396D0, symSize: 0x20 }
  - { offsetInCU: 0x5A665, offset: 0x5A665, size: 0x8, addend: 0x0, symName: __ZNSt3__19allocatorIN7doctest12_GLOBAL__N_113JUnitReporter17JUnitTestCaseData16JUnitTestMessageEEC2B7v160006Ev, symObjAddr: 0x34FB0, symBinAddr: 0x1000396F0, symSize: 0x20 }
  - { offsetInCU: 0x5A68F, offset: 0x5A68F, size: 0x8, addend: 0x0, symName: __ZNSt3__116__non_trivial_ifILb1ENS_9allocatorIN7doctest12_GLOBAL__N_113JUnitReporter17JUnitTestCaseData16JUnitTestMessageEEEEC2B7v160006Ev, symObjAddr: 0x34FD0, symBinAddr: 0x100039710, symSize: 0x10 }
  - { offsetInCU: 0x5A6B9, offset: 0x5A6B9, size: 0x8, addend: 0x0, symName: __ZNSt3__117__compressed_pairIPN7doctest12_GLOBAL__N_113JUnitReporter17JUnitTestCaseData13JUnitTestCaseENS_9allocatorIS5_EEE6secondB7v160006Ev, symObjAddr: 0x34FE0, symBinAddr: 0x100039720, symSize: 0x20 }
  - { offsetInCU: 0x5A6DF, offset: 0x5A6DF, size: 0x8, addend: 0x0, symName: __ZNSt3__122__compressed_pair_elemINS_9allocatorIN7doctest12_GLOBAL__N_113JUnitReporter17JUnitTestCaseData13JUnitTestCaseEEELi1ELb1EE5__getB7v160006Ev, symObjAddr: 0x35000, symBinAddr: 0x100039740, symSize: 0x10 }
  - { offsetInCU: 0x5A705, offset: 0x5A705, size: 0x8, addend: 0x0, symName: __ZNSt3__16vectorIN7doctest12_GLOBAL__N_113JUnitReporter17JUnitTestCaseData13JUnitTestCaseENS_9allocatorIS5_EEE21_ConstructTransactionD2B7v160006Ev, symObjAddr: 0x35010, symBinAddr: 0x100039750, symSize: 0x20 }
  - { offsetInCU: 0x5A72F, offset: 0x5A72F, size: 0x8, addend: 0x0, symName: __ZNKSt3__16vectorIN7doctest12_GLOBAL__N_113JUnitReporter17JUnitTestCaseData13JUnitTestCaseENS_9allocatorIS5_EEE11__recommendB7v160006Em, symObjAddr: 0x35030, symBinAddr: 0x100039770, symSize: 0xA0 }
  - { offsetInCU: 0x5A784, offset: 0x5A784, size: 0x8, addend: 0x0, symName: __ZNKSt3__16vectorIN7doctest12_GLOBAL__N_113JUnitReporter17JUnitTestCaseData13JUnitTestCaseENS_9allocatorIS5_EEE4sizeB7v160006Ev, symObjAddr: 0x350D0, symBinAddr: 0x100039810, symSize: 0x30 }
  - { offsetInCU: 0x5A7AA, offset: 0x5A7AA, size: 0x8, addend: 0x0, symName: __ZNSt3__114__split_bufferIN7doctest12_GLOBAL__N_113JUnitReporter17JUnitTestCaseData13JUnitTestCaseERNS_9allocatorIS5_EEEC1EmmS8_, symObjAddr: 0x35100, symBinAddr: 0x100039840, symSize: 0x40 }
  - { offsetInCU: 0x5A803, offset: 0x5A803, size: 0x8, addend: 0x0, symName: __ZNSt3__114__split_bufferIN7doctest12_GLOBAL__N_113JUnitReporter17JUnitTestCaseData13JUnitTestCaseERNS_9allocatorIS5_EEED1Ev, symObjAddr: 0x35270, symBinAddr: 0x1000399B0, symSize: 0x20 }
  - { offsetInCU: 0x5A82F, offset: 0x5A82F, size: 0x8, addend: 0x0, symName: __ZNKSt3__16vectorIN7doctest12_GLOBAL__N_113JUnitReporter17JUnitTestCaseData13JUnitTestCaseENS_9allocatorIS5_EEE8max_sizeEv, symObjAddr: 0x35290, symBinAddr: 0x1000399D0, symSize: 0x60 }
  - { offsetInCU: 0x5A857, offset: 0x5A857, size: 0x8, addend: 0x0, symName: __ZNKSt3__16vectorIN7doctest12_GLOBAL__N_113JUnitReporter17JUnitTestCaseData13JUnitTestCaseENS_9allocatorIS5_EEE20__throw_length_errorB7v160006Ev, symObjAddr: 0x352F0, symBinAddr: 0x100039A30, symSize: 0x20 }
  - { offsetInCU: 0x5A87D, offset: 0x5A87D, size: 0x8, addend: 0x0, symName: __ZNKSt3__16vectorIN7doctest12_GLOBAL__N_113JUnitReporter17JUnitTestCaseData13JUnitTestCaseENS_9allocatorIS5_EEE8capacityB7v160006Ev, symObjAddr: 0x35310, symBinAddr: 0x100039A50, symSize: 0x40 }
  - { offsetInCU: 0x5A8AE, offset: 0x5A8AE, size: 0x8, addend: 0x0, symName: __ZNSt3__116allocator_traitsINS_9allocatorIN7doctest12_GLOBAL__N_113JUnitReporter17JUnitTestCaseData13JUnitTestCaseEEEE8max_sizeB7v160006IS7_vEEmRKS7_, symObjAddr: 0x35350, symBinAddr: 0x100039A90, symSize: 0x20 }
  - { offsetInCU: 0x5A8DC, offset: 0x5A8DC, size: 0x8, addend: 0x0, symName: __ZNKSt3__16vectorIN7doctest12_GLOBAL__N_113JUnitReporter17JUnitTestCaseData13JUnitTestCaseENS_9allocatorIS5_EEE7__allocB7v160006Ev, symObjAddr: 0x35370, symBinAddr: 0x100039AB0, symSize: 0x20 }
  - { offsetInCU: 0x5A902, offset: 0x5A902, size: 0x8, addend: 0x0, symName: __ZNKSt3__19allocatorIN7doctest12_GLOBAL__N_113JUnitReporter17JUnitTestCaseData13JUnitTestCaseEE8max_sizeB7v160006Ev, symObjAddr: 0x35390, symBinAddr: 0x100039AD0, symSize: 0x20 }
  - { offsetInCU: 0x5A928, offset: 0x5A928, size: 0x8, addend: 0x0, symName: __ZNKSt3__117__compressed_pairIPN7doctest12_GLOBAL__N_113JUnitReporter17JUnitTestCaseData13JUnitTestCaseENS_9allocatorIS5_EEE6secondB7v160006Ev, symObjAddr: 0x353B0, symBinAddr: 0x100039AF0, symSize: 0x20 }
  - { offsetInCU: 0x5A94E, offset: 0x5A94E, size: 0x8, addend: 0x0, symName: __ZNKSt3__122__compressed_pair_elemINS_9allocatorIN7doctest12_GLOBAL__N_113JUnitReporter17JUnitTestCaseData13JUnitTestCaseEEELi1ELb1EE5__getB7v160006Ev, symObjAddr: 0x353D0, symBinAddr: 0x100039B10, symSize: 0x10 }
  - { offsetInCU: 0x5A974, offset: 0x5A974, size: 0x8, addend: 0x0, symName: __ZNKSt3__16vectorIN7doctest12_GLOBAL__N_113JUnitReporter17JUnitTestCaseData13JUnitTestCaseENS_9allocatorIS5_EEE9__end_capB7v160006Ev, symObjAddr: 0x353E0, symBinAddr: 0x100039B20, symSize: 0x20 }
  - { offsetInCU: 0x5A99A, offset: 0x5A99A, size: 0x8, addend: 0x0, symName: __ZNKSt3__117__compressed_pairIPN7doctest12_GLOBAL__N_113JUnitReporter17JUnitTestCaseData13JUnitTestCaseENS_9allocatorIS5_EEE5firstB7v160006Ev, symObjAddr: 0x35400, symBinAddr: 0x100039B40, symSize: 0x20 }
  - { offsetInCU: 0x5A9C0, offset: 0x5A9C0, size: 0x8, addend: 0x0, symName: __ZNKSt3__122__compressed_pair_elemIPN7doctest12_GLOBAL__N_113JUnitReporter17JUnitTestCaseData13JUnitTestCaseELi0ELb0EE5__getB7v160006Ev, symObjAddr: 0x35420, symBinAddr: 0x100039B60, symSize: 0x10 }
  - { offsetInCU: 0x5A9E6, offset: 0x5A9E6, size: 0x8, addend: 0x0, symName: __ZNSt3__114__split_bufferIN7doctest12_GLOBAL__N_113JUnitReporter17JUnitTestCaseData13JUnitTestCaseERNS_9allocatorIS5_EEEC2EmmS8_, symObjAddr: 0x35430, symBinAddr: 0x100039B70, symSize: 0xC0 }
  - { offsetInCU: 0x5AA5C, offset: 0x5AA5C, size: 0x8, addend: 0x0, symName: __ZNSt3__117__compressed_pairIPN7doctest12_GLOBAL__N_113JUnitReporter17JUnitTestCaseData13JUnitTestCaseERNS_9allocatorIS5_EEEC1B7v160006IDnS9_EEOT_OT0_, symObjAddr: 0x354F0, symBinAddr: 0x100039C30, symSize: 0x30 }
  - { offsetInCU: 0x5AAB6, offset: 0x5AAB6, size: 0x8, addend: 0x0, symName: __ZNSt3__114__split_bufferIN7doctest12_GLOBAL__N_113JUnitReporter17JUnitTestCaseData13JUnitTestCaseERNS_9allocatorIS5_EEE7__allocB7v160006Ev, symObjAddr: 0x35560, symBinAddr: 0x100039CA0, symSize: 0x20 }
  - { offsetInCU: 0x5AADC, offset: 0x5AADC, size: 0x8, addend: 0x0, symName: __ZNSt3__114__split_bufferIN7doctest12_GLOBAL__N_113JUnitReporter17JUnitTestCaseData13JUnitTestCaseERNS_9allocatorIS5_EEE9__end_capB7v160006Ev, symObjAddr: 0x35580, symBinAddr: 0x100039CC0, symSize: 0x20 }
  - { offsetInCU: 0x5AB02, offset: 0x5AB02, size: 0x8, addend: 0x0, symName: __ZNSt3__117__compressed_pairIPN7doctest12_GLOBAL__N_113JUnitReporter17JUnitTestCaseData13JUnitTestCaseERNS_9allocatorIS5_EEEC2B7v160006IDnS9_EEOT_OT0_, symObjAddr: 0x355A0, symBinAddr: 0x100039CE0, symSize: 0x40 }
  - { offsetInCU: 0x5AB5C, offset: 0x5AB5C, size: 0x8, addend: 0x0, symName: __ZNSt3__122__compressed_pair_elemIRNS_9allocatorIN7doctest12_GLOBAL__N_113JUnitReporter17JUnitTestCaseData13JUnitTestCaseEEELi1ELb0EEC2B7v160006IS8_vEEOT_, symObjAddr: 0x355E0, symBinAddr: 0x100039D20, symSize: 0x20 }
  - { offsetInCU: 0x5AB9F, offset: 0x5AB9F, size: 0x8, addend: 0x0, symName: __ZNSt3__19allocatorIN7doctest12_GLOBAL__N_113JUnitReporter17JUnitTestCaseData13JUnitTestCaseEE8allocateB7v160006Em, symObjAddr: 0x35600, symBinAddr: 0x100039D40, symSize: 0x50 }
  - { offsetInCU: 0x5ABD4, offset: 0x5ABD4, size: 0x8, addend: 0x0, symName: __ZNSt3__117__compressed_pairIPN7doctest12_GLOBAL__N_113JUnitReporter17JUnitTestCaseData13JUnitTestCaseERNS_9allocatorIS5_EEE6secondB7v160006Ev, symObjAddr: 0x35650, symBinAddr: 0x100039D90, symSize: 0x20 }
  - { offsetInCU: 0x5ABFA, offset: 0x5ABFA, size: 0x8, addend: 0x0, symName: __ZNSt3__122__compressed_pair_elemIRNS_9allocatorIN7doctest12_GLOBAL__N_113JUnitReporter17JUnitTestCaseData13JUnitTestCaseEEELi1ELb0EE5__getB7v160006Ev, symObjAddr: 0x35670, symBinAddr: 0x100039DB0, symSize: 0x20 }
